
Projekt-GRP13.elf:     file format elf32-littlearm

Sections:
Idx Name          Size      VMA       LMA       File off  Algn
  0 .isr_vector   00000188  08000000  08000000  00010000  2**0
                  CONTENTS, ALLOC, LOAD, READONLY, DATA
  1 .text         00007670  08000190  08000190  00010190  2**4
                  CONTENTS, ALLOC, LOAD, READONLY, CODE
  2 .rodata       0000074c  08007800  08007800  00017800  2**2
                  CONTENTS, ALLOC, LOAD, READONLY, DATA
  3 .ARM.extab    00000000  08007f4c  08007f4c  00020090  2**0
                  CONTENTS
  4 .ARM          00000008  08007f4c  08007f4c  00017f4c  2**2
                  CONTENTS, ALLOC, LOAD, READONLY, DATA
  5 .preinit_array 00000000  08007f54  08007f54  00020090  2**0
                  CONTENTS, ALLOC, LOAD, DATA
  6 .init_array   00000004  08007f54  08007f54  00017f54  2**2
                  CONTENTS, ALLOC, LOAD, DATA
  7 .fini_array   00000004  08007f58  08007f58  00017f58  2**2
                  CONTENTS, ALLOC, LOAD, DATA
  8 .data         00000090  20000000  08007f5c  00020000  2**2
                  CONTENTS, ALLOC, LOAD, DATA
  9 .bss          0000014c  20000090  08007fec  00020090  2**2
                  ALLOC
 10 ._user_heap_stack 00000604  200001dc  08007fec  000201dc  2**0
                  ALLOC
 11 .ARM.attributes 00000030  00000000  00000000  00020090  2**0
                  CONTENTS, READONLY
 12 .debug_info   0001459b  00000000  00000000  000200c0  2**0
                  CONTENTS, READONLY, DEBUGGING, OCTETS
 13 .debug_abbrev 00003152  00000000  00000000  0003465b  2**0
                  CONTENTS, READONLY, DEBUGGING, OCTETS
 14 .debug_aranges 00000d60  00000000  00000000  000377b0  2**3
                  CONTENTS, READONLY, DEBUGGING, OCTETS
 15 .debug_ranges 00000be8  00000000  00000000  00038510  2**3
                  CONTENTS, READONLY, DEBUGGING, OCTETS
 16 .debug_macro  00012d31  00000000  00000000  000390f8  2**0
                  CONTENTS, READONLY, DEBUGGING, OCTETS
 17 .debug_line   00010918  00000000  00000000  0004be29  2**0
                  CONTENTS, READONLY, DEBUGGING, OCTETS
 18 .debug_str    0005c7ef  00000000  00000000  0005c741  2**0
                  CONTENTS, READONLY, DEBUGGING, OCTETS
 19 .comment      00000053  00000000  00000000  000b8f30  2**0
                  CONTENTS, READONLY
 20 .debug_frame  0000435c  00000000  00000000  000b8f84  2**2
                  CONTENTS, READONLY, DEBUGGING, OCTETS

Disassembly of section .text:

08000190 <__do_global_dtors_aux>:
 8000190:	b510      	push	{r4, lr}
 8000192:	4c05      	ldr	r4, [pc, #20]	; (80001a8 <__do_global_dtors_aux+0x18>)
 8000194:	7823      	ldrb	r3, [r4, #0]
 8000196:	b933      	cbnz	r3, 80001a6 <__do_global_dtors_aux+0x16>
 8000198:	4b04      	ldr	r3, [pc, #16]	; (80001ac <__do_global_dtors_aux+0x1c>)
 800019a:	b113      	cbz	r3, 80001a2 <__do_global_dtors_aux+0x12>
 800019c:	4804      	ldr	r0, [pc, #16]	; (80001b0 <__do_global_dtors_aux+0x20>)
 800019e:	f3af 8000 	nop.w
 80001a2:	2301      	movs	r3, #1
 80001a4:	7023      	strb	r3, [r4, #0]
 80001a6:	bd10      	pop	{r4, pc}
 80001a8:	20000090 	.word	0x20000090
 80001ac:	00000000 	.word	0x00000000
 80001b0:	080077e8 	.word	0x080077e8

080001b4 <frame_dummy>:
 80001b4:	b508      	push	{r3, lr}
 80001b6:	4b03      	ldr	r3, [pc, #12]	; (80001c4 <frame_dummy+0x10>)
 80001b8:	b11b      	cbz	r3, 80001c2 <frame_dummy+0xe>
 80001ba:	4903      	ldr	r1, [pc, #12]	; (80001c8 <frame_dummy+0x14>)
 80001bc:	4803      	ldr	r0, [pc, #12]	; (80001cc <frame_dummy+0x18>)
 80001be:	f3af 8000 	nop.w
 80001c2:	bd08      	pop	{r3, pc}
 80001c4:	00000000 	.word	0x00000000
 80001c8:	20000094 	.word	0x20000094
 80001cc:	080077e8 	.word	0x080077e8

080001d0 <strlen>:
 80001d0:	4603      	mov	r3, r0
 80001d2:	f813 2b01 	ldrb.w	r2, [r3], #1
 80001d6:	2a00      	cmp	r2, #0
 80001d8:	d1fb      	bne.n	80001d2 <strlen+0x2>
 80001da:	1a18      	subs	r0, r3, r0
 80001dc:	3801      	subs	r0, #1
 80001de:	4770      	bx	lr

080001e0 <memchr>:
 80001e0:	f001 01ff 	and.w	r1, r1, #255	; 0xff
 80001e4:	2a10      	cmp	r2, #16
 80001e6:	db2b      	blt.n	8000240 <memchr+0x60>
 80001e8:	f010 0f07 	tst.w	r0, #7
 80001ec:	d008      	beq.n	8000200 <memchr+0x20>
 80001ee:	f810 3b01 	ldrb.w	r3, [r0], #1
 80001f2:	3a01      	subs	r2, #1
 80001f4:	428b      	cmp	r3, r1
 80001f6:	d02d      	beq.n	8000254 <memchr+0x74>
 80001f8:	f010 0f07 	tst.w	r0, #7
 80001fc:	b342      	cbz	r2, 8000250 <memchr+0x70>
 80001fe:	d1f6      	bne.n	80001ee <memchr+0xe>
 8000200:	b4f0      	push	{r4, r5, r6, r7}
 8000202:	ea41 2101 	orr.w	r1, r1, r1, lsl #8
 8000206:	ea41 4101 	orr.w	r1, r1, r1, lsl #16
 800020a:	f022 0407 	bic.w	r4, r2, #7
 800020e:	f07f 0700 	mvns.w	r7, #0
 8000212:	2300      	movs	r3, #0
 8000214:	e8f0 5602 	ldrd	r5, r6, [r0], #8
 8000218:	3c08      	subs	r4, #8
 800021a:	ea85 0501 	eor.w	r5, r5, r1
 800021e:	ea86 0601 	eor.w	r6, r6, r1
 8000222:	fa85 f547 	uadd8	r5, r5, r7
 8000226:	faa3 f587 	sel	r5, r3, r7
 800022a:	fa86 f647 	uadd8	r6, r6, r7
 800022e:	faa5 f687 	sel	r6, r5, r7
 8000232:	b98e      	cbnz	r6, 8000258 <memchr+0x78>
 8000234:	d1ee      	bne.n	8000214 <memchr+0x34>
 8000236:	bcf0      	pop	{r4, r5, r6, r7}
 8000238:	f001 01ff 	and.w	r1, r1, #255	; 0xff
 800023c:	f002 0207 	and.w	r2, r2, #7
 8000240:	b132      	cbz	r2, 8000250 <memchr+0x70>
 8000242:	f810 3b01 	ldrb.w	r3, [r0], #1
 8000246:	3a01      	subs	r2, #1
 8000248:	ea83 0301 	eor.w	r3, r3, r1
 800024c:	b113      	cbz	r3, 8000254 <memchr+0x74>
 800024e:	d1f8      	bne.n	8000242 <memchr+0x62>
 8000250:	2000      	movs	r0, #0
 8000252:	4770      	bx	lr
 8000254:	3801      	subs	r0, #1
 8000256:	4770      	bx	lr
 8000258:	2d00      	cmp	r5, #0
 800025a:	bf06      	itte	eq
 800025c:	4635      	moveq	r5, r6
 800025e:	3803      	subeq	r0, #3
 8000260:	3807      	subne	r0, #7
 8000262:	f015 0f01 	tst.w	r5, #1
 8000266:	d107      	bne.n	8000278 <memchr+0x98>
 8000268:	3001      	adds	r0, #1
 800026a:	f415 7f80 	tst.w	r5, #256	; 0x100
 800026e:	bf02      	ittt	eq
 8000270:	3001      	addeq	r0, #1
 8000272:	f415 3fc0 	tsteq.w	r5, #98304	; 0x18000
 8000276:	3001      	addeq	r0, #1
 8000278:	bcf0      	pop	{r4, r5, r6, r7}
 800027a:	3801      	subs	r0, #1
 800027c:	4770      	bx	lr
 800027e:	bf00      	nop

08000280 <__aeabi_drsub>:
 8000280:	f081 4100 	eor.w	r1, r1, #2147483648	; 0x80000000
 8000284:	e002      	b.n	800028c <__adddf3>
 8000286:	bf00      	nop

08000288 <__aeabi_dsub>:
 8000288:	f083 4300 	eor.w	r3, r3, #2147483648	; 0x80000000

0800028c <__adddf3>:
 800028c:	b530      	push	{r4, r5, lr}
 800028e:	ea4f 0441 	mov.w	r4, r1, lsl #1
 8000292:	ea4f 0543 	mov.w	r5, r3, lsl #1
 8000296:	ea94 0f05 	teq	r4, r5
 800029a:	bf08      	it	eq
 800029c:	ea90 0f02 	teqeq	r0, r2
 80002a0:	bf1f      	itttt	ne
 80002a2:	ea54 0c00 	orrsne.w	ip, r4, r0
 80002a6:	ea55 0c02 	orrsne.w	ip, r5, r2
 80002aa:	ea7f 5c64 	mvnsne.w	ip, r4, asr #21
 80002ae:	ea7f 5c65 	mvnsne.w	ip, r5, asr #21
 80002b2:	f000 80e2 	beq.w	800047a <__adddf3+0x1ee>
 80002b6:	ea4f 5454 	mov.w	r4, r4, lsr #21
 80002ba:	ebd4 5555 	rsbs	r5, r4, r5, lsr #21
 80002be:	bfb8      	it	lt
 80002c0:	426d      	neglt	r5, r5
 80002c2:	dd0c      	ble.n	80002de <__adddf3+0x52>
 80002c4:	442c      	add	r4, r5
 80002c6:	ea80 0202 	eor.w	r2, r0, r2
 80002ca:	ea81 0303 	eor.w	r3, r1, r3
 80002ce:	ea82 0000 	eor.w	r0, r2, r0
 80002d2:	ea83 0101 	eor.w	r1, r3, r1
 80002d6:	ea80 0202 	eor.w	r2, r0, r2
 80002da:	ea81 0303 	eor.w	r3, r1, r3
 80002de:	2d36      	cmp	r5, #54	; 0x36
 80002e0:	bf88      	it	hi
 80002e2:	bd30      	pophi	{r4, r5, pc}
 80002e4:	f011 4f00 	tst.w	r1, #2147483648	; 0x80000000
 80002e8:	ea4f 3101 	mov.w	r1, r1, lsl #12
 80002ec:	f44f 1c80 	mov.w	ip, #1048576	; 0x100000
 80002f0:	ea4c 3111 	orr.w	r1, ip, r1, lsr #12
 80002f4:	d002      	beq.n	80002fc <__adddf3+0x70>
 80002f6:	4240      	negs	r0, r0
 80002f8:	eb61 0141 	sbc.w	r1, r1, r1, lsl #1
 80002fc:	f013 4f00 	tst.w	r3, #2147483648	; 0x80000000
 8000300:	ea4f 3303 	mov.w	r3, r3, lsl #12
 8000304:	ea4c 3313 	orr.w	r3, ip, r3, lsr #12
 8000308:	d002      	beq.n	8000310 <__adddf3+0x84>
 800030a:	4252      	negs	r2, r2
 800030c:	eb63 0343 	sbc.w	r3, r3, r3, lsl #1
 8000310:	ea94 0f05 	teq	r4, r5
 8000314:	f000 80a7 	beq.w	8000466 <__adddf3+0x1da>
 8000318:	f1a4 0401 	sub.w	r4, r4, #1
 800031c:	f1d5 0e20 	rsbs	lr, r5, #32
 8000320:	db0d      	blt.n	800033e <__adddf3+0xb2>
 8000322:	fa02 fc0e 	lsl.w	ip, r2, lr
 8000326:	fa22 f205 	lsr.w	r2, r2, r5
 800032a:	1880      	adds	r0, r0, r2
 800032c:	f141 0100 	adc.w	r1, r1, #0
 8000330:	fa03 f20e 	lsl.w	r2, r3, lr
 8000334:	1880      	adds	r0, r0, r2
 8000336:	fa43 f305 	asr.w	r3, r3, r5
 800033a:	4159      	adcs	r1, r3
 800033c:	e00e      	b.n	800035c <__adddf3+0xd0>
 800033e:	f1a5 0520 	sub.w	r5, r5, #32
 8000342:	f10e 0e20 	add.w	lr, lr, #32
 8000346:	2a01      	cmp	r2, #1
 8000348:	fa03 fc0e 	lsl.w	ip, r3, lr
 800034c:	bf28      	it	cs
 800034e:	f04c 0c02 	orrcs.w	ip, ip, #2
 8000352:	fa43 f305 	asr.w	r3, r3, r5
 8000356:	18c0      	adds	r0, r0, r3
 8000358:	eb51 71e3 	adcs.w	r1, r1, r3, asr #31
 800035c:	f001 4500 	and.w	r5, r1, #2147483648	; 0x80000000
 8000360:	d507      	bpl.n	8000372 <__adddf3+0xe6>
 8000362:	f04f 0e00 	mov.w	lr, #0
 8000366:	f1dc 0c00 	rsbs	ip, ip, #0
 800036a:	eb7e 0000 	sbcs.w	r0, lr, r0
 800036e:	eb6e 0101 	sbc.w	r1, lr, r1
 8000372:	f5b1 1f80 	cmp.w	r1, #1048576	; 0x100000
 8000376:	d31b      	bcc.n	80003b0 <__adddf3+0x124>
 8000378:	f5b1 1f00 	cmp.w	r1, #2097152	; 0x200000
 800037c:	d30c      	bcc.n	8000398 <__adddf3+0x10c>
 800037e:	0849      	lsrs	r1, r1, #1
 8000380:	ea5f 0030 	movs.w	r0, r0, rrx
 8000384:	ea4f 0c3c 	mov.w	ip, ip, rrx
 8000388:	f104 0401 	add.w	r4, r4, #1
 800038c:	ea4f 5244 	mov.w	r2, r4, lsl #21
 8000390:	f512 0f80 	cmn.w	r2, #4194304	; 0x400000
 8000394:	f080 809a 	bcs.w	80004cc <__adddf3+0x240>
 8000398:	f1bc 4f00 	cmp.w	ip, #2147483648	; 0x80000000
 800039c:	bf08      	it	eq
 800039e:	ea5f 0c50 	movseq.w	ip, r0, lsr #1
 80003a2:	f150 0000 	adcs.w	r0, r0, #0
 80003a6:	eb41 5104 	adc.w	r1, r1, r4, lsl #20
 80003aa:	ea41 0105 	orr.w	r1, r1, r5
 80003ae:	bd30      	pop	{r4, r5, pc}
 80003b0:	ea5f 0c4c 	movs.w	ip, ip, lsl #1
 80003b4:	4140      	adcs	r0, r0
 80003b6:	eb41 0101 	adc.w	r1, r1, r1
 80003ba:	3c01      	subs	r4, #1
 80003bc:	bf28      	it	cs
 80003be:	f5b1 1f80 	cmpcs.w	r1, #1048576	; 0x100000
 80003c2:	d2e9      	bcs.n	8000398 <__adddf3+0x10c>
 80003c4:	f091 0f00 	teq	r1, #0
 80003c8:	bf04      	itt	eq
 80003ca:	4601      	moveq	r1, r0
 80003cc:	2000      	moveq	r0, #0
 80003ce:	fab1 f381 	clz	r3, r1
 80003d2:	bf08      	it	eq
 80003d4:	3320      	addeq	r3, #32
 80003d6:	f1a3 030b 	sub.w	r3, r3, #11
 80003da:	f1b3 0220 	subs.w	r2, r3, #32
 80003de:	da0c      	bge.n	80003fa <__adddf3+0x16e>
 80003e0:	320c      	adds	r2, #12
 80003e2:	dd08      	ble.n	80003f6 <__adddf3+0x16a>
 80003e4:	f102 0c14 	add.w	ip, r2, #20
 80003e8:	f1c2 020c 	rsb	r2, r2, #12
 80003ec:	fa01 f00c 	lsl.w	r0, r1, ip
 80003f0:	fa21 f102 	lsr.w	r1, r1, r2
 80003f4:	e00c      	b.n	8000410 <__adddf3+0x184>
 80003f6:	f102 0214 	add.w	r2, r2, #20
 80003fa:	bfd8      	it	le
 80003fc:	f1c2 0c20 	rsble	ip, r2, #32
 8000400:	fa01 f102 	lsl.w	r1, r1, r2
 8000404:	fa20 fc0c 	lsr.w	ip, r0, ip
 8000408:	bfdc      	itt	le
 800040a:	ea41 010c 	orrle.w	r1, r1, ip
 800040e:	4090      	lslle	r0, r2
 8000410:	1ae4      	subs	r4, r4, r3
 8000412:	bfa2      	ittt	ge
 8000414:	eb01 5104 	addge.w	r1, r1, r4, lsl #20
 8000418:	4329      	orrge	r1, r5
 800041a:	bd30      	popge	{r4, r5, pc}
 800041c:	ea6f 0404 	mvn.w	r4, r4
 8000420:	3c1f      	subs	r4, #31
 8000422:	da1c      	bge.n	800045e <__adddf3+0x1d2>
 8000424:	340c      	adds	r4, #12
 8000426:	dc0e      	bgt.n	8000446 <__adddf3+0x1ba>
 8000428:	f104 0414 	add.w	r4, r4, #20
 800042c:	f1c4 0220 	rsb	r2, r4, #32
 8000430:	fa20 f004 	lsr.w	r0, r0, r4
 8000434:	fa01 f302 	lsl.w	r3, r1, r2
 8000438:	ea40 0003 	orr.w	r0, r0, r3
 800043c:	fa21 f304 	lsr.w	r3, r1, r4
 8000440:	ea45 0103 	orr.w	r1, r5, r3
 8000444:	bd30      	pop	{r4, r5, pc}
 8000446:	f1c4 040c 	rsb	r4, r4, #12
 800044a:	f1c4 0220 	rsb	r2, r4, #32
 800044e:	fa20 f002 	lsr.w	r0, r0, r2
 8000452:	fa01 f304 	lsl.w	r3, r1, r4
 8000456:	ea40 0003 	orr.w	r0, r0, r3
 800045a:	4629      	mov	r1, r5
 800045c:	bd30      	pop	{r4, r5, pc}
 800045e:	fa21 f004 	lsr.w	r0, r1, r4
 8000462:	4629      	mov	r1, r5
 8000464:	bd30      	pop	{r4, r5, pc}
 8000466:	f094 0f00 	teq	r4, #0
 800046a:	f483 1380 	eor.w	r3, r3, #1048576	; 0x100000
 800046e:	bf06      	itte	eq
 8000470:	f481 1180 	eoreq.w	r1, r1, #1048576	; 0x100000
 8000474:	3401      	addeq	r4, #1
 8000476:	3d01      	subne	r5, #1
 8000478:	e74e      	b.n	8000318 <__adddf3+0x8c>
 800047a:	ea7f 5c64 	mvns.w	ip, r4, asr #21
 800047e:	bf18      	it	ne
 8000480:	ea7f 5c65 	mvnsne.w	ip, r5, asr #21
 8000484:	d029      	beq.n	80004da <__adddf3+0x24e>
 8000486:	ea94 0f05 	teq	r4, r5
 800048a:	bf08      	it	eq
 800048c:	ea90 0f02 	teqeq	r0, r2
 8000490:	d005      	beq.n	800049e <__adddf3+0x212>
 8000492:	ea54 0c00 	orrs.w	ip, r4, r0
 8000496:	bf04      	itt	eq
 8000498:	4619      	moveq	r1, r3
 800049a:	4610      	moveq	r0, r2
 800049c:	bd30      	pop	{r4, r5, pc}
 800049e:	ea91 0f03 	teq	r1, r3
 80004a2:	bf1e      	ittt	ne
 80004a4:	2100      	movne	r1, #0
 80004a6:	2000      	movne	r0, #0
 80004a8:	bd30      	popne	{r4, r5, pc}
 80004aa:	ea5f 5c54 	movs.w	ip, r4, lsr #21
 80004ae:	d105      	bne.n	80004bc <__adddf3+0x230>
 80004b0:	0040      	lsls	r0, r0, #1
 80004b2:	4149      	adcs	r1, r1
 80004b4:	bf28      	it	cs
 80004b6:	f041 4100 	orrcs.w	r1, r1, #2147483648	; 0x80000000
 80004ba:	bd30      	pop	{r4, r5, pc}
 80004bc:	f514 0480 	adds.w	r4, r4, #4194304	; 0x400000
 80004c0:	bf3c      	itt	cc
 80004c2:	f501 1180 	addcc.w	r1, r1, #1048576	; 0x100000
 80004c6:	bd30      	popcc	{r4, r5, pc}
 80004c8:	f001 4500 	and.w	r5, r1, #2147483648	; 0x80000000
 80004cc:	f045 41fe 	orr.w	r1, r5, #2130706432	; 0x7f000000
 80004d0:	f441 0170 	orr.w	r1, r1, #15728640	; 0xf00000
 80004d4:	f04f 0000 	mov.w	r0, #0
 80004d8:	bd30      	pop	{r4, r5, pc}
 80004da:	ea7f 5c64 	mvns.w	ip, r4, asr #21
 80004de:	bf1a      	itte	ne
 80004e0:	4619      	movne	r1, r3
 80004e2:	4610      	movne	r0, r2
 80004e4:	ea7f 5c65 	mvnseq.w	ip, r5, asr #21
 80004e8:	bf1c      	itt	ne
 80004ea:	460b      	movne	r3, r1
 80004ec:	4602      	movne	r2, r0
 80004ee:	ea50 3401 	orrs.w	r4, r0, r1, lsl #12
 80004f2:	bf06      	itte	eq
 80004f4:	ea52 3503 	orrseq.w	r5, r2, r3, lsl #12
 80004f8:	ea91 0f03 	teqeq	r1, r3
 80004fc:	f441 2100 	orrne.w	r1, r1, #524288	; 0x80000
 8000500:	bd30      	pop	{r4, r5, pc}
 8000502:	bf00      	nop

08000504 <__aeabi_ui2d>:
 8000504:	f090 0f00 	teq	r0, #0
 8000508:	bf04      	itt	eq
 800050a:	2100      	moveq	r1, #0
 800050c:	4770      	bxeq	lr
 800050e:	b530      	push	{r4, r5, lr}
 8000510:	f44f 6480 	mov.w	r4, #1024	; 0x400
 8000514:	f104 0432 	add.w	r4, r4, #50	; 0x32
 8000518:	f04f 0500 	mov.w	r5, #0
 800051c:	f04f 0100 	mov.w	r1, #0
 8000520:	e750      	b.n	80003c4 <__adddf3+0x138>
 8000522:	bf00      	nop

08000524 <__aeabi_i2d>:
 8000524:	f090 0f00 	teq	r0, #0
 8000528:	bf04      	itt	eq
 800052a:	2100      	moveq	r1, #0
 800052c:	4770      	bxeq	lr
 800052e:	b530      	push	{r4, r5, lr}
 8000530:	f44f 6480 	mov.w	r4, #1024	; 0x400
 8000534:	f104 0432 	add.w	r4, r4, #50	; 0x32
 8000538:	f010 4500 	ands.w	r5, r0, #2147483648	; 0x80000000
 800053c:	bf48      	it	mi
 800053e:	4240      	negmi	r0, r0
 8000540:	f04f 0100 	mov.w	r1, #0
 8000544:	e73e      	b.n	80003c4 <__adddf3+0x138>
 8000546:	bf00      	nop

08000548 <__aeabi_f2d>:
 8000548:	0042      	lsls	r2, r0, #1
 800054a:	ea4f 01e2 	mov.w	r1, r2, asr #3
 800054e:	ea4f 0131 	mov.w	r1, r1, rrx
 8000552:	ea4f 7002 	mov.w	r0, r2, lsl #28
 8000556:	bf1f      	itttt	ne
 8000558:	f012 437f 	andsne.w	r3, r2, #4278190080	; 0xff000000
 800055c:	f093 4f7f 	teqne	r3, #4278190080	; 0xff000000
 8000560:	f081 5160 	eorne.w	r1, r1, #939524096	; 0x38000000
 8000564:	4770      	bxne	lr
 8000566:	f032 427f 	bics.w	r2, r2, #4278190080	; 0xff000000
 800056a:	bf08      	it	eq
 800056c:	4770      	bxeq	lr
 800056e:	f093 4f7f 	teq	r3, #4278190080	; 0xff000000
 8000572:	bf04      	itt	eq
 8000574:	f441 2100 	orreq.w	r1, r1, #524288	; 0x80000
 8000578:	4770      	bxeq	lr
 800057a:	b530      	push	{r4, r5, lr}
 800057c:	f44f 7460 	mov.w	r4, #896	; 0x380
 8000580:	f001 4500 	and.w	r5, r1, #2147483648	; 0x80000000
 8000584:	f021 4100 	bic.w	r1, r1, #2147483648	; 0x80000000
 8000588:	e71c      	b.n	80003c4 <__adddf3+0x138>
 800058a:	bf00      	nop

0800058c <__aeabi_ul2d>:
 800058c:	ea50 0201 	orrs.w	r2, r0, r1
 8000590:	bf08      	it	eq
 8000592:	4770      	bxeq	lr
 8000594:	b530      	push	{r4, r5, lr}
 8000596:	f04f 0500 	mov.w	r5, #0
 800059a:	e00a      	b.n	80005b2 <__aeabi_l2d+0x16>

0800059c <__aeabi_l2d>:
 800059c:	ea50 0201 	orrs.w	r2, r0, r1
 80005a0:	bf08      	it	eq
 80005a2:	4770      	bxeq	lr
 80005a4:	b530      	push	{r4, r5, lr}
 80005a6:	f011 4500 	ands.w	r5, r1, #2147483648	; 0x80000000
 80005aa:	d502      	bpl.n	80005b2 <__aeabi_l2d+0x16>
 80005ac:	4240      	negs	r0, r0
 80005ae:	eb61 0141 	sbc.w	r1, r1, r1, lsl #1
 80005b2:	f44f 6480 	mov.w	r4, #1024	; 0x400
 80005b6:	f104 0432 	add.w	r4, r4, #50	; 0x32
 80005ba:	ea5f 5c91 	movs.w	ip, r1, lsr #22
 80005be:	f43f aed8 	beq.w	8000372 <__adddf3+0xe6>
 80005c2:	f04f 0203 	mov.w	r2, #3
 80005c6:	ea5f 0cdc 	movs.w	ip, ip, lsr #3
 80005ca:	bf18      	it	ne
 80005cc:	3203      	addne	r2, #3
 80005ce:	ea5f 0cdc 	movs.w	ip, ip, lsr #3
 80005d2:	bf18      	it	ne
 80005d4:	3203      	addne	r2, #3
 80005d6:	eb02 02dc 	add.w	r2, r2, ip, lsr #3
 80005da:	f1c2 0320 	rsb	r3, r2, #32
 80005de:	fa00 fc03 	lsl.w	ip, r0, r3
 80005e2:	fa20 f002 	lsr.w	r0, r0, r2
 80005e6:	fa01 fe03 	lsl.w	lr, r1, r3
 80005ea:	ea40 000e 	orr.w	r0, r0, lr
 80005ee:	fa21 f102 	lsr.w	r1, r1, r2
 80005f2:	4414      	add	r4, r2
 80005f4:	e6bd      	b.n	8000372 <__adddf3+0xe6>
 80005f6:	bf00      	nop

080005f8 <__aeabi_dmul>:
 80005f8:	b570      	push	{r4, r5, r6, lr}
 80005fa:	f04f 0cff 	mov.w	ip, #255	; 0xff
 80005fe:	f44c 6ce0 	orr.w	ip, ip, #1792	; 0x700
 8000602:	ea1c 5411 	ands.w	r4, ip, r1, lsr #20
 8000606:	bf1d      	ittte	ne
 8000608:	ea1c 5513 	andsne.w	r5, ip, r3, lsr #20
 800060c:	ea94 0f0c 	teqne	r4, ip
 8000610:	ea95 0f0c 	teqne	r5, ip
 8000614:	f000 f8de 	bleq	80007d4 <__aeabi_dmul+0x1dc>
 8000618:	442c      	add	r4, r5
 800061a:	ea81 0603 	eor.w	r6, r1, r3
 800061e:	ea21 514c 	bic.w	r1, r1, ip, lsl #21
 8000622:	ea23 534c 	bic.w	r3, r3, ip, lsl #21
 8000626:	ea50 3501 	orrs.w	r5, r0, r1, lsl #12
 800062a:	bf18      	it	ne
 800062c:	ea52 3503 	orrsne.w	r5, r2, r3, lsl #12
 8000630:	f441 1180 	orr.w	r1, r1, #1048576	; 0x100000
 8000634:	f443 1380 	orr.w	r3, r3, #1048576	; 0x100000
 8000638:	d038      	beq.n	80006ac <__aeabi_dmul+0xb4>
 800063a:	fba0 ce02 	umull	ip, lr, r0, r2
 800063e:	f04f 0500 	mov.w	r5, #0
 8000642:	fbe1 e502 	umlal	lr, r5, r1, r2
 8000646:	f006 4200 	and.w	r2, r6, #2147483648	; 0x80000000
 800064a:	fbe0 e503 	umlal	lr, r5, r0, r3
 800064e:	f04f 0600 	mov.w	r6, #0
 8000652:	fbe1 5603 	umlal	r5, r6, r1, r3
 8000656:	f09c 0f00 	teq	ip, #0
 800065a:	bf18      	it	ne
 800065c:	f04e 0e01 	orrne.w	lr, lr, #1
 8000660:	f1a4 04ff 	sub.w	r4, r4, #255	; 0xff
 8000664:	f5b6 7f00 	cmp.w	r6, #512	; 0x200
 8000668:	f564 7440 	sbc.w	r4, r4, #768	; 0x300
 800066c:	d204      	bcs.n	8000678 <__aeabi_dmul+0x80>
 800066e:	ea5f 0e4e 	movs.w	lr, lr, lsl #1
 8000672:	416d      	adcs	r5, r5
 8000674:	eb46 0606 	adc.w	r6, r6, r6
 8000678:	ea42 21c6 	orr.w	r1, r2, r6, lsl #11
 800067c:	ea41 5155 	orr.w	r1, r1, r5, lsr #21
 8000680:	ea4f 20c5 	mov.w	r0, r5, lsl #11
 8000684:	ea40 505e 	orr.w	r0, r0, lr, lsr #21
 8000688:	ea4f 2ece 	mov.w	lr, lr, lsl #11
 800068c:	f1b4 0cfd 	subs.w	ip, r4, #253	; 0xfd
 8000690:	bf88      	it	hi
 8000692:	f5bc 6fe0 	cmphi.w	ip, #1792	; 0x700
 8000696:	d81e      	bhi.n	80006d6 <__aeabi_dmul+0xde>
 8000698:	f1be 4f00 	cmp.w	lr, #2147483648	; 0x80000000
 800069c:	bf08      	it	eq
 800069e:	ea5f 0e50 	movseq.w	lr, r0, lsr #1
 80006a2:	f150 0000 	adcs.w	r0, r0, #0
 80006a6:	eb41 5104 	adc.w	r1, r1, r4, lsl #20
 80006aa:	bd70      	pop	{r4, r5, r6, pc}
 80006ac:	f006 4600 	and.w	r6, r6, #2147483648	; 0x80000000
 80006b0:	ea46 0101 	orr.w	r1, r6, r1
 80006b4:	ea40 0002 	orr.w	r0, r0, r2
 80006b8:	ea81 0103 	eor.w	r1, r1, r3
 80006bc:	ebb4 045c 	subs.w	r4, r4, ip, lsr #1
 80006c0:	bfc2      	ittt	gt
 80006c2:	ebd4 050c 	rsbsgt	r5, r4, ip
 80006c6:	ea41 5104 	orrgt.w	r1, r1, r4, lsl #20
 80006ca:	bd70      	popgt	{r4, r5, r6, pc}
 80006cc:	f441 1180 	orr.w	r1, r1, #1048576	; 0x100000
 80006d0:	f04f 0e00 	mov.w	lr, #0
 80006d4:	3c01      	subs	r4, #1
 80006d6:	f300 80ab 	bgt.w	8000830 <__aeabi_dmul+0x238>
 80006da:	f114 0f36 	cmn.w	r4, #54	; 0x36
 80006de:	bfde      	ittt	le
 80006e0:	2000      	movle	r0, #0
 80006e2:	f001 4100 	andle.w	r1, r1, #2147483648	; 0x80000000
 80006e6:	bd70      	pople	{r4, r5, r6, pc}
 80006e8:	f1c4 0400 	rsb	r4, r4, #0
 80006ec:	3c20      	subs	r4, #32
 80006ee:	da35      	bge.n	800075c <__aeabi_dmul+0x164>
 80006f0:	340c      	adds	r4, #12
 80006f2:	dc1b      	bgt.n	800072c <__aeabi_dmul+0x134>
 80006f4:	f104 0414 	add.w	r4, r4, #20
 80006f8:	f1c4 0520 	rsb	r5, r4, #32
 80006fc:	fa00 f305 	lsl.w	r3, r0, r5
 8000700:	fa20 f004 	lsr.w	r0, r0, r4
 8000704:	fa01 f205 	lsl.w	r2, r1, r5
 8000708:	ea40 0002 	orr.w	r0, r0, r2
 800070c:	f001 4200 	and.w	r2, r1, #2147483648	; 0x80000000
 8000710:	f021 4100 	bic.w	r1, r1, #2147483648	; 0x80000000
 8000714:	eb10 70d3 	adds.w	r0, r0, r3, lsr #31
 8000718:	fa21 f604 	lsr.w	r6, r1, r4
 800071c:	eb42 0106 	adc.w	r1, r2, r6
 8000720:	ea5e 0e43 	orrs.w	lr, lr, r3, lsl #1
 8000724:	bf08      	it	eq
 8000726:	ea20 70d3 	biceq.w	r0, r0, r3, lsr #31
 800072a:	bd70      	pop	{r4, r5, r6, pc}
 800072c:	f1c4 040c 	rsb	r4, r4, #12
 8000730:	f1c4 0520 	rsb	r5, r4, #32
 8000734:	fa00 f304 	lsl.w	r3, r0, r4
 8000738:	fa20 f005 	lsr.w	r0, r0, r5
 800073c:	fa01 f204 	lsl.w	r2, r1, r4
 8000740:	ea40 0002 	orr.w	r0, r0, r2
 8000744:	f001 4100 	and.w	r1, r1, #2147483648	; 0x80000000
 8000748:	eb10 70d3 	adds.w	r0, r0, r3, lsr #31
 800074c:	f141 0100 	adc.w	r1, r1, #0
 8000750:	ea5e 0e43 	orrs.w	lr, lr, r3, lsl #1
 8000754:	bf08      	it	eq
 8000756:	ea20 70d3 	biceq.w	r0, r0, r3, lsr #31
 800075a:	bd70      	pop	{r4, r5, r6, pc}
 800075c:	f1c4 0520 	rsb	r5, r4, #32
 8000760:	fa00 f205 	lsl.w	r2, r0, r5
 8000764:	ea4e 0e02 	orr.w	lr, lr, r2
 8000768:	fa20 f304 	lsr.w	r3, r0, r4
 800076c:	fa01 f205 	lsl.w	r2, r1, r5
 8000770:	ea43 0302 	orr.w	r3, r3, r2
 8000774:	fa21 f004 	lsr.w	r0, r1, r4
 8000778:	f001 4100 	and.w	r1, r1, #2147483648	; 0x80000000
 800077c:	fa21 f204 	lsr.w	r2, r1, r4
 8000780:	ea20 0002 	bic.w	r0, r0, r2
 8000784:	eb00 70d3 	add.w	r0, r0, r3, lsr #31
 8000788:	ea5e 0e43 	orrs.w	lr, lr, r3, lsl #1
 800078c:	bf08      	it	eq
 800078e:	ea20 70d3 	biceq.w	r0, r0, r3, lsr #31
 8000792:	bd70      	pop	{r4, r5, r6, pc}
 8000794:	f094 0f00 	teq	r4, #0
 8000798:	d10f      	bne.n	80007ba <__aeabi_dmul+0x1c2>
 800079a:	f001 4600 	and.w	r6, r1, #2147483648	; 0x80000000
 800079e:	0040      	lsls	r0, r0, #1
 80007a0:	eb41 0101 	adc.w	r1, r1, r1
 80007a4:	f411 1f80 	tst.w	r1, #1048576	; 0x100000
 80007a8:	bf08      	it	eq
 80007aa:	3c01      	subeq	r4, #1
 80007ac:	d0f7      	beq.n	800079e <__aeabi_dmul+0x1a6>
 80007ae:	ea41 0106 	orr.w	r1, r1, r6
 80007b2:	f095 0f00 	teq	r5, #0
 80007b6:	bf18      	it	ne
 80007b8:	4770      	bxne	lr
 80007ba:	f003 4600 	and.w	r6, r3, #2147483648	; 0x80000000
 80007be:	0052      	lsls	r2, r2, #1
 80007c0:	eb43 0303 	adc.w	r3, r3, r3
 80007c4:	f413 1f80 	tst.w	r3, #1048576	; 0x100000
 80007c8:	bf08      	it	eq
 80007ca:	3d01      	subeq	r5, #1
 80007cc:	d0f7      	beq.n	80007be <__aeabi_dmul+0x1c6>
 80007ce:	ea43 0306 	orr.w	r3, r3, r6
 80007d2:	4770      	bx	lr
 80007d4:	ea94 0f0c 	teq	r4, ip
 80007d8:	ea0c 5513 	and.w	r5, ip, r3, lsr #20
 80007dc:	bf18      	it	ne
 80007de:	ea95 0f0c 	teqne	r5, ip
 80007e2:	d00c      	beq.n	80007fe <__aeabi_dmul+0x206>
 80007e4:	ea50 0641 	orrs.w	r6, r0, r1, lsl #1
 80007e8:	bf18      	it	ne
 80007ea:	ea52 0643 	orrsne.w	r6, r2, r3, lsl #1
 80007ee:	d1d1      	bne.n	8000794 <__aeabi_dmul+0x19c>
 80007f0:	ea81 0103 	eor.w	r1, r1, r3
 80007f4:	f001 4100 	and.w	r1, r1, #2147483648	; 0x80000000
 80007f8:	f04f 0000 	mov.w	r0, #0
 80007fc:	bd70      	pop	{r4, r5, r6, pc}
 80007fe:	ea50 0641 	orrs.w	r6, r0, r1, lsl #1
 8000802:	bf06      	itte	eq
 8000804:	4610      	moveq	r0, r2
 8000806:	4619      	moveq	r1, r3
 8000808:	ea52 0643 	orrsne.w	r6, r2, r3, lsl #1
 800080c:	d019      	beq.n	8000842 <__aeabi_dmul+0x24a>
 800080e:	ea94 0f0c 	teq	r4, ip
 8000812:	d102      	bne.n	800081a <__aeabi_dmul+0x222>
 8000814:	ea50 3601 	orrs.w	r6, r0, r1, lsl #12
 8000818:	d113      	bne.n	8000842 <__aeabi_dmul+0x24a>
 800081a:	ea95 0f0c 	teq	r5, ip
 800081e:	d105      	bne.n	800082c <__aeabi_dmul+0x234>
 8000820:	ea52 3603 	orrs.w	r6, r2, r3, lsl #12
 8000824:	bf1c      	itt	ne
 8000826:	4610      	movne	r0, r2
 8000828:	4619      	movne	r1, r3
 800082a:	d10a      	bne.n	8000842 <__aeabi_dmul+0x24a>
 800082c:	ea81 0103 	eor.w	r1, r1, r3
 8000830:	f001 4100 	and.w	r1, r1, #2147483648	; 0x80000000
 8000834:	f041 41fe 	orr.w	r1, r1, #2130706432	; 0x7f000000
 8000838:	f441 0170 	orr.w	r1, r1, #15728640	; 0xf00000
 800083c:	f04f 0000 	mov.w	r0, #0
 8000840:	bd70      	pop	{r4, r5, r6, pc}
 8000842:	f041 41fe 	orr.w	r1, r1, #2130706432	; 0x7f000000
 8000846:	f441 0178 	orr.w	r1, r1, #16252928	; 0xf80000
 800084a:	bd70      	pop	{r4, r5, r6, pc}

0800084c <__aeabi_ddiv>:
 800084c:	b570      	push	{r4, r5, r6, lr}
 800084e:	f04f 0cff 	mov.w	ip, #255	; 0xff
 8000852:	f44c 6ce0 	orr.w	ip, ip, #1792	; 0x700
 8000856:	ea1c 5411 	ands.w	r4, ip, r1, lsr #20
 800085a:	bf1d      	ittte	ne
 800085c:	ea1c 5513 	andsne.w	r5, ip, r3, lsr #20
 8000860:	ea94 0f0c 	teqne	r4, ip
 8000864:	ea95 0f0c 	teqne	r5, ip
 8000868:	f000 f8a7 	bleq	80009ba <__aeabi_ddiv+0x16e>
 800086c:	eba4 0405 	sub.w	r4, r4, r5
 8000870:	ea81 0e03 	eor.w	lr, r1, r3
 8000874:	ea52 3503 	orrs.w	r5, r2, r3, lsl #12
 8000878:	ea4f 3101 	mov.w	r1, r1, lsl #12
 800087c:	f000 8088 	beq.w	8000990 <__aeabi_ddiv+0x144>
 8000880:	ea4f 3303 	mov.w	r3, r3, lsl #12
 8000884:	f04f 5580 	mov.w	r5, #268435456	; 0x10000000
 8000888:	ea45 1313 	orr.w	r3, r5, r3, lsr #4
 800088c:	ea43 6312 	orr.w	r3, r3, r2, lsr #24
 8000890:	ea4f 2202 	mov.w	r2, r2, lsl #8
 8000894:	ea45 1511 	orr.w	r5, r5, r1, lsr #4
 8000898:	ea45 6510 	orr.w	r5, r5, r0, lsr #24
 800089c:	ea4f 2600 	mov.w	r6, r0, lsl #8
 80008a0:	f00e 4100 	and.w	r1, lr, #2147483648	; 0x80000000
 80008a4:	429d      	cmp	r5, r3
 80008a6:	bf08      	it	eq
 80008a8:	4296      	cmpeq	r6, r2
 80008aa:	f144 04fd 	adc.w	r4, r4, #253	; 0xfd
 80008ae:	f504 7440 	add.w	r4, r4, #768	; 0x300
 80008b2:	d202      	bcs.n	80008ba <__aeabi_ddiv+0x6e>
 80008b4:	085b      	lsrs	r3, r3, #1
 80008b6:	ea4f 0232 	mov.w	r2, r2, rrx
 80008ba:	1ab6      	subs	r6, r6, r2
 80008bc:	eb65 0503 	sbc.w	r5, r5, r3
 80008c0:	085b      	lsrs	r3, r3, #1
 80008c2:	ea4f 0232 	mov.w	r2, r2, rrx
 80008c6:	f44f 1080 	mov.w	r0, #1048576	; 0x100000
 80008ca:	f44f 2c00 	mov.w	ip, #524288	; 0x80000
 80008ce:	ebb6 0e02 	subs.w	lr, r6, r2
 80008d2:	eb75 0e03 	sbcs.w	lr, r5, r3
 80008d6:	bf22      	ittt	cs
 80008d8:	1ab6      	subcs	r6, r6, r2
 80008da:	4675      	movcs	r5, lr
 80008dc:	ea40 000c 	orrcs.w	r0, r0, ip
 80008e0:	085b      	lsrs	r3, r3, #1
 80008e2:	ea4f 0232 	mov.w	r2, r2, rrx
 80008e6:	ebb6 0e02 	subs.w	lr, r6, r2
 80008ea:	eb75 0e03 	sbcs.w	lr, r5, r3
 80008ee:	bf22      	ittt	cs
 80008f0:	1ab6      	subcs	r6, r6, r2
 80008f2:	4675      	movcs	r5, lr
 80008f4:	ea40 005c 	orrcs.w	r0, r0, ip, lsr #1
 80008f8:	085b      	lsrs	r3, r3, #1
 80008fa:	ea4f 0232 	mov.w	r2, r2, rrx
 80008fe:	ebb6 0e02 	subs.w	lr, r6, r2
 8000902:	eb75 0e03 	sbcs.w	lr, r5, r3
 8000906:	bf22      	ittt	cs
 8000908:	1ab6      	subcs	r6, r6, r2
 800090a:	4675      	movcs	r5, lr
 800090c:	ea40 009c 	orrcs.w	r0, r0, ip, lsr #2
 8000910:	085b      	lsrs	r3, r3, #1
 8000912:	ea4f 0232 	mov.w	r2, r2, rrx
 8000916:	ebb6 0e02 	subs.w	lr, r6, r2
 800091a:	eb75 0e03 	sbcs.w	lr, r5, r3
 800091e:	bf22      	ittt	cs
 8000920:	1ab6      	subcs	r6, r6, r2
 8000922:	4675      	movcs	r5, lr
 8000924:	ea40 00dc 	orrcs.w	r0, r0, ip, lsr #3
 8000928:	ea55 0e06 	orrs.w	lr, r5, r6
 800092c:	d018      	beq.n	8000960 <__aeabi_ddiv+0x114>
 800092e:	ea4f 1505 	mov.w	r5, r5, lsl #4
 8000932:	ea45 7516 	orr.w	r5, r5, r6, lsr #28
 8000936:	ea4f 1606 	mov.w	r6, r6, lsl #4
 800093a:	ea4f 03c3 	mov.w	r3, r3, lsl #3
 800093e:	ea43 7352 	orr.w	r3, r3, r2, lsr #29
 8000942:	ea4f 02c2 	mov.w	r2, r2, lsl #3
 8000946:	ea5f 1c1c 	movs.w	ip, ip, lsr #4
 800094a:	d1c0      	bne.n	80008ce <__aeabi_ddiv+0x82>
 800094c:	f411 1f80 	tst.w	r1, #1048576	; 0x100000
 8000950:	d10b      	bne.n	800096a <__aeabi_ddiv+0x11e>
 8000952:	ea41 0100 	orr.w	r1, r1, r0
 8000956:	f04f 0000 	mov.w	r0, #0
 800095a:	f04f 4c00 	mov.w	ip, #2147483648	; 0x80000000
 800095e:	e7b6      	b.n	80008ce <__aeabi_ddiv+0x82>
 8000960:	f411 1f80 	tst.w	r1, #1048576	; 0x100000
 8000964:	bf04      	itt	eq
 8000966:	4301      	orreq	r1, r0
 8000968:	2000      	moveq	r0, #0
 800096a:	f1b4 0cfd 	subs.w	ip, r4, #253	; 0xfd
 800096e:	bf88      	it	hi
 8000970:	f5bc 6fe0 	cmphi.w	ip, #1792	; 0x700
 8000974:	f63f aeaf 	bhi.w	80006d6 <__aeabi_dmul+0xde>
 8000978:	ebb5 0c03 	subs.w	ip, r5, r3
 800097c:	bf04      	itt	eq
 800097e:	ebb6 0c02 	subseq.w	ip, r6, r2
 8000982:	ea5f 0c50 	movseq.w	ip, r0, lsr #1
 8000986:	f150 0000 	adcs.w	r0, r0, #0
 800098a:	eb41 5104 	adc.w	r1, r1, r4, lsl #20
 800098e:	bd70      	pop	{r4, r5, r6, pc}
 8000990:	f00e 4e00 	and.w	lr, lr, #2147483648	; 0x80000000
 8000994:	ea4e 3111 	orr.w	r1, lr, r1, lsr #12
 8000998:	eb14 045c 	adds.w	r4, r4, ip, lsr #1
 800099c:	bfc2      	ittt	gt
 800099e:	ebd4 050c 	rsbsgt	r5, r4, ip
 80009a2:	ea41 5104 	orrgt.w	r1, r1, r4, lsl #20
 80009a6:	bd70      	popgt	{r4, r5, r6, pc}
 80009a8:	f441 1180 	orr.w	r1, r1, #1048576	; 0x100000
 80009ac:	f04f 0e00 	mov.w	lr, #0
 80009b0:	3c01      	subs	r4, #1
 80009b2:	e690      	b.n	80006d6 <__aeabi_dmul+0xde>
 80009b4:	ea45 0e06 	orr.w	lr, r5, r6
 80009b8:	e68d      	b.n	80006d6 <__aeabi_dmul+0xde>
 80009ba:	ea0c 5513 	and.w	r5, ip, r3, lsr #20
 80009be:	ea94 0f0c 	teq	r4, ip
 80009c2:	bf08      	it	eq
 80009c4:	ea95 0f0c 	teqeq	r5, ip
 80009c8:	f43f af3b 	beq.w	8000842 <__aeabi_dmul+0x24a>
 80009cc:	ea94 0f0c 	teq	r4, ip
 80009d0:	d10a      	bne.n	80009e8 <__aeabi_ddiv+0x19c>
 80009d2:	ea50 3401 	orrs.w	r4, r0, r1, lsl #12
 80009d6:	f47f af34 	bne.w	8000842 <__aeabi_dmul+0x24a>
 80009da:	ea95 0f0c 	teq	r5, ip
 80009de:	f47f af25 	bne.w	800082c <__aeabi_dmul+0x234>
 80009e2:	4610      	mov	r0, r2
 80009e4:	4619      	mov	r1, r3
 80009e6:	e72c      	b.n	8000842 <__aeabi_dmul+0x24a>
 80009e8:	ea95 0f0c 	teq	r5, ip
 80009ec:	d106      	bne.n	80009fc <__aeabi_ddiv+0x1b0>
 80009ee:	ea52 3503 	orrs.w	r5, r2, r3, lsl #12
 80009f2:	f43f aefd 	beq.w	80007f0 <__aeabi_dmul+0x1f8>
 80009f6:	4610      	mov	r0, r2
 80009f8:	4619      	mov	r1, r3
 80009fa:	e722      	b.n	8000842 <__aeabi_dmul+0x24a>
 80009fc:	ea50 0641 	orrs.w	r6, r0, r1, lsl #1
 8000a00:	bf18      	it	ne
 8000a02:	ea52 0643 	orrsne.w	r6, r2, r3, lsl #1
 8000a06:	f47f aec5 	bne.w	8000794 <__aeabi_dmul+0x19c>
 8000a0a:	ea50 0441 	orrs.w	r4, r0, r1, lsl #1
 8000a0e:	f47f af0d 	bne.w	800082c <__aeabi_dmul+0x234>
 8000a12:	ea52 0543 	orrs.w	r5, r2, r3, lsl #1
 8000a16:	f47f aeeb 	bne.w	80007f0 <__aeabi_dmul+0x1f8>
 8000a1a:	e712      	b.n	8000842 <__aeabi_dmul+0x24a>

08000a1c <__aeabi_d2uiz>:
 8000a1c:	004a      	lsls	r2, r1, #1
 8000a1e:	d211      	bcs.n	8000a44 <__aeabi_d2uiz+0x28>
 8000a20:	f512 1200 	adds.w	r2, r2, #2097152	; 0x200000
 8000a24:	d211      	bcs.n	8000a4a <__aeabi_d2uiz+0x2e>
 8000a26:	d50d      	bpl.n	8000a44 <__aeabi_d2uiz+0x28>
 8000a28:	f46f 7378 	mvn.w	r3, #992	; 0x3e0
 8000a2c:	ebb3 5262 	subs.w	r2, r3, r2, asr #21
 8000a30:	d40e      	bmi.n	8000a50 <__aeabi_d2uiz+0x34>
 8000a32:	ea4f 23c1 	mov.w	r3, r1, lsl #11
 8000a36:	f043 4300 	orr.w	r3, r3, #2147483648	; 0x80000000
 8000a3a:	ea43 5350 	orr.w	r3, r3, r0, lsr #21
 8000a3e:	fa23 f002 	lsr.w	r0, r3, r2
 8000a42:	4770      	bx	lr
 8000a44:	f04f 0000 	mov.w	r0, #0
 8000a48:	4770      	bx	lr
 8000a4a:	ea50 3001 	orrs.w	r0, r0, r1, lsl #12
 8000a4e:	d102      	bne.n	8000a56 <__aeabi_d2uiz+0x3a>
 8000a50:	f04f 30ff 	mov.w	r0, #4294967295	; 0xffffffff
 8000a54:	4770      	bx	lr
 8000a56:	f04f 0000 	mov.w	r0, #0
 8000a5a:	4770      	bx	lr

08000a5c <__aeabi_uldivmod>:
 8000a5c:	b953      	cbnz	r3, 8000a74 <__aeabi_uldivmod+0x18>
 8000a5e:	b94a      	cbnz	r2, 8000a74 <__aeabi_uldivmod+0x18>
 8000a60:	2900      	cmp	r1, #0
 8000a62:	bf08      	it	eq
 8000a64:	2800      	cmpeq	r0, #0
 8000a66:	bf1c      	itt	ne
 8000a68:	f04f 31ff 	movne.w	r1, #4294967295	; 0xffffffff
 8000a6c:	f04f 30ff 	movne.w	r0, #4294967295	; 0xffffffff
 8000a70:	f000 b96e 	b.w	8000d50 <__aeabi_idiv0>
 8000a74:	f1ad 0c08 	sub.w	ip, sp, #8
 8000a78:	e96d ce04 	strd	ip, lr, [sp, #-16]!
 8000a7c:	f000 f806 	bl	8000a8c <__udivmoddi4>
 8000a80:	f8dd e004 	ldr.w	lr, [sp, #4]
 8000a84:	e9dd 2302 	ldrd	r2, r3, [sp, #8]
 8000a88:	b004      	add	sp, #16
 8000a8a:	4770      	bx	lr

08000a8c <__udivmoddi4>:
 8000a8c:	e92d 47f0 	stmdb	sp!, {r4, r5, r6, r7, r8, r9, sl, lr}
 8000a90:	9d08      	ldr	r5, [sp, #32]
 8000a92:	4604      	mov	r4, r0
 8000a94:	468c      	mov	ip, r1
 8000a96:	2b00      	cmp	r3, #0
 8000a98:	f040 8083 	bne.w	8000ba2 <__udivmoddi4+0x116>
 8000a9c:	428a      	cmp	r2, r1
 8000a9e:	4617      	mov	r7, r2
 8000aa0:	d947      	bls.n	8000b32 <__udivmoddi4+0xa6>
 8000aa2:	fab2 f282 	clz	r2, r2
 8000aa6:	b142      	cbz	r2, 8000aba <__udivmoddi4+0x2e>
 8000aa8:	f1c2 0020 	rsb	r0, r2, #32
 8000aac:	fa24 f000 	lsr.w	r0, r4, r0
 8000ab0:	4091      	lsls	r1, r2
 8000ab2:	4097      	lsls	r7, r2
 8000ab4:	ea40 0c01 	orr.w	ip, r0, r1
 8000ab8:	4094      	lsls	r4, r2
 8000aba:	ea4f 4817 	mov.w	r8, r7, lsr #16
 8000abe:	0c23      	lsrs	r3, r4, #16
 8000ac0:	fbbc f6f8 	udiv	r6, ip, r8
 8000ac4:	fa1f fe87 	uxth.w	lr, r7
 8000ac8:	fb08 c116 	mls	r1, r8, r6, ip
 8000acc:	ea43 4301 	orr.w	r3, r3, r1, lsl #16
 8000ad0:	fb06 f10e 	mul.w	r1, r6, lr
 8000ad4:	4299      	cmp	r1, r3
 8000ad6:	d909      	bls.n	8000aec <__udivmoddi4+0x60>
 8000ad8:	18fb      	adds	r3, r7, r3
 8000ada:	f106 30ff 	add.w	r0, r6, #4294967295	; 0xffffffff
 8000ade:	f080 8119 	bcs.w	8000d14 <__udivmoddi4+0x288>
 8000ae2:	4299      	cmp	r1, r3
 8000ae4:	f240 8116 	bls.w	8000d14 <__udivmoddi4+0x288>
 8000ae8:	3e02      	subs	r6, #2
 8000aea:	443b      	add	r3, r7
 8000aec:	1a5b      	subs	r3, r3, r1
 8000aee:	b2a4      	uxth	r4, r4
 8000af0:	fbb3 f0f8 	udiv	r0, r3, r8
 8000af4:	fb08 3310 	mls	r3, r8, r0, r3
 8000af8:	ea44 4403 	orr.w	r4, r4, r3, lsl #16
 8000afc:	fb00 fe0e 	mul.w	lr, r0, lr
 8000b00:	45a6      	cmp	lr, r4
 8000b02:	d909      	bls.n	8000b18 <__udivmoddi4+0x8c>
 8000b04:	193c      	adds	r4, r7, r4
 8000b06:	f100 33ff 	add.w	r3, r0, #4294967295	; 0xffffffff
 8000b0a:	f080 8105 	bcs.w	8000d18 <__udivmoddi4+0x28c>
 8000b0e:	45a6      	cmp	lr, r4
 8000b10:	f240 8102 	bls.w	8000d18 <__udivmoddi4+0x28c>
 8000b14:	3802      	subs	r0, #2
 8000b16:	443c      	add	r4, r7
 8000b18:	ea40 4006 	orr.w	r0, r0, r6, lsl #16
 8000b1c:	eba4 040e 	sub.w	r4, r4, lr
 8000b20:	2600      	movs	r6, #0
 8000b22:	b11d      	cbz	r5, 8000b2c <__udivmoddi4+0xa0>
 8000b24:	40d4      	lsrs	r4, r2
 8000b26:	2300      	movs	r3, #0
 8000b28:	e9c5 4300 	strd	r4, r3, [r5]
 8000b2c:	4631      	mov	r1, r6
 8000b2e:	e8bd 87f0 	ldmia.w	sp!, {r4, r5, r6, r7, r8, r9, sl, pc}
 8000b32:	b902      	cbnz	r2, 8000b36 <__udivmoddi4+0xaa>
 8000b34:	deff      	udf	#255	; 0xff
 8000b36:	fab2 f282 	clz	r2, r2
 8000b3a:	2a00      	cmp	r2, #0
 8000b3c:	d150      	bne.n	8000be0 <__udivmoddi4+0x154>
 8000b3e:	1bcb      	subs	r3, r1, r7
 8000b40:	ea4f 4e17 	mov.w	lr, r7, lsr #16
 8000b44:	fa1f f887 	uxth.w	r8, r7
 8000b48:	2601      	movs	r6, #1
 8000b4a:	fbb3 fcfe 	udiv	ip, r3, lr
 8000b4e:	0c21      	lsrs	r1, r4, #16
 8000b50:	fb0e 331c 	mls	r3, lr, ip, r3
 8000b54:	ea41 4103 	orr.w	r1, r1, r3, lsl #16
 8000b58:	fb08 f30c 	mul.w	r3, r8, ip
 8000b5c:	428b      	cmp	r3, r1
 8000b5e:	d907      	bls.n	8000b70 <__udivmoddi4+0xe4>
 8000b60:	1879      	adds	r1, r7, r1
 8000b62:	f10c 30ff 	add.w	r0, ip, #4294967295	; 0xffffffff
 8000b66:	d202      	bcs.n	8000b6e <__udivmoddi4+0xe2>
 8000b68:	428b      	cmp	r3, r1
 8000b6a:	f200 80e9 	bhi.w	8000d40 <__udivmoddi4+0x2b4>
 8000b6e:	4684      	mov	ip, r0
 8000b70:	1ac9      	subs	r1, r1, r3
 8000b72:	b2a3      	uxth	r3, r4
 8000b74:	fbb1 f0fe 	udiv	r0, r1, lr
 8000b78:	fb0e 1110 	mls	r1, lr, r0, r1
 8000b7c:	ea43 4401 	orr.w	r4, r3, r1, lsl #16
 8000b80:	fb08 f800 	mul.w	r8, r8, r0
 8000b84:	45a0      	cmp	r8, r4
 8000b86:	d907      	bls.n	8000b98 <__udivmoddi4+0x10c>
 8000b88:	193c      	adds	r4, r7, r4
 8000b8a:	f100 33ff 	add.w	r3, r0, #4294967295	; 0xffffffff
 8000b8e:	d202      	bcs.n	8000b96 <__udivmoddi4+0x10a>
 8000b90:	45a0      	cmp	r8, r4
 8000b92:	f200 80d9 	bhi.w	8000d48 <__udivmoddi4+0x2bc>
 8000b96:	4618      	mov	r0, r3
 8000b98:	eba4 0408 	sub.w	r4, r4, r8
 8000b9c:	ea40 400c 	orr.w	r0, r0, ip, lsl #16
 8000ba0:	e7bf      	b.n	8000b22 <__udivmoddi4+0x96>
 8000ba2:	428b      	cmp	r3, r1
 8000ba4:	d909      	bls.n	8000bba <__udivmoddi4+0x12e>
 8000ba6:	2d00      	cmp	r5, #0
 8000ba8:	f000 80b1 	beq.w	8000d0e <__udivmoddi4+0x282>
 8000bac:	2600      	movs	r6, #0
 8000bae:	e9c5 0100 	strd	r0, r1, [r5]
 8000bb2:	4630      	mov	r0, r6
 8000bb4:	4631      	mov	r1, r6
 8000bb6:	e8bd 87f0 	ldmia.w	sp!, {r4, r5, r6, r7, r8, r9, sl, pc}
 8000bba:	fab3 f683 	clz	r6, r3
 8000bbe:	2e00      	cmp	r6, #0
 8000bc0:	d14a      	bne.n	8000c58 <__udivmoddi4+0x1cc>
 8000bc2:	428b      	cmp	r3, r1
 8000bc4:	d302      	bcc.n	8000bcc <__udivmoddi4+0x140>
 8000bc6:	4282      	cmp	r2, r0
 8000bc8:	f200 80b8 	bhi.w	8000d3c <__udivmoddi4+0x2b0>
 8000bcc:	1a84      	subs	r4, r0, r2
 8000bce:	eb61 0103 	sbc.w	r1, r1, r3
 8000bd2:	2001      	movs	r0, #1
 8000bd4:	468c      	mov	ip, r1
 8000bd6:	2d00      	cmp	r5, #0
 8000bd8:	d0a8      	beq.n	8000b2c <__udivmoddi4+0xa0>
 8000bda:	e9c5 4c00 	strd	r4, ip, [r5]
 8000bde:	e7a5      	b.n	8000b2c <__udivmoddi4+0xa0>
 8000be0:	f1c2 0320 	rsb	r3, r2, #32
 8000be4:	fa20 f603 	lsr.w	r6, r0, r3
 8000be8:	4097      	lsls	r7, r2
 8000bea:	fa01 f002 	lsl.w	r0, r1, r2
 8000bee:	ea4f 4e17 	mov.w	lr, r7, lsr #16
 8000bf2:	40d9      	lsrs	r1, r3
 8000bf4:	4330      	orrs	r0, r6
 8000bf6:	0c03      	lsrs	r3, r0, #16
 8000bf8:	fbb1 f6fe 	udiv	r6, r1, lr
 8000bfc:	fa1f f887 	uxth.w	r8, r7
 8000c00:	fb0e 1116 	mls	r1, lr, r6, r1
 8000c04:	ea43 4301 	orr.w	r3, r3, r1, lsl #16
 8000c08:	fb06 f108 	mul.w	r1, r6, r8
 8000c0c:	4299      	cmp	r1, r3
 8000c0e:	fa04 f402 	lsl.w	r4, r4, r2
 8000c12:	d909      	bls.n	8000c28 <__udivmoddi4+0x19c>
 8000c14:	18fb      	adds	r3, r7, r3
 8000c16:	f106 3cff 	add.w	ip, r6, #4294967295	; 0xffffffff
 8000c1a:	f080 808d 	bcs.w	8000d38 <__udivmoddi4+0x2ac>
 8000c1e:	4299      	cmp	r1, r3
 8000c20:	f240 808a 	bls.w	8000d38 <__udivmoddi4+0x2ac>
 8000c24:	3e02      	subs	r6, #2
 8000c26:	443b      	add	r3, r7
 8000c28:	1a5b      	subs	r3, r3, r1
 8000c2a:	b281      	uxth	r1, r0
 8000c2c:	fbb3 f0fe 	udiv	r0, r3, lr
 8000c30:	fb0e 3310 	mls	r3, lr, r0, r3
 8000c34:	ea41 4103 	orr.w	r1, r1, r3, lsl #16
 8000c38:	fb00 f308 	mul.w	r3, r0, r8
 8000c3c:	428b      	cmp	r3, r1
 8000c3e:	d907      	bls.n	8000c50 <__udivmoddi4+0x1c4>
 8000c40:	1879      	adds	r1, r7, r1
 8000c42:	f100 3cff 	add.w	ip, r0, #4294967295	; 0xffffffff
 8000c46:	d273      	bcs.n	8000d30 <__udivmoddi4+0x2a4>
 8000c48:	428b      	cmp	r3, r1
 8000c4a:	d971      	bls.n	8000d30 <__udivmoddi4+0x2a4>
 8000c4c:	3802      	subs	r0, #2
 8000c4e:	4439      	add	r1, r7
 8000c50:	1acb      	subs	r3, r1, r3
 8000c52:	ea40 4606 	orr.w	r6, r0, r6, lsl #16
 8000c56:	e778      	b.n	8000b4a <__udivmoddi4+0xbe>
 8000c58:	f1c6 0c20 	rsb	ip, r6, #32
 8000c5c:	fa03 f406 	lsl.w	r4, r3, r6
 8000c60:	fa22 f30c 	lsr.w	r3, r2, ip
 8000c64:	431c      	orrs	r4, r3
 8000c66:	fa20 f70c 	lsr.w	r7, r0, ip
 8000c6a:	fa01 f306 	lsl.w	r3, r1, r6
 8000c6e:	ea4f 4e14 	mov.w	lr, r4, lsr #16
 8000c72:	fa21 f10c 	lsr.w	r1, r1, ip
 8000c76:	431f      	orrs	r7, r3
 8000c78:	0c3b      	lsrs	r3, r7, #16
 8000c7a:	fbb1 f9fe 	udiv	r9, r1, lr
 8000c7e:	fa1f f884 	uxth.w	r8, r4
 8000c82:	fb0e 1119 	mls	r1, lr, r9, r1
 8000c86:	ea43 4101 	orr.w	r1, r3, r1, lsl #16
 8000c8a:	fb09 fa08 	mul.w	sl, r9, r8
 8000c8e:	458a      	cmp	sl, r1
 8000c90:	fa02 f206 	lsl.w	r2, r2, r6
 8000c94:	fa00 f306 	lsl.w	r3, r0, r6
 8000c98:	d908      	bls.n	8000cac <__udivmoddi4+0x220>
 8000c9a:	1861      	adds	r1, r4, r1
 8000c9c:	f109 30ff 	add.w	r0, r9, #4294967295	; 0xffffffff
 8000ca0:	d248      	bcs.n	8000d34 <__udivmoddi4+0x2a8>
 8000ca2:	458a      	cmp	sl, r1
 8000ca4:	d946      	bls.n	8000d34 <__udivmoddi4+0x2a8>
 8000ca6:	f1a9 0902 	sub.w	r9, r9, #2
 8000caa:	4421      	add	r1, r4
 8000cac:	eba1 010a 	sub.w	r1, r1, sl
 8000cb0:	b2bf      	uxth	r7, r7
 8000cb2:	fbb1 f0fe 	udiv	r0, r1, lr
 8000cb6:	fb0e 1110 	mls	r1, lr, r0, r1
 8000cba:	ea47 4701 	orr.w	r7, r7, r1, lsl #16
 8000cbe:	fb00 f808 	mul.w	r8, r0, r8
 8000cc2:	45b8      	cmp	r8, r7
 8000cc4:	d907      	bls.n	8000cd6 <__udivmoddi4+0x24a>
 8000cc6:	19e7      	adds	r7, r4, r7
 8000cc8:	f100 31ff 	add.w	r1, r0, #4294967295	; 0xffffffff
 8000ccc:	d22e      	bcs.n	8000d2c <__udivmoddi4+0x2a0>
 8000cce:	45b8      	cmp	r8, r7
 8000cd0:	d92c      	bls.n	8000d2c <__udivmoddi4+0x2a0>
 8000cd2:	3802      	subs	r0, #2
 8000cd4:	4427      	add	r7, r4
 8000cd6:	ea40 4009 	orr.w	r0, r0, r9, lsl #16
 8000cda:	eba7 0708 	sub.w	r7, r7, r8
 8000cde:	fba0 8902 	umull	r8, r9, r0, r2
 8000ce2:	454f      	cmp	r7, r9
 8000ce4:	46c6      	mov	lr, r8
 8000ce6:	4649      	mov	r1, r9
 8000ce8:	d31a      	bcc.n	8000d20 <__udivmoddi4+0x294>
 8000cea:	d017      	beq.n	8000d1c <__udivmoddi4+0x290>
 8000cec:	b15d      	cbz	r5, 8000d06 <__udivmoddi4+0x27a>
 8000cee:	ebb3 020e 	subs.w	r2, r3, lr
 8000cf2:	eb67 0701 	sbc.w	r7, r7, r1
 8000cf6:	fa07 fc0c 	lsl.w	ip, r7, ip
 8000cfa:	40f2      	lsrs	r2, r6
 8000cfc:	ea4c 0202 	orr.w	r2, ip, r2
 8000d00:	40f7      	lsrs	r7, r6
 8000d02:	e9c5 2700 	strd	r2, r7, [r5]
 8000d06:	2600      	movs	r6, #0
 8000d08:	4631      	mov	r1, r6
 8000d0a:	e8bd 87f0 	ldmia.w	sp!, {r4, r5, r6, r7, r8, r9, sl, pc}
 8000d0e:	462e      	mov	r6, r5
 8000d10:	4628      	mov	r0, r5
 8000d12:	e70b      	b.n	8000b2c <__udivmoddi4+0xa0>
 8000d14:	4606      	mov	r6, r0
 8000d16:	e6e9      	b.n	8000aec <__udivmoddi4+0x60>
 8000d18:	4618      	mov	r0, r3
 8000d1a:	e6fd      	b.n	8000b18 <__udivmoddi4+0x8c>
 8000d1c:	4543      	cmp	r3, r8
 8000d1e:	d2e5      	bcs.n	8000cec <__udivmoddi4+0x260>
 8000d20:	ebb8 0e02 	subs.w	lr, r8, r2
 8000d24:	eb69 0104 	sbc.w	r1, r9, r4
 8000d28:	3801      	subs	r0, #1
 8000d2a:	e7df      	b.n	8000cec <__udivmoddi4+0x260>
 8000d2c:	4608      	mov	r0, r1
 8000d2e:	e7d2      	b.n	8000cd6 <__udivmoddi4+0x24a>
 8000d30:	4660      	mov	r0, ip
 8000d32:	e78d      	b.n	8000c50 <__udivmoddi4+0x1c4>
 8000d34:	4681      	mov	r9, r0
 8000d36:	e7b9      	b.n	8000cac <__udivmoddi4+0x220>
 8000d38:	4666      	mov	r6, ip
 8000d3a:	e775      	b.n	8000c28 <__udivmoddi4+0x19c>
 8000d3c:	4630      	mov	r0, r6
 8000d3e:	e74a      	b.n	8000bd6 <__udivmoddi4+0x14a>
 8000d40:	f1ac 0c02 	sub.w	ip, ip, #2
 8000d44:	4439      	add	r1, r7
 8000d46:	e713      	b.n	8000b70 <__udivmoddi4+0xe4>
 8000d48:	3802      	subs	r0, #2
 8000d4a:	443c      	add	r4, r7
 8000d4c:	e724      	b.n	8000b98 <__udivmoddi4+0x10c>
 8000d4e:	bf00      	nop

08000d50 <__aeabi_idiv0>:
 8000d50:	4770      	bx	lr
 8000d52:	bf00      	nop

08000d54 <ADC_RegularChannelConfig>:
  *     @arg ADC_SampleTime_181Cycles5: Sample time equal to 181.5 cycles	
  *     @arg ADC_SampleTime_601Cycles5: Sample time equal to 601.5 cycles	
  * @retval None
  */
void ADC_RegularChannelConfig(ADC_TypeDef* ADCx, uint8_t ADC_Channel, uint8_t Rank, uint8_t ADC_SampleTime)
{
 8000d54:	b480      	push	{r7}
 8000d56:	b085      	sub	sp, #20
 8000d58:	af00      	add	r7, sp, #0
 8000d5a:	6078      	str	r0, [r7, #4]
 8000d5c:	4608      	mov	r0, r1
 8000d5e:	4611      	mov	r1, r2
 8000d60:	461a      	mov	r2, r3
 8000d62:	4603      	mov	r3, r0
 8000d64:	70fb      	strb	r3, [r7, #3]
 8000d66:	460b      	mov	r3, r1
 8000d68:	70bb      	strb	r3, [r7, #2]
 8000d6a:	4613      	mov	r3, r2
 8000d6c:	707b      	strb	r3, [r7, #1]
  uint32_t tmpreg1 = 0, tmpreg2 = 0;
 8000d6e:	2300      	movs	r3, #0
 8000d70:	60fb      	str	r3, [r7, #12]
 8000d72:	2300      	movs	r3, #0
 8000d74:	60bb      	str	r3, [r7, #8]
  assert_param(IS_ADC_CHANNEL(ADC_Channel));
  assert_param(IS_ADC_SAMPLE_TIME(ADC_SampleTime));

  /* Regular sequence configuration */
  /* For Rank 1 to 4 */
  if (Rank < 5)
 8000d76:	78bb      	ldrb	r3, [r7, #2]
 8000d78:	2b04      	cmp	r3, #4
 8000d7a:	d821      	bhi.n	8000dc0 <ADC_RegularChannelConfig+0x6c>
  {
    /* Get the old register value */
    tmpreg1 = ADCx->SQR1;
 8000d7c:	687b      	ldr	r3, [r7, #4]
 8000d7e:	6b1b      	ldr	r3, [r3, #48]	; 0x30
 8000d80:	60fb      	str	r3, [r7, #12]
    /* Calculate the mask to clear */
    tmpreg2 = 0x1F << (6 * (Rank ));
 8000d82:	78ba      	ldrb	r2, [r7, #2]
 8000d84:	4613      	mov	r3, r2
 8000d86:	005b      	lsls	r3, r3, #1
 8000d88:	4413      	add	r3, r2
 8000d8a:	005b      	lsls	r3, r3, #1
 8000d8c:	461a      	mov	r2, r3
 8000d8e:	231f      	movs	r3, #31
 8000d90:	4093      	lsls	r3, r2
 8000d92:	60bb      	str	r3, [r7, #8]
    /* Clear the old SQx bits for the selected rank */
    tmpreg1 &= ~tmpreg2;
 8000d94:	68bb      	ldr	r3, [r7, #8]
 8000d96:	43db      	mvns	r3, r3
 8000d98:	68fa      	ldr	r2, [r7, #12]
 8000d9a:	4013      	ands	r3, r2
 8000d9c:	60fb      	str	r3, [r7, #12]
    /* Calculate the mask to set */
    tmpreg2 = (uint32_t)(ADC_Channel) << (6 * (Rank));
 8000d9e:	78f9      	ldrb	r1, [r7, #3]
 8000da0:	78ba      	ldrb	r2, [r7, #2]
 8000da2:	4613      	mov	r3, r2
 8000da4:	005b      	lsls	r3, r3, #1
 8000da6:	4413      	add	r3, r2
 8000da8:	005b      	lsls	r3, r3, #1
 8000daa:	fa01 f303 	lsl.w	r3, r1, r3
 8000dae:	60bb      	str	r3, [r7, #8]
    /* Set the SQx bits for the selected rank */
    tmpreg1 |= tmpreg2;
 8000db0:	68fa      	ldr	r2, [r7, #12]
 8000db2:	68bb      	ldr	r3, [r7, #8]
 8000db4:	4313      	orrs	r3, r2
 8000db6:	60fb      	str	r3, [r7, #12]
    /* Store the new register value */
    ADCx->SQR1 = tmpreg1;
 8000db8:	687b      	ldr	r3, [r7, #4]
 8000dba:	68fa      	ldr	r2, [r7, #12]
 8000dbc:	631a      	str	r2, [r3, #48]	; 0x30
 8000dbe:	e074      	b.n	8000eaa <ADC_RegularChannelConfig+0x156>
  }
  /* For Rank 5 to 9 */
  else if (Rank < 10)
 8000dc0:	78bb      	ldrb	r3, [r7, #2]
 8000dc2:	2b09      	cmp	r3, #9
 8000dc4:	d823      	bhi.n	8000e0e <ADC_RegularChannelConfig+0xba>
  {
    /* Get the old register value */
    tmpreg1 = ADCx->SQR2;
 8000dc6:	687b      	ldr	r3, [r7, #4]
 8000dc8:	6b5b      	ldr	r3, [r3, #52]	; 0x34
 8000dca:	60fb      	str	r3, [r7, #12]
    /* Calculate the mask to clear */
    tmpreg2 = ADC_SQR2_SQ5 << (6 * (Rank - 5));
 8000dcc:	78bb      	ldrb	r3, [r7, #2]
 8000dce:	1f5a      	subs	r2, r3, #5
 8000dd0:	4613      	mov	r3, r2
 8000dd2:	005b      	lsls	r3, r3, #1
 8000dd4:	4413      	add	r3, r2
 8000dd6:	005b      	lsls	r3, r3, #1
 8000dd8:	461a      	mov	r2, r3
 8000dda:	231f      	movs	r3, #31
 8000ddc:	4093      	lsls	r3, r2
 8000dde:	60bb      	str	r3, [r7, #8]
    /* Clear the old SQx bits for the selected rank */
    tmpreg1 &= ~tmpreg2;
 8000de0:	68bb      	ldr	r3, [r7, #8]
 8000de2:	43db      	mvns	r3, r3
 8000de4:	68fa      	ldr	r2, [r7, #12]
 8000de6:	4013      	ands	r3, r2
 8000de8:	60fb      	str	r3, [r7, #12]
    /* Calculate the mask to set */
    tmpreg2 = (uint32_t)(ADC_Channel) << (6 * (Rank - 5));
 8000dea:	78f9      	ldrb	r1, [r7, #3]
 8000dec:	78bb      	ldrb	r3, [r7, #2]
 8000dee:	1f5a      	subs	r2, r3, #5
 8000df0:	4613      	mov	r3, r2
 8000df2:	005b      	lsls	r3, r3, #1
 8000df4:	4413      	add	r3, r2
 8000df6:	005b      	lsls	r3, r3, #1
 8000df8:	fa01 f303 	lsl.w	r3, r1, r3
 8000dfc:	60bb      	str	r3, [r7, #8]
    /* Set the SQx bits for the selected rank */
    tmpreg1 |= tmpreg2;
 8000dfe:	68fa      	ldr	r2, [r7, #12]
 8000e00:	68bb      	ldr	r3, [r7, #8]
 8000e02:	4313      	orrs	r3, r2
 8000e04:	60fb      	str	r3, [r7, #12]
    /* Store the new register value */
    ADCx->SQR2 = tmpreg1;
 8000e06:	687b      	ldr	r3, [r7, #4]
 8000e08:	68fa      	ldr	r2, [r7, #12]
 8000e0a:	635a      	str	r2, [r3, #52]	; 0x34
 8000e0c:	e04d      	b.n	8000eaa <ADC_RegularChannelConfig+0x156>
  }
  /* For Rank 10 to 14 */
  else if (Rank < 15)
 8000e0e:	78bb      	ldrb	r3, [r7, #2]
 8000e10:	2b0e      	cmp	r3, #14
 8000e12:	d825      	bhi.n	8000e60 <ADC_RegularChannelConfig+0x10c>
  {
    /* Get the old register value */
    tmpreg1 = ADCx->SQR3;
 8000e14:	687b      	ldr	r3, [r7, #4]
 8000e16:	6b9b      	ldr	r3, [r3, #56]	; 0x38
 8000e18:	60fb      	str	r3, [r7, #12]
    /* Calculate the mask to clear */
    tmpreg2 = ADC_SQR3_SQ10 << (6 * (Rank - 10));
 8000e1a:	78bb      	ldrb	r3, [r7, #2]
 8000e1c:	f1a3 020a 	sub.w	r2, r3, #10
 8000e20:	4613      	mov	r3, r2
 8000e22:	005b      	lsls	r3, r3, #1
 8000e24:	4413      	add	r3, r2
 8000e26:	005b      	lsls	r3, r3, #1
 8000e28:	461a      	mov	r2, r3
 8000e2a:	231f      	movs	r3, #31
 8000e2c:	4093      	lsls	r3, r2
 8000e2e:	60bb      	str	r3, [r7, #8]
    /* Clear the old SQx bits for the selected rank */
    tmpreg1 &= ~tmpreg2;
 8000e30:	68bb      	ldr	r3, [r7, #8]
 8000e32:	43db      	mvns	r3, r3
 8000e34:	68fa      	ldr	r2, [r7, #12]
 8000e36:	4013      	ands	r3, r2
 8000e38:	60fb      	str	r3, [r7, #12]
    /* Calculate the mask to set */
    tmpreg2 = (uint32_t)(ADC_Channel) << (6 * (Rank - 10));
 8000e3a:	78f9      	ldrb	r1, [r7, #3]
 8000e3c:	78bb      	ldrb	r3, [r7, #2]
 8000e3e:	f1a3 020a 	sub.w	r2, r3, #10
 8000e42:	4613      	mov	r3, r2
 8000e44:	005b      	lsls	r3, r3, #1
 8000e46:	4413      	add	r3, r2
 8000e48:	005b      	lsls	r3, r3, #1
 8000e4a:	fa01 f303 	lsl.w	r3, r1, r3
 8000e4e:	60bb      	str	r3, [r7, #8]
    /* Set the SQx bits for the selected rank */
    tmpreg1 |= tmpreg2;
 8000e50:	68fa      	ldr	r2, [r7, #12]
 8000e52:	68bb      	ldr	r3, [r7, #8]
 8000e54:	4313      	orrs	r3, r2
 8000e56:	60fb      	str	r3, [r7, #12]
    /* Store the new register value */
    ADCx->SQR3 = tmpreg1;
 8000e58:	687b      	ldr	r3, [r7, #4]
 8000e5a:	68fa      	ldr	r2, [r7, #12]
 8000e5c:	639a      	str	r2, [r3, #56]	; 0x38
 8000e5e:	e024      	b.n	8000eaa <ADC_RegularChannelConfig+0x156>
  }
  else 
  {
    /* Get the old register value */
    tmpreg1 = ADCx->SQR4;
 8000e60:	687b      	ldr	r3, [r7, #4]
 8000e62:	6bdb      	ldr	r3, [r3, #60]	; 0x3c
 8000e64:	60fb      	str	r3, [r7, #12]
    /* Calculate the mask to clear */
    tmpreg2 = ADC_SQR3_SQ15 << (6 * (Rank - 15));
 8000e66:	78bb      	ldrb	r3, [r7, #2]
 8000e68:	f1a3 020f 	sub.w	r2, r3, #15
 8000e6c:	4613      	mov	r3, r2
 8000e6e:	005b      	lsls	r3, r3, #1
 8000e70:	4413      	add	r3, r2
 8000e72:	005b      	lsls	r3, r3, #1
 8000e74:	461a      	mov	r2, r3
 8000e76:	231f      	movs	r3, #31
 8000e78:	4093      	lsls	r3, r2
 8000e7a:	60bb      	str	r3, [r7, #8]
    /* Clear the old SQx bits for the selected rank */
    tmpreg1 &= ~tmpreg2;
 8000e7c:	68bb      	ldr	r3, [r7, #8]
 8000e7e:	43db      	mvns	r3, r3
 8000e80:	68fa      	ldr	r2, [r7, #12]
 8000e82:	4013      	ands	r3, r2
 8000e84:	60fb      	str	r3, [r7, #12]
    /* Calculate the mask to set */
    tmpreg2 = (uint32_t)(ADC_Channel) << (6 * (Rank - 15));
 8000e86:	78f9      	ldrb	r1, [r7, #3]
 8000e88:	78bb      	ldrb	r3, [r7, #2]
 8000e8a:	f1a3 020f 	sub.w	r2, r3, #15
 8000e8e:	4613      	mov	r3, r2
 8000e90:	005b      	lsls	r3, r3, #1
 8000e92:	4413      	add	r3, r2
 8000e94:	005b      	lsls	r3, r3, #1
 8000e96:	fa01 f303 	lsl.w	r3, r1, r3
 8000e9a:	60bb      	str	r3, [r7, #8]
    /* Set the SQx bits for the selected rank */
    tmpreg1 |= tmpreg2;
 8000e9c:	68fa      	ldr	r2, [r7, #12]
 8000e9e:	68bb      	ldr	r3, [r7, #8]
 8000ea0:	4313      	orrs	r3, r2
 8000ea2:	60fb      	str	r3, [r7, #12]
    /* Store the new register value */
    ADCx->SQR4 = tmpreg1;
 8000ea4:	687b      	ldr	r3, [r7, #4]
 8000ea6:	68fa      	ldr	r2, [r7, #12]
 8000ea8:	63da      	str	r2, [r3, #60]	; 0x3c
  }

  /* Channel sampling configuration */
  /* if ADC_Channel_10 ... ADC_Channel_18 is selected */
  if (ADC_Channel > ADC_Channel_9)
 8000eaa:	78fb      	ldrb	r3, [r7, #3]
 8000eac:	2b09      	cmp	r3, #9
 8000eae:	d923      	bls.n	8000ef8 <ADC_RegularChannelConfig+0x1a4>
  {
    /* Get the old register value */
    tmpreg1 = ADCx->SMPR2;
 8000eb0:	687b      	ldr	r3, [r7, #4]
 8000eb2:	699b      	ldr	r3, [r3, #24]
 8000eb4:	60fb      	str	r3, [r7, #12]
    /* Calculate the mask to clear */
    tmpreg2 = ADC_SMPR2_SMP10 << (3 * (ADC_Channel - 10));
 8000eb6:	78fb      	ldrb	r3, [r7, #3]
 8000eb8:	f1a3 020a 	sub.w	r2, r3, #10
 8000ebc:	4613      	mov	r3, r2
 8000ebe:	005b      	lsls	r3, r3, #1
 8000ec0:	4413      	add	r3, r2
 8000ec2:	2207      	movs	r2, #7
 8000ec4:	fa02 f303 	lsl.w	r3, r2, r3
 8000ec8:	60bb      	str	r3, [r7, #8]
    /* Clear the old channel sample time */
	ADCx->SMPR2 &= ~tmpreg2;
 8000eca:	687b      	ldr	r3, [r7, #4]
 8000ecc:	699a      	ldr	r2, [r3, #24]
 8000ece:	68bb      	ldr	r3, [r7, #8]
 8000ed0:	43db      	mvns	r3, r3
 8000ed2:	401a      	ands	r2, r3
 8000ed4:	687b      	ldr	r3, [r7, #4]
 8000ed6:	619a      	str	r2, [r3, #24]
    /* Calculate the mask to set */
	ADCx->SMPR2 |= (uint32_t)ADC_SampleTime << (3 * (ADC_Channel - 10));
 8000ed8:	687b      	ldr	r3, [r7, #4]
 8000eda:	6999      	ldr	r1, [r3, #24]
 8000edc:	7878      	ldrb	r0, [r7, #1]
 8000ede:	78fb      	ldrb	r3, [r7, #3]
 8000ee0:	f1a3 020a 	sub.w	r2, r3, #10
 8000ee4:	4613      	mov	r3, r2
 8000ee6:	005b      	lsls	r3, r3, #1
 8000ee8:	4413      	add	r3, r2
 8000eea:	fa00 f303 	lsl.w	r3, r0, r3
 8000eee:	ea41 0203 	orr.w	r2, r1, r3
 8000ef2:	687b      	ldr	r3, [r7, #4]
 8000ef4:	619a      	str	r2, [r3, #24]
    /* Clear the old channel sample time */
	ADCx->SMPR1 &= ~tmpreg2;
    /* Calculate the mask to set */
	ADCx->SMPR1 |= (uint32_t)ADC_SampleTime << (3 * (ADC_Channel));
  }
}
 8000ef6:	e01f      	b.n	8000f38 <ADC_RegularChannelConfig+0x1e4>
    tmpreg1 = ADCx->SMPR1;
 8000ef8:	687b      	ldr	r3, [r7, #4]
 8000efa:	695b      	ldr	r3, [r3, #20]
 8000efc:	60fb      	str	r3, [r7, #12]
    tmpreg2 = ADC_SMPR1_SMP1 << (3 * (ADC_Channel - 1));
 8000efe:	78fb      	ldrb	r3, [r7, #3]
 8000f00:	1e5a      	subs	r2, r3, #1
 8000f02:	4613      	mov	r3, r2
 8000f04:	005b      	lsls	r3, r3, #1
 8000f06:	4413      	add	r3, r2
 8000f08:	2238      	movs	r2, #56	; 0x38
 8000f0a:	fa02 f303 	lsl.w	r3, r2, r3
 8000f0e:	60bb      	str	r3, [r7, #8]
	ADCx->SMPR1 &= ~tmpreg2;
 8000f10:	687b      	ldr	r3, [r7, #4]
 8000f12:	695a      	ldr	r2, [r3, #20]
 8000f14:	68bb      	ldr	r3, [r7, #8]
 8000f16:	43db      	mvns	r3, r3
 8000f18:	401a      	ands	r2, r3
 8000f1a:	687b      	ldr	r3, [r7, #4]
 8000f1c:	615a      	str	r2, [r3, #20]
	ADCx->SMPR1 |= (uint32_t)ADC_SampleTime << (3 * (ADC_Channel));
 8000f1e:	687b      	ldr	r3, [r7, #4]
 8000f20:	6959      	ldr	r1, [r3, #20]
 8000f22:	7878      	ldrb	r0, [r7, #1]
 8000f24:	78fa      	ldrb	r2, [r7, #3]
 8000f26:	4613      	mov	r3, r2
 8000f28:	005b      	lsls	r3, r3, #1
 8000f2a:	4413      	add	r3, r2
 8000f2c:	fa00 f303 	lsl.w	r3, r0, r3
 8000f30:	ea41 0203 	orr.w	r2, r1, r3
 8000f34:	687b      	ldr	r3, [r7, #4]
 8000f36:	615a      	str	r2, [r3, #20]
}
 8000f38:	bf00      	nop
 8000f3a:	3714      	adds	r7, #20
 8000f3c:	46bd      	mov	sp, r7
 8000f3e:	f85d 7b04 	ldr.w	r7, [sp], #4
 8000f42:	4770      	bx	lr

08000f44 <ADC_StartConversion>:
  * @brief  Enables or disables the selected ADC start conversion .
  * @param  ADCx: where x can be 1, 2, 3 or 4 to select the ADC peripheral.
  * @retval None
  */
void ADC_StartConversion(ADC_TypeDef* ADCx)
{
 8000f44:	b480      	push	{r7}
 8000f46:	b083      	sub	sp, #12
 8000f48:	af00      	add	r7, sp, #0
 8000f4a:	6078      	str	r0, [r7, #4]
  /* Check the parameters */
  assert_param(IS_ADC_ALL_PERIPH(ADCx));

  /* Set the ADSTART bit */
  ADCx->CR |= ADC_CR_ADSTART;
 8000f4c:	687b      	ldr	r3, [r7, #4]
 8000f4e:	689b      	ldr	r3, [r3, #8]
 8000f50:	f043 0204 	orr.w	r2, r3, #4
 8000f54:	687b      	ldr	r3, [r7, #4]
 8000f56:	609a      	str	r2, [r3, #8]
}
 8000f58:	bf00      	nop
 8000f5a:	370c      	adds	r7, #12
 8000f5c:	46bd      	mov	sp, r7
 8000f5e:	f85d 7b04 	ldr.w	r7, [sp], #4
 8000f62:	4770      	bx	lr

08000f64 <ADC_GetConversionValue>:
  * @brief  Returns the last ADCx conversion result data for regular channel.
  * @param  ADCx: where x can be 1, 2, 3 or 4 to select the ADC peripheral.
  * @retval The Data conversion value.
  */
uint16_t ADC_GetConversionValue(ADC_TypeDef* ADCx)
{
 8000f64:	b480      	push	{r7}
 8000f66:	b083      	sub	sp, #12
 8000f68:	af00      	add	r7, sp, #0
 8000f6a:	6078      	str	r0, [r7, #4]
  /* Check the parameters */
  assert_param(IS_ADC_ALL_PERIPH(ADCx));
  /* Return the selected ADC conversion value */
  return (uint16_t) ADCx->DR;
 8000f6c:	687b      	ldr	r3, [r7, #4]
 8000f6e:	6c1b      	ldr	r3, [r3, #64]	; 0x40
 8000f70:	b29b      	uxth	r3, r3
}
 8000f72:	4618      	mov	r0, r3
 8000f74:	370c      	adds	r7, #12
 8000f76:	46bd      	mov	sp, r7
 8000f78:	f85d 7b04 	ldr.w	r7, [sp], #4
 8000f7c:	4770      	bx	lr

08000f7e <ADC_GetFlagStatus>:
  *     @arg ADC_FLAG_AWD3: ADC Analog watchdog 3 flag 
  *     @arg ADC_FLAG_JQOVF: ADC Injected Context Queue Overflow flag 
  * @retval The new state of ADC_FLAG (SET or RESET).
  */
FlagStatus ADC_GetFlagStatus(ADC_TypeDef* ADCx, uint32_t ADC_FLAG)
{
 8000f7e:	b480      	push	{r7}
 8000f80:	b085      	sub	sp, #20
 8000f82:	af00      	add	r7, sp, #0
 8000f84:	6078      	str	r0, [r7, #4]
 8000f86:	6039      	str	r1, [r7, #0]
  FlagStatus bitstatus = RESET;
 8000f88:	2300      	movs	r3, #0
 8000f8a:	73fb      	strb	r3, [r7, #15]
  /* Check the parameters */
  assert_param(IS_ADC_ALL_PERIPH(ADCx));
  assert_param(IS_ADC_GET_FLAG(ADC_FLAG));

  /* Check the status of the specified ADC flag */
  if ((ADCx->ISR & ADC_FLAG) != (uint32_t)RESET)
 8000f8c:	687b      	ldr	r3, [r7, #4]
 8000f8e:	681a      	ldr	r2, [r3, #0]
 8000f90:	683b      	ldr	r3, [r7, #0]
 8000f92:	4013      	ands	r3, r2
 8000f94:	2b00      	cmp	r3, #0
 8000f96:	d002      	beq.n	8000f9e <ADC_GetFlagStatus+0x20>
  {
    /* ADC_FLAG is set */
    bitstatus = SET;
 8000f98:	2301      	movs	r3, #1
 8000f9a:	73fb      	strb	r3, [r7, #15]
 8000f9c:	e001      	b.n	8000fa2 <ADC_GetFlagStatus+0x24>
  }
  else
  {
    /* ADC_FLAG is reset */
    bitstatus = RESET;
 8000f9e:	2300      	movs	r3, #0
 8000fa0:	73fb      	strb	r3, [r7, #15]
  }
  /* Return the ADC_FLAG status */
  return  bitstatus;
 8000fa2:	7bfb      	ldrb	r3, [r7, #15]
}
 8000fa4:	4618      	mov	r0, r3
 8000fa6:	3714      	adds	r7, #20
 8000fa8:	46bd      	mov	sp, r7
 8000faa:	f85d 7b04 	ldr.w	r7, [sp], #4
 8000fae:	4770      	bx	lr

08000fb0 <FLASH_Unlock>:
  * @brief  Unlocks the FLASH control register access
  * @param  None
  * @retval None
  */
void FLASH_Unlock(void)
{
 8000fb0:	b480      	push	{r7}
 8000fb2:	af00      	add	r7, sp, #0
  if((FLASH->CR & FLASH_CR_LOCK) != RESET)
 8000fb4:	4b08      	ldr	r3, [pc, #32]	; (8000fd8 <FLASH_Unlock+0x28>)
 8000fb6:	691b      	ldr	r3, [r3, #16]
 8000fb8:	f003 0380 	and.w	r3, r3, #128	; 0x80
 8000fbc:	2b00      	cmp	r3, #0
 8000fbe:	d005      	beq.n	8000fcc <FLASH_Unlock+0x1c>
  {
    /* Authorize the FLASH Registers access */
    FLASH->KEYR = FLASH_KEY1;
 8000fc0:	4b05      	ldr	r3, [pc, #20]	; (8000fd8 <FLASH_Unlock+0x28>)
 8000fc2:	4a06      	ldr	r2, [pc, #24]	; (8000fdc <FLASH_Unlock+0x2c>)
 8000fc4:	605a      	str	r2, [r3, #4]
    FLASH->KEYR = FLASH_KEY2;
 8000fc6:	4b04      	ldr	r3, [pc, #16]	; (8000fd8 <FLASH_Unlock+0x28>)
 8000fc8:	4a05      	ldr	r2, [pc, #20]	; (8000fe0 <FLASH_Unlock+0x30>)
 8000fca:	605a      	str	r2, [r3, #4]
  }  
}
 8000fcc:	bf00      	nop
 8000fce:	46bd      	mov	sp, r7
 8000fd0:	f85d 7b04 	ldr.w	r7, [sp], #4
 8000fd4:	4770      	bx	lr
 8000fd6:	bf00      	nop
 8000fd8:	40022000 	.word	0x40022000
 8000fdc:	45670123 	.word	0x45670123
 8000fe0:	cdef89ab 	.word	0xcdef89ab

08000fe4 <FLASH_Lock>:
  * @brief  Locks the FLASH control register access
  * @param  None
  * @retval None
  */
void FLASH_Lock(void)
{
 8000fe4:	b480      	push	{r7}
 8000fe6:	af00      	add	r7, sp, #0
  /* Set the LOCK Bit to lock the FLASH Registers access */
  FLASH->CR |= FLASH_CR_LOCK;
 8000fe8:	4b05      	ldr	r3, [pc, #20]	; (8001000 <FLASH_Lock+0x1c>)
 8000fea:	691b      	ldr	r3, [r3, #16]
 8000fec:	4a04      	ldr	r2, [pc, #16]	; (8001000 <FLASH_Lock+0x1c>)
 8000fee:	f043 0380 	orr.w	r3, r3, #128	; 0x80
 8000ff2:	6113      	str	r3, [r2, #16]
}
 8000ff4:	bf00      	nop
 8000ff6:	46bd      	mov	sp, r7
 8000ff8:	f85d 7b04 	ldr.w	r7, [sp], #4
 8000ffc:	4770      	bx	lr
 8000ffe:	bf00      	nop
 8001000:	40022000 	.word	0x40022000

08001004 <FLASH_ErasePage>:
  *         is the start address of a page (multiple of 1024 bytes).  
  * @retval FLASH Status: The returned value can be: 
  *         FLASH_ERROR_PROGRAM, FLASH_ERROR_WRP, FLASH_COMPLETE or FLASH_TIMEOUT.
  */
FLASH_Status FLASH_ErasePage(uint32_t Page_Address)
{
 8001004:	b580      	push	{r7, lr}
 8001006:	b084      	sub	sp, #16
 8001008:	af00      	add	r7, sp, #0
 800100a:	6078      	str	r0, [r7, #4]
  FLASH_Status status = FLASH_COMPLETE;
 800100c:	2304      	movs	r3, #4
 800100e:	73fb      	strb	r3, [r7, #15]

  /* Check the parameters */
  assert_param(IS_FLASH_PROGRAM_ADDRESS(Page_Address));
 
  /* Wait for last operation to be completed */
  status = FLASH_WaitForLastOperation(FLASH_ER_PRG_TIMEOUT);
 8001010:	f44f 2030 	mov.w	r0, #720896	; 0xb0000
 8001014:	f000 f892 	bl	800113c <FLASH_WaitForLastOperation>
 8001018:	4603      	mov	r3, r0
 800101a:	73fb      	strb	r3, [r7, #15]
  
  if(status == FLASH_COMPLETE)
 800101c:	7bfb      	ldrb	r3, [r7, #15]
 800101e:	2b04      	cmp	r3, #4
 8001020:	d11a      	bne.n	8001058 <FLASH_ErasePage+0x54>
  { 
    /* If the previous operation is completed, proceed to erase the page */
    FLASH->CR |= FLASH_CR_PER;
 8001022:	4b10      	ldr	r3, [pc, #64]	; (8001064 <FLASH_ErasePage+0x60>)
 8001024:	691b      	ldr	r3, [r3, #16]
 8001026:	4a0f      	ldr	r2, [pc, #60]	; (8001064 <FLASH_ErasePage+0x60>)
 8001028:	f043 0302 	orr.w	r3, r3, #2
 800102c:	6113      	str	r3, [r2, #16]
    FLASH->AR  = Page_Address; 
 800102e:	4a0d      	ldr	r2, [pc, #52]	; (8001064 <FLASH_ErasePage+0x60>)
 8001030:	687b      	ldr	r3, [r7, #4]
 8001032:	6153      	str	r3, [r2, #20]
    FLASH->CR |= FLASH_CR_STRT;
 8001034:	4b0b      	ldr	r3, [pc, #44]	; (8001064 <FLASH_ErasePage+0x60>)
 8001036:	691b      	ldr	r3, [r3, #16]
 8001038:	4a0a      	ldr	r2, [pc, #40]	; (8001064 <FLASH_ErasePage+0x60>)
 800103a:	f043 0340 	orr.w	r3, r3, #64	; 0x40
 800103e:	6113      	str	r3, [r2, #16]
    
    /* Wait for last operation to be completed */
    status = FLASH_WaitForLastOperation(FLASH_ER_PRG_TIMEOUT);
 8001040:	f44f 2030 	mov.w	r0, #720896	; 0xb0000
 8001044:	f000 f87a 	bl	800113c <FLASH_WaitForLastOperation>
 8001048:	4603      	mov	r3, r0
 800104a:	73fb      	strb	r3, [r7, #15]
    
    /* Disable the PER Bit */
    FLASH->CR &= ~FLASH_CR_PER;
 800104c:	4b05      	ldr	r3, [pc, #20]	; (8001064 <FLASH_ErasePage+0x60>)
 800104e:	691b      	ldr	r3, [r3, #16]
 8001050:	4a04      	ldr	r2, [pc, #16]	; (8001064 <FLASH_ErasePage+0x60>)
 8001052:	f023 0302 	bic.w	r3, r3, #2
 8001056:	6113      	str	r3, [r2, #16]
  }
    
  /* Return the Erase Status */
  return status;
 8001058:	7bfb      	ldrb	r3, [r7, #15]
}
 800105a:	4618      	mov	r0, r3
 800105c:	3710      	adds	r7, #16
 800105e:	46bd      	mov	sp, r7
 8001060:	bd80      	pop	{r7, pc}
 8001062:	bf00      	nop
 8001064:	40022000 	.word	0x40022000

08001068 <FLASH_ProgramHalfWord>:
  * @param  Data: specifies the data to be programmed.
  * @retval FLASH Status: The returned value can be: FLASH_ERROR_PG,
  *         FLASH_ERROR_WRP, FLASH_COMPLETE or FLASH_TIMEOUT. 
  */
FLASH_Status FLASH_ProgramHalfWord(uint32_t Address, uint16_t Data)
{
 8001068:	b580      	push	{r7, lr}
 800106a:	b084      	sub	sp, #16
 800106c:	af00      	add	r7, sp, #0
 800106e:	6078      	str	r0, [r7, #4]
 8001070:	460b      	mov	r3, r1
 8001072:	807b      	strh	r3, [r7, #2]
  FLASH_Status status = FLASH_COMPLETE;
 8001074:	2304      	movs	r3, #4
 8001076:	73fb      	strb	r3, [r7, #15]

  /* Check the parameters */
  assert_param(IS_FLASH_PROGRAM_ADDRESS(Address));

  /* Wait for last operation to be completed */
  status = FLASH_WaitForLastOperation(FLASH_ER_PRG_TIMEOUT);
 8001078:	f44f 2030 	mov.w	r0, #720896	; 0xb0000
 800107c:	f000 f85e 	bl	800113c <FLASH_WaitForLastOperation>
 8001080:	4603      	mov	r3, r0
 8001082:	73fb      	strb	r3, [r7, #15]
  
  if(status == FLASH_COMPLETE)
 8001084:	7bfb      	ldrb	r3, [r7, #15]
 8001086:	2b04      	cmp	r3, #4
 8001088:	d114      	bne.n	80010b4 <FLASH_ProgramHalfWord+0x4c>
  {
    /* If the previous operation is completed, proceed to program the new data */
    FLASH->CR |= FLASH_CR_PG;
 800108a:	4b0d      	ldr	r3, [pc, #52]	; (80010c0 <FLASH_ProgramHalfWord+0x58>)
 800108c:	691b      	ldr	r3, [r3, #16]
 800108e:	4a0c      	ldr	r2, [pc, #48]	; (80010c0 <FLASH_ProgramHalfWord+0x58>)
 8001090:	f043 0301 	orr.w	r3, r3, #1
 8001094:	6113      	str	r3, [r2, #16]
  
    *(__IO uint16_t*)Address = Data;
 8001096:	687b      	ldr	r3, [r7, #4]
 8001098:	887a      	ldrh	r2, [r7, #2]
 800109a:	801a      	strh	r2, [r3, #0]

    /* Wait for last operation to be completed */
    status = FLASH_WaitForLastOperation(FLASH_ER_PRG_TIMEOUT);
 800109c:	f44f 2030 	mov.w	r0, #720896	; 0xb0000
 80010a0:	f000 f84c 	bl	800113c <FLASH_WaitForLastOperation>
 80010a4:	4603      	mov	r3, r0
 80010a6:	73fb      	strb	r3, [r7, #15]
    
    /* Disable the PG Bit */
    FLASH->CR &= ~FLASH_CR_PG;
 80010a8:	4b05      	ldr	r3, [pc, #20]	; (80010c0 <FLASH_ProgramHalfWord+0x58>)
 80010aa:	691b      	ldr	r3, [r3, #16]
 80010ac:	4a04      	ldr	r2, [pc, #16]	; (80010c0 <FLASH_ProgramHalfWord+0x58>)
 80010ae:	f023 0301 	bic.w	r3, r3, #1
 80010b2:	6113      	str	r3, [r2, #16]
  } 
  
  /* Return the Program Status */
  return status;
 80010b4:	7bfb      	ldrb	r3, [r7, #15]
}
 80010b6:	4618      	mov	r0, r3
 80010b8:	3710      	adds	r7, #16
 80010ba:	46bd      	mov	sp, r7
 80010bc:	bd80      	pop	{r7, pc}
 80010be:	bf00      	nop
 80010c0:	40022000 	.word	0x40022000

080010c4 <FLASH_ClearFlag>:
  *     @arg FLASH_FLAG_WRPERR: FLASH Write protected error flag
  *     @arg FLASH_FLAG_EOP: FLASH End of Programming flag                
  * @retval None
  */
void FLASH_ClearFlag(uint32_t FLASH_FLAG)
{
 80010c4:	b480      	push	{r7}
 80010c6:	b083      	sub	sp, #12
 80010c8:	af00      	add	r7, sp, #0
 80010ca:	6078      	str	r0, [r7, #4]
  /* Check the parameters */
  assert_param(IS_FLASH_CLEAR_FLAG(FLASH_FLAG));
  
  /* Clear the flags */
  FLASH->SR = FLASH_FLAG;
 80010cc:	4a04      	ldr	r2, [pc, #16]	; (80010e0 <FLASH_ClearFlag+0x1c>)
 80010ce:	687b      	ldr	r3, [r7, #4]
 80010d0:	60d3      	str	r3, [r2, #12]
}
 80010d2:	bf00      	nop
 80010d4:	370c      	adds	r7, #12
 80010d6:	46bd      	mov	sp, r7
 80010d8:	f85d 7b04 	ldr.w	r7, [sp], #4
 80010dc:	4770      	bx	lr
 80010de:	bf00      	nop
 80010e0:	40022000 	.word	0x40022000

080010e4 <FLASH_GetStatus>:
  * @param  None
  * @retval FLASH Status: The returned value can be: 
  *         FLASH_BUSY, FLASH_ERROR_PROGRAM, FLASH_ERROR_WRP or FLASH_COMPLETE.
  */
FLASH_Status FLASH_GetStatus(void)
{
 80010e4:	b480      	push	{r7}
 80010e6:	b083      	sub	sp, #12
 80010e8:	af00      	add	r7, sp, #0
  FLASH_Status FLASHstatus = FLASH_COMPLETE;
 80010ea:	2304      	movs	r3, #4
 80010ec:	71fb      	strb	r3, [r7, #7]
  
  if((FLASH->SR & FLASH_FLAG_BSY) == FLASH_FLAG_BSY) 
 80010ee:	4b12      	ldr	r3, [pc, #72]	; (8001138 <FLASH_GetStatus+0x54>)
 80010f0:	68db      	ldr	r3, [r3, #12]
 80010f2:	f003 0301 	and.w	r3, r3, #1
 80010f6:	2b01      	cmp	r3, #1
 80010f8:	d102      	bne.n	8001100 <FLASH_GetStatus+0x1c>
  {
    FLASHstatus = FLASH_BUSY;
 80010fa:	2301      	movs	r3, #1
 80010fc:	71fb      	strb	r3, [r7, #7]
 80010fe:	e013      	b.n	8001128 <FLASH_GetStatus+0x44>
  }
  else 
  {  
    if((FLASH->SR & (uint32_t)FLASH_FLAG_WRPERR)!= (uint32_t)0x00)
 8001100:	4b0d      	ldr	r3, [pc, #52]	; (8001138 <FLASH_GetStatus+0x54>)
 8001102:	68db      	ldr	r3, [r3, #12]
 8001104:	f003 0310 	and.w	r3, r3, #16
 8001108:	2b00      	cmp	r3, #0
 800110a:	d002      	beq.n	8001112 <FLASH_GetStatus+0x2e>
    { 
      FLASHstatus = FLASH_ERROR_WRP;
 800110c:	2302      	movs	r3, #2
 800110e:	71fb      	strb	r3, [r7, #7]
 8001110:	e00a      	b.n	8001128 <FLASH_GetStatus+0x44>
    }
    else 
    {
      if((FLASH->SR & (uint32_t)(FLASH_SR_PGERR)) != (uint32_t)0x00)
 8001112:	4b09      	ldr	r3, [pc, #36]	; (8001138 <FLASH_GetStatus+0x54>)
 8001114:	68db      	ldr	r3, [r3, #12]
 8001116:	f003 0304 	and.w	r3, r3, #4
 800111a:	2b00      	cmp	r3, #0
 800111c:	d002      	beq.n	8001124 <FLASH_GetStatus+0x40>
      {
        FLASHstatus = FLASH_ERROR_PROGRAM; 
 800111e:	2303      	movs	r3, #3
 8001120:	71fb      	strb	r3, [r7, #7]
 8001122:	e001      	b.n	8001128 <FLASH_GetStatus+0x44>
      }
      else
      {
        FLASHstatus = FLASH_COMPLETE;
 8001124:	2304      	movs	r3, #4
 8001126:	71fb      	strb	r3, [r7, #7]
      }
    }
  }
  /* Return the FLASH Status */
  return FLASHstatus;
 8001128:	79fb      	ldrb	r3, [r7, #7]
}
 800112a:	4618      	mov	r0, r3
 800112c:	370c      	adds	r7, #12
 800112e:	46bd      	mov	sp, r7
 8001130:	f85d 7b04 	ldr.w	r7, [sp], #4
 8001134:	4770      	bx	lr
 8001136:	bf00      	nop
 8001138:	40022000 	.word	0x40022000

0800113c <FLASH_WaitForLastOperation>:
  * @param  Timeout: FLASH programming Timeout
  * @retval FLASH Status: The returned value can be: FLASH_BUSY, 
  *         FLASH_ERROR_PROGRAM, FLASH_ERROR_WRP, FLASH_COMPLETE or FLASH_TIMEOUT.
  */
FLASH_Status FLASH_WaitForLastOperation(uint32_t Timeout)
{ 
 800113c:	b580      	push	{r7, lr}
 800113e:	b084      	sub	sp, #16
 8001140:	af00      	add	r7, sp, #0
 8001142:	6078      	str	r0, [r7, #4]
  FLASH_Status status = FLASH_COMPLETE;
 8001144:	2304      	movs	r3, #4
 8001146:	73fb      	strb	r3, [r7, #15]
   
  /* Check for the FLASH Status */
  status = FLASH_GetStatus();
 8001148:	f7ff ffcc 	bl	80010e4 <FLASH_GetStatus>
 800114c:	4603      	mov	r3, r0
 800114e:	73fb      	strb	r3, [r7, #15]
  
  /* Wait for a FLASH operation to complete or a TIMEOUT to occur */
  while((status == FLASH_BUSY) && (Timeout != 0x00))
 8001150:	e006      	b.n	8001160 <FLASH_WaitForLastOperation+0x24>
  {
    status = FLASH_GetStatus();
 8001152:	f7ff ffc7 	bl	80010e4 <FLASH_GetStatus>
 8001156:	4603      	mov	r3, r0
 8001158:	73fb      	strb	r3, [r7, #15]
    Timeout--;
 800115a:	687b      	ldr	r3, [r7, #4]
 800115c:	3b01      	subs	r3, #1
 800115e:	607b      	str	r3, [r7, #4]
  while((status == FLASH_BUSY) && (Timeout != 0x00))
 8001160:	7bfb      	ldrb	r3, [r7, #15]
 8001162:	2b01      	cmp	r3, #1
 8001164:	d102      	bne.n	800116c <FLASH_WaitForLastOperation+0x30>
 8001166:	687b      	ldr	r3, [r7, #4]
 8001168:	2b00      	cmp	r3, #0
 800116a:	d1f2      	bne.n	8001152 <FLASH_WaitForLastOperation+0x16>
  }
  
  if(Timeout == 0x00 )
 800116c:	687b      	ldr	r3, [r7, #4]
 800116e:	2b00      	cmp	r3, #0
 8001170:	d101      	bne.n	8001176 <FLASH_WaitForLastOperation+0x3a>
  {
    status = FLASH_TIMEOUT;
 8001172:	2305      	movs	r3, #5
 8001174:	73fb      	strb	r3, [r7, #15]
  }
  /* Return the operation status */
  return status;
 8001176:	7bfb      	ldrb	r3, [r7, #15]
}
 8001178:	4618      	mov	r0, r3
 800117a:	3710      	adds	r7, #16
 800117c:	46bd      	mov	sp, r7
 800117e:	bd80      	pop	{r7, pc}

08001180 <GPIO_PinAFConfig>:
  *        for the detailed mapping of the system and peripherals alternate 
  *        function I/O pins.
  * @retval None
  */
void GPIO_PinAFConfig(GPIO_TypeDef* GPIOx, uint16_t GPIO_PinSource, uint8_t GPIO_AF)
{
 8001180:	b480      	push	{r7}
 8001182:	b085      	sub	sp, #20
 8001184:	af00      	add	r7, sp, #0
 8001186:	6078      	str	r0, [r7, #4]
 8001188:	460b      	mov	r3, r1
 800118a:	807b      	strh	r3, [r7, #2]
 800118c:	4613      	mov	r3, r2
 800118e:	707b      	strb	r3, [r7, #1]
  uint32_t temp = 0x00;
 8001190:	2300      	movs	r3, #0
 8001192:	60fb      	str	r3, [r7, #12]
  uint32_t temp_2 = 0x00;
 8001194:	2300      	movs	r3, #0
 8001196:	60bb      	str	r3, [r7, #8]
  /* Check the parameters */
  assert_param(IS_GPIO_ALL_PERIPH(GPIOx));
  assert_param(IS_GPIO_PIN_SOURCE(GPIO_PinSource));
  assert_param(IS_GPIO_AF(GPIO_AF));
  
  temp = ((uint32_t)(GPIO_AF) << ((uint32_t)((uint32_t)GPIO_PinSource & (uint32_t)0x07) * 4));
 8001198:	787a      	ldrb	r2, [r7, #1]
 800119a:	887b      	ldrh	r3, [r7, #2]
 800119c:	f003 0307 	and.w	r3, r3, #7
 80011a0:	009b      	lsls	r3, r3, #2
 80011a2:	fa02 f303 	lsl.w	r3, r2, r3
 80011a6:	60fb      	str	r3, [r7, #12]
  GPIOx->AFR[GPIO_PinSource >> 0x03] &= ~((uint32_t)0xF << ((uint32_t)((uint32_t)GPIO_PinSource & (uint32_t)0x07) * 4));
 80011a8:	887b      	ldrh	r3, [r7, #2]
 80011aa:	08db      	lsrs	r3, r3, #3
 80011ac:	b29b      	uxth	r3, r3
 80011ae:	461a      	mov	r2, r3
 80011b0:	687b      	ldr	r3, [r7, #4]
 80011b2:	3208      	adds	r2, #8
 80011b4:	f853 2022 	ldr.w	r2, [r3, r2, lsl #2]
 80011b8:	887b      	ldrh	r3, [r7, #2]
 80011ba:	f003 0307 	and.w	r3, r3, #7
 80011be:	009b      	lsls	r3, r3, #2
 80011c0:	210f      	movs	r1, #15
 80011c2:	fa01 f303 	lsl.w	r3, r1, r3
 80011c6:	43db      	mvns	r3, r3
 80011c8:	8879      	ldrh	r1, [r7, #2]
 80011ca:	08c9      	lsrs	r1, r1, #3
 80011cc:	b289      	uxth	r1, r1
 80011ce:	4608      	mov	r0, r1
 80011d0:	ea02 0103 	and.w	r1, r2, r3
 80011d4:	687b      	ldr	r3, [r7, #4]
 80011d6:	f100 0208 	add.w	r2, r0, #8
 80011da:	f843 1022 	str.w	r1, [r3, r2, lsl #2]
  temp_2 = GPIOx->AFR[GPIO_PinSource >> 0x03] | temp;
 80011de:	887b      	ldrh	r3, [r7, #2]
 80011e0:	08db      	lsrs	r3, r3, #3
 80011e2:	b29b      	uxth	r3, r3
 80011e4:	461a      	mov	r2, r3
 80011e6:	687b      	ldr	r3, [r7, #4]
 80011e8:	3208      	adds	r2, #8
 80011ea:	f853 3022 	ldr.w	r3, [r3, r2, lsl #2]
 80011ee:	68fa      	ldr	r2, [r7, #12]
 80011f0:	4313      	orrs	r3, r2
 80011f2:	60bb      	str	r3, [r7, #8]
  GPIOx->AFR[GPIO_PinSource >> 0x03] = temp_2;
 80011f4:	887b      	ldrh	r3, [r7, #2]
 80011f6:	08db      	lsrs	r3, r3, #3
 80011f8:	b29b      	uxth	r3, r3
 80011fa:	461a      	mov	r2, r3
 80011fc:	687b      	ldr	r3, [r7, #4]
 80011fe:	3208      	adds	r2, #8
 8001200:	68b9      	ldr	r1, [r7, #8]
 8001202:	f843 1022 	str.w	r1, [r3, r2, lsl #2]
}
 8001206:	bf00      	nop
 8001208:	3714      	adds	r7, #20
 800120a:	46bd      	mov	sp, r7
 800120c:	f85d 7b04 	ldr.w	r7, [sp], #4
 8001210:	4770      	bx	lr
	...

08001214 <I2C_TransferHandling>:
  *     @arg I2C_Generate_Start_Read: Generate Restart for read request.
  *     @arg I2C_Generate_Start_Write: Generate Restart for write request.
  * @retval None
  */
void I2C_TransferHandling(I2C_TypeDef* I2Cx, uint16_t Address, uint8_t Number_Bytes, uint32_t ReloadEndMode, uint32_t StartStopMode)
{
 8001214:	b480      	push	{r7}
 8001216:	b087      	sub	sp, #28
 8001218:	af00      	add	r7, sp, #0
 800121a:	60f8      	str	r0, [r7, #12]
 800121c:	607b      	str	r3, [r7, #4]
 800121e:	460b      	mov	r3, r1
 8001220:	817b      	strh	r3, [r7, #10]
 8001222:	4613      	mov	r3, r2
 8001224:	727b      	strb	r3, [r7, #9]
  uint32_t tmpreg = 0;
 8001226:	2300      	movs	r3, #0
 8001228:	617b      	str	r3, [r7, #20]
  assert_param(IS_I2C_SLAVE_ADDRESS(Address));  
  assert_param(IS_RELOAD_END_MODE(ReloadEndMode));
  assert_param(IS_START_STOP_MODE(StartStopMode));
    
  /* Get the CR2 register value */
  tmpreg = I2Cx->CR2;
 800122a:	68fb      	ldr	r3, [r7, #12]
 800122c:	685b      	ldr	r3, [r3, #4]
 800122e:	617b      	str	r3, [r7, #20]
  
  /* clear tmpreg specific bits */
  tmpreg &= (uint32_t)~((uint32_t)(I2C_CR2_SADD | I2C_CR2_NBYTES | I2C_CR2_RELOAD | I2C_CR2_AUTOEND | I2C_CR2_RD_WRN | I2C_CR2_START | I2C_CR2_STOP));
 8001230:	697a      	ldr	r2, [r7, #20]
 8001232:	4b0d      	ldr	r3, [pc, #52]	; (8001268 <I2C_TransferHandling+0x54>)
 8001234:	4013      	ands	r3, r2
 8001236:	617b      	str	r3, [r7, #20]
  
  /* update tmpreg */
  tmpreg |= (uint32_t)(((uint32_t)Address & I2C_CR2_SADD) | (((uint32_t)Number_Bytes << 16 ) & I2C_CR2_NBYTES) | \
 8001238:	897b      	ldrh	r3, [r7, #10]
 800123a:	f3c3 0209 	ubfx	r2, r3, #0, #10
 800123e:	7a7b      	ldrb	r3, [r7, #9]
 8001240:	041b      	lsls	r3, r3, #16
 8001242:	f403 037f 	and.w	r3, r3, #16711680	; 0xff0000
 8001246:	431a      	orrs	r2, r3
 8001248:	687b      	ldr	r3, [r7, #4]
 800124a:	431a      	orrs	r2, r3
 800124c:	6a3b      	ldr	r3, [r7, #32]
 800124e:	4313      	orrs	r3, r2
 8001250:	697a      	ldr	r2, [r7, #20]
 8001252:	4313      	orrs	r3, r2
 8001254:	617b      	str	r3, [r7, #20]
            (uint32_t)ReloadEndMode | (uint32_t)StartStopMode);
  
  /* update CR2 register */
  I2Cx->CR2 = tmpreg;  
 8001256:	68fb      	ldr	r3, [r7, #12]
 8001258:	697a      	ldr	r2, [r7, #20]
 800125a:	605a      	str	r2, [r3, #4]
}  
 800125c:	bf00      	nop
 800125e:	371c      	adds	r7, #28
 8001260:	46bd      	mov	sp, r7
 8001262:	f85d 7b04 	ldr.w	r7, [sp], #4
 8001266:	4770      	bx	lr
 8001268:	fc009800 	.word	0xfc009800

0800126c <I2C_SendData>:
  * @param  I2Cx: where x can be 1 or 2 to select the I2C peripheral.
  * @param  Data: Byte to be transmitted..
  * @retval None
  */
void I2C_SendData(I2C_TypeDef* I2Cx, uint8_t Data)
{
 800126c:	b480      	push	{r7}
 800126e:	b083      	sub	sp, #12
 8001270:	af00      	add	r7, sp, #0
 8001272:	6078      	str	r0, [r7, #4]
 8001274:	460b      	mov	r3, r1
 8001276:	70fb      	strb	r3, [r7, #3]
  /* Check the parameters */
  assert_param(IS_I2C_ALL_PERIPH(I2Cx));
  
  /* Write in the DR register the data to be sent */
  I2Cx->TXDR = (uint8_t)Data;
 8001278:	78fa      	ldrb	r2, [r7, #3]
 800127a:	687b      	ldr	r3, [r7, #4]
 800127c:	629a      	str	r2, [r3, #40]	; 0x28
}
 800127e:	bf00      	nop
 8001280:	370c      	adds	r7, #12
 8001282:	46bd      	mov	sp, r7
 8001284:	f85d 7b04 	ldr.w	r7, [sp], #4
 8001288:	4770      	bx	lr

0800128a <I2C_ReceiveData>:
  * @brief  Returns the most recent received data by the I2Cx peripheral.
  * @param  I2Cx: where x can be 1 or 2 to select the I2C peripheral.
  * @retval The value of the received data.
  */
uint8_t I2C_ReceiveData(I2C_TypeDef* I2Cx)
{
 800128a:	b480      	push	{r7}
 800128c:	b083      	sub	sp, #12
 800128e:	af00      	add	r7, sp, #0
 8001290:	6078      	str	r0, [r7, #4]
  /* Check the parameters */
  assert_param(IS_I2C_ALL_PERIPH(I2Cx));
  
  /* Return the data in the DR register */
  return (uint8_t)I2Cx->RXDR;
 8001292:	687b      	ldr	r3, [r7, #4]
 8001294:	6a5b      	ldr	r3, [r3, #36]	; 0x24
 8001296:	b2db      	uxtb	r3, r3
}  
 8001298:	4618      	mov	r0, r3
 800129a:	370c      	adds	r7, #12
 800129c:	46bd      	mov	sp, r7
 800129e:	f85d 7b04 	ldr.w	r7, [sp], #4
 80012a2:	4770      	bx	lr

080012a4 <I2C_GetFlagStatus>:
  *     @arg I2C_FLAG_ALERT: SMBus Alert
  *     @arg I2C_FLAG_BUSY: Bus busy
  * @retval The new state of I2C_FLAG (SET or RESET).
  */
FlagStatus I2C_GetFlagStatus(I2C_TypeDef* I2Cx, uint32_t I2C_FLAG)
{
 80012a4:	b480      	push	{r7}
 80012a6:	b085      	sub	sp, #20
 80012a8:	af00      	add	r7, sp, #0
 80012aa:	6078      	str	r0, [r7, #4]
 80012ac:	6039      	str	r1, [r7, #0]
  uint32_t tmpreg = 0;
 80012ae:	2300      	movs	r3, #0
 80012b0:	60bb      	str	r3, [r7, #8]
  FlagStatus bitstatus = RESET;
 80012b2:	2300      	movs	r3, #0
 80012b4:	73fb      	strb	r3, [r7, #15]
  /* Check the parameters */
  assert_param(IS_I2C_ALL_PERIPH(I2Cx));
  assert_param(IS_I2C_GET_FLAG(I2C_FLAG));
  
  /* Get the ISR register value */
  tmpreg = I2Cx->ISR;
 80012b6:	687b      	ldr	r3, [r7, #4]
 80012b8:	699b      	ldr	r3, [r3, #24]
 80012ba:	60bb      	str	r3, [r7, #8]
  
  /* Get flag status */
  tmpreg &= I2C_FLAG;
 80012bc:	68ba      	ldr	r2, [r7, #8]
 80012be:	683b      	ldr	r3, [r7, #0]
 80012c0:	4013      	ands	r3, r2
 80012c2:	60bb      	str	r3, [r7, #8]
  
  if(tmpreg != 0)
 80012c4:	68bb      	ldr	r3, [r7, #8]
 80012c6:	2b00      	cmp	r3, #0
 80012c8:	d002      	beq.n	80012d0 <I2C_GetFlagStatus+0x2c>
  {
    /* I2C_FLAG is set */
    bitstatus = SET;
 80012ca:	2301      	movs	r3, #1
 80012cc:	73fb      	strb	r3, [r7, #15]
 80012ce:	e001      	b.n	80012d4 <I2C_GetFlagStatus+0x30>
  }
  else
  {
    /* I2C_FLAG is reset */
    bitstatus = RESET;
 80012d0:	2300      	movs	r3, #0
 80012d2:	73fb      	strb	r3, [r7, #15]
  }
  return bitstatus;
 80012d4:	7bfb      	ldrb	r3, [r7, #15]
}  
 80012d6:	4618      	mov	r0, r3
 80012d8:	3714      	adds	r7, #20
 80012da:	46bd      	mov	sp, r7
 80012dc:	f85d 7b04 	ldr.w	r7, [sp], #4
 80012e0:	4770      	bx	lr

080012e2 <I2C_ClearFlag>:
  *     @arg I2C_FLAG_TIMEOUT: Timeout or Tlow detection flag
  *     @arg I2C_FLAG_ALERT: SMBus Alert
  * @retval The new state of I2C_FLAG (SET or RESET).
  */
void I2C_ClearFlag(I2C_TypeDef* I2Cx, uint32_t I2C_FLAG)
{ 
 80012e2:	b480      	push	{r7}
 80012e4:	b083      	sub	sp, #12
 80012e6:	af00      	add	r7, sp, #0
 80012e8:	6078      	str	r0, [r7, #4]
 80012ea:	6039      	str	r1, [r7, #0]
  /* Check the parameters */
  assert_param(IS_I2C_ALL_PERIPH(I2Cx));
  assert_param(IS_I2C_CLEAR_FLAG(I2C_FLAG));

  /* Clear the selected flag */
  I2Cx->ICR = I2C_FLAG;
 80012ec:	687b      	ldr	r3, [r7, #4]
 80012ee:	683a      	ldr	r2, [r7, #0]
 80012f0:	61da      	str	r2, [r3, #28]
  }
 80012f2:	bf00      	nop
 80012f4:	370c      	adds	r7, #12
 80012f6:	46bd      	mov	sp, r7
 80012f8:	f85d 7b04 	ldr.w	r7, [sp], #4
 80012fc:	4770      	bx	lr
	...

08001300 <RCC_GetClocksFreq>:
  *           configuration based on this function will be incorrect.
  *    
  * @retval None
  */
void RCC_GetClocksFreq(RCC_ClocksTypeDef* RCC_Clocks)
{
 8001300:	b480      	push	{r7}
 8001302:	b08b      	sub	sp, #44	; 0x2c
 8001304:	af00      	add	r7, sp, #0
 8001306:	6078      	str	r0, [r7, #4]
  uint32_t tmp = 0, pllmull = 0, pllsource = 0, prediv1factor = 0, presc = 0, pllclk = 0;
 8001308:	2300      	movs	r3, #0
 800130a:	623b      	str	r3, [r7, #32]
 800130c:	2300      	movs	r3, #0
 800130e:	61fb      	str	r3, [r7, #28]
 8001310:	2300      	movs	r3, #0
 8001312:	61bb      	str	r3, [r7, #24]
 8001314:	2300      	movs	r3, #0
 8001316:	617b      	str	r3, [r7, #20]
 8001318:	2300      	movs	r3, #0
 800131a:	613b      	str	r3, [r7, #16]
 800131c:	2300      	movs	r3, #0
 800131e:	627b      	str	r3, [r7, #36]	; 0x24
  uint32_t apb2presc = 0, ahbpresc = 0;
 8001320:	2300      	movs	r3, #0
 8001322:	60fb      	str	r3, [r7, #12]
 8001324:	2300      	movs	r3, #0
 8001326:	60bb      	str	r3, [r7, #8]
  
  /* Get SYSCLK source -------------------------------------------------------*/
  tmp = RCC->CFGR & RCC_CFGR_SWS;
 8001328:	4b91      	ldr	r3, [pc, #580]	; (8001570 <RCC_GetClocksFreq+0x270>)
 800132a:	685b      	ldr	r3, [r3, #4]
 800132c:	f003 030c 	and.w	r3, r3, #12
 8001330:	623b      	str	r3, [r7, #32]
  
  switch (tmp)
 8001332:	6a3b      	ldr	r3, [r7, #32]
 8001334:	2b08      	cmp	r3, #8
 8001336:	d011      	beq.n	800135c <RCC_GetClocksFreq+0x5c>
 8001338:	6a3b      	ldr	r3, [r7, #32]
 800133a:	2b08      	cmp	r3, #8
 800133c:	d837      	bhi.n	80013ae <RCC_GetClocksFreq+0xae>
 800133e:	6a3b      	ldr	r3, [r7, #32]
 8001340:	2b00      	cmp	r3, #0
 8001342:	d003      	beq.n	800134c <RCC_GetClocksFreq+0x4c>
 8001344:	6a3b      	ldr	r3, [r7, #32]
 8001346:	2b04      	cmp	r3, #4
 8001348:	d004      	beq.n	8001354 <RCC_GetClocksFreq+0x54>
 800134a:	e030      	b.n	80013ae <RCC_GetClocksFreq+0xae>
  {
    case 0x00:  /* HSI used as system clock */
      RCC_Clocks->SYSCLK_Frequency = HSI_VALUE;
 800134c:	687b      	ldr	r3, [r7, #4]
 800134e:	4a89      	ldr	r2, [pc, #548]	; (8001574 <RCC_GetClocksFreq+0x274>)
 8001350:	601a      	str	r2, [r3, #0]
      break;
 8001352:	e030      	b.n	80013b6 <RCC_GetClocksFreq+0xb6>
    case 0x04:  /* HSE used as system clock */
      RCC_Clocks->SYSCLK_Frequency = HSE_VALUE;
 8001354:	687b      	ldr	r3, [r7, #4]
 8001356:	4a87      	ldr	r2, [pc, #540]	; (8001574 <RCC_GetClocksFreq+0x274>)
 8001358:	601a      	str	r2, [r3, #0]
      break;
 800135a:	e02c      	b.n	80013b6 <RCC_GetClocksFreq+0xb6>
    case 0x08:  /* PLL used as system clock */
      /* Get PLL clock source and multiplication factor ----------------------*/
      pllmull = RCC->CFGR & RCC_CFGR_PLLMULL;
 800135c:	4b84      	ldr	r3, [pc, #528]	; (8001570 <RCC_GetClocksFreq+0x270>)
 800135e:	685b      	ldr	r3, [r3, #4]
 8001360:	f403 1370 	and.w	r3, r3, #3932160	; 0x3c0000
 8001364:	61fb      	str	r3, [r7, #28]
      pllsource = RCC->CFGR & RCC_CFGR_PLLSRC;
 8001366:	4b82      	ldr	r3, [pc, #520]	; (8001570 <RCC_GetClocksFreq+0x270>)
 8001368:	685b      	ldr	r3, [r3, #4]
 800136a:	f403 3380 	and.w	r3, r3, #65536	; 0x10000
 800136e:	61bb      	str	r3, [r7, #24]
      pllmull = ( pllmull >> 18) + 2;
 8001370:	69fb      	ldr	r3, [r7, #28]
 8001372:	0c9b      	lsrs	r3, r3, #18
 8001374:	3302      	adds	r3, #2
 8001376:	61fb      	str	r3, [r7, #28]
      
      if (pllsource == 0x00)
 8001378:	69bb      	ldr	r3, [r7, #24]
 800137a:	2b00      	cmp	r3, #0
 800137c:	d105      	bne.n	800138a <RCC_GetClocksFreq+0x8a>
      {
        /* HSI oscillator clock divided by 2 selected as PLL clock entry */
        pllclk = (HSI_VALUE >> 1) * pllmull;
 800137e:	69fb      	ldr	r3, [r7, #28]
 8001380:	4a7d      	ldr	r2, [pc, #500]	; (8001578 <RCC_GetClocksFreq+0x278>)
 8001382:	fb02 f303 	mul.w	r3, r2, r3
 8001386:	627b      	str	r3, [r7, #36]	; 0x24
 8001388:	e00d      	b.n	80013a6 <RCC_GetClocksFreq+0xa6>
      }
      else
      {
        prediv1factor = (RCC->CFGR2 & RCC_CFGR2_PREDIV1) + 1;
 800138a:	4b79      	ldr	r3, [pc, #484]	; (8001570 <RCC_GetClocksFreq+0x270>)
 800138c:	6adb      	ldr	r3, [r3, #44]	; 0x2c
 800138e:	f003 030f 	and.w	r3, r3, #15
 8001392:	3301      	adds	r3, #1
 8001394:	617b      	str	r3, [r7, #20]
        /* HSE oscillator clock selected as PREDIV1 clock entry */
        pllclk = (HSE_VALUE / prediv1factor) * pllmull; 
 8001396:	4a77      	ldr	r2, [pc, #476]	; (8001574 <RCC_GetClocksFreq+0x274>)
 8001398:	697b      	ldr	r3, [r7, #20]
 800139a:	fbb2 f2f3 	udiv	r2, r2, r3
 800139e:	69fb      	ldr	r3, [r7, #28]
 80013a0:	fb02 f303 	mul.w	r3, r2, r3
 80013a4:	627b      	str	r3, [r7, #36]	; 0x24
      }
      RCC_Clocks->SYSCLK_Frequency = pllclk;      
 80013a6:	687b      	ldr	r3, [r7, #4]
 80013a8:	6a7a      	ldr	r2, [r7, #36]	; 0x24
 80013aa:	601a      	str	r2, [r3, #0]
      break;
 80013ac:	e003      	b.n	80013b6 <RCC_GetClocksFreq+0xb6>
    default: /* HSI used as system clock */
      RCC_Clocks->SYSCLK_Frequency = HSI_VALUE;
 80013ae:	687b      	ldr	r3, [r7, #4]
 80013b0:	4a70      	ldr	r2, [pc, #448]	; (8001574 <RCC_GetClocksFreq+0x274>)
 80013b2:	601a      	str	r2, [r3, #0]
      break;
 80013b4:	bf00      	nop
  }
    /* Compute HCLK, PCLK clocks frequencies -----------------------------------*/
  /* Get HCLK prescaler */
  tmp = RCC->CFGR & RCC_CFGR_HPRE;
 80013b6:	4b6e      	ldr	r3, [pc, #440]	; (8001570 <RCC_GetClocksFreq+0x270>)
 80013b8:	685b      	ldr	r3, [r3, #4]
 80013ba:	f003 03f0 	and.w	r3, r3, #240	; 0xf0
 80013be:	623b      	str	r3, [r7, #32]
  tmp = tmp >> 4;
 80013c0:	6a3b      	ldr	r3, [r7, #32]
 80013c2:	091b      	lsrs	r3, r3, #4
 80013c4:	623b      	str	r3, [r7, #32]
  ahbpresc = APBAHBPrescTable[tmp]; 
 80013c6:	4a6d      	ldr	r2, [pc, #436]	; (800157c <RCC_GetClocksFreq+0x27c>)
 80013c8:	6a3b      	ldr	r3, [r7, #32]
 80013ca:	4413      	add	r3, r2
 80013cc:	781b      	ldrb	r3, [r3, #0]
 80013ce:	b2db      	uxtb	r3, r3
 80013d0:	60bb      	str	r3, [r7, #8]
  /* HCLK clock frequency */
  RCC_Clocks->HCLK_Frequency = RCC_Clocks->SYSCLK_Frequency >> ahbpresc;
 80013d2:	687b      	ldr	r3, [r7, #4]
 80013d4:	681a      	ldr	r2, [r3, #0]
 80013d6:	68bb      	ldr	r3, [r7, #8]
 80013d8:	40da      	lsrs	r2, r3
 80013da:	687b      	ldr	r3, [r7, #4]
 80013dc:	605a      	str	r2, [r3, #4]

  /* Get PCLK1 prescaler */
  tmp = RCC->CFGR & RCC_CFGR_PPRE1;
 80013de:	4b64      	ldr	r3, [pc, #400]	; (8001570 <RCC_GetClocksFreq+0x270>)
 80013e0:	685b      	ldr	r3, [r3, #4]
 80013e2:	f403 63e0 	and.w	r3, r3, #1792	; 0x700
 80013e6:	623b      	str	r3, [r7, #32]
  tmp = tmp >> 8;
 80013e8:	6a3b      	ldr	r3, [r7, #32]
 80013ea:	0a1b      	lsrs	r3, r3, #8
 80013ec:	623b      	str	r3, [r7, #32]
  presc = APBAHBPrescTable[tmp];
 80013ee:	4a63      	ldr	r2, [pc, #396]	; (800157c <RCC_GetClocksFreq+0x27c>)
 80013f0:	6a3b      	ldr	r3, [r7, #32]
 80013f2:	4413      	add	r3, r2
 80013f4:	781b      	ldrb	r3, [r3, #0]
 80013f6:	b2db      	uxtb	r3, r3
 80013f8:	613b      	str	r3, [r7, #16]
  /* PCLK1 clock frequency */
  RCC_Clocks->PCLK1_Frequency = RCC_Clocks->HCLK_Frequency >> presc;
 80013fa:	687b      	ldr	r3, [r7, #4]
 80013fc:	685a      	ldr	r2, [r3, #4]
 80013fe:	693b      	ldr	r3, [r7, #16]
 8001400:	40da      	lsrs	r2, r3
 8001402:	687b      	ldr	r3, [r7, #4]
 8001404:	609a      	str	r2, [r3, #8]
  
  /* Get PCLK2 prescaler */
  tmp = RCC->CFGR & RCC_CFGR_PPRE2;
 8001406:	4b5a      	ldr	r3, [pc, #360]	; (8001570 <RCC_GetClocksFreq+0x270>)
 8001408:	685b      	ldr	r3, [r3, #4]
 800140a:	f403 5360 	and.w	r3, r3, #14336	; 0x3800
 800140e:	623b      	str	r3, [r7, #32]
  tmp = tmp >> 11;
 8001410:	6a3b      	ldr	r3, [r7, #32]
 8001412:	0adb      	lsrs	r3, r3, #11
 8001414:	623b      	str	r3, [r7, #32]
  apb2presc = APBAHBPrescTable[tmp];
 8001416:	4a59      	ldr	r2, [pc, #356]	; (800157c <RCC_GetClocksFreq+0x27c>)
 8001418:	6a3b      	ldr	r3, [r7, #32]
 800141a:	4413      	add	r3, r2
 800141c:	781b      	ldrb	r3, [r3, #0]
 800141e:	b2db      	uxtb	r3, r3
 8001420:	60fb      	str	r3, [r7, #12]
  /* PCLK2 clock frequency */
  RCC_Clocks->PCLK2_Frequency = RCC_Clocks->HCLK_Frequency >> apb2presc;
 8001422:	687b      	ldr	r3, [r7, #4]
 8001424:	685a      	ldr	r2, [r3, #4]
 8001426:	68fb      	ldr	r3, [r7, #12]
 8001428:	40da      	lsrs	r2, r3
 800142a:	687b      	ldr	r3, [r7, #4]
 800142c:	60da      	str	r2, [r3, #12]
  
  /* Get ADC12CLK prescaler */
  tmp = RCC->CFGR2 & RCC_CFGR2_ADCPRE12;
 800142e:	4b50      	ldr	r3, [pc, #320]	; (8001570 <RCC_GetClocksFreq+0x270>)
 8001430:	6adb      	ldr	r3, [r3, #44]	; 0x2c
 8001432:	f403 73f8 	and.w	r3, r3, #496	; 0x1f0
 8001436:	623b      	str	r3, [r7, #32]
  tmp = tmp >> 4;
 8001438:	6a3b      	ldr	r3, [r7, #32]
 800143a:	091b      	lsrs	r3, r3, #4
 800143c:	623b      	str	r3, [r7, #32]
  presc = ADCPrescTable[tmp];
 800143e:	4a50      	ldr	r2, [pc, #320]	; (8001580 <RCC_GetClocksFreq+0x280>)
 8001440:	6a3b      	ldr	r3, [r7, #32]
 8001442:	f832 3013 	ldrh.w	r3, [r2, r3, lsl #1]
 8001446:	b29b      	uxth	r3, r3
 8001448:	613b      	str	r3, [r7, #16]
  if ((presc & 0x10) != 0)
 800144a:	693b      	ldr	r3, [r7, #16]
 800144c:	f003 0310 	and.w	r3, r3, #16
 8001450:	2b00      	cmp	r3, #0
 8001452:	d006      	beq.n	8001462 <RCC_GetClocksFreq+0x162>
  {
     /* ADC12CLK clock frequency is derived from PLL clock */
     RCC_Clocks->ADC12CLK_Frequency = pllclk / presc;
 8001454:	6a7a      	ldr	r2, [r7, #36]	; 0x24
 8001456:	693b      	ldr	r3, [r7, #16]
 8001458:	fbb2 f2f3 	udiv	r2, r2, r3
 800145c:	687b      	ldr	r3, [r7, #4]
 800145e:	611a      	str	r2, [r3, #16]
 8001460:	e003      	b.n	800146a <RCC_GetClocksFreq+0x16a>
  }
  else
  {
   /* ADC12CLK clock frequency is AHB clock */
     RCC_Clocks->ADC12CLK_Frequency = RCC_Clocks->SYSCLK_Frequency;
 8001462:	687b      	ldr	r3, [r7, #4]
 8001464:	681a      	ldr	r2, [r3, #0]
 8001466:	687b      	ldr	r3, [r7, #4]
 8001468:	611a      	str	r2, [r3, #16]
  }
  
  /* Get ADC34CLK prescaler */
  tmp = RCC->CFGR2 & RCC_CFGR2_ADCPRE34;
 800146a:	4b41      	ldr	r3, [pc, #260]	; (8001570 <RCC_GetClocksFreq+0x270>)
 800146c:	6adb      	ldr	r3, [r3, #44]	; 0x2c
 800146e:	f403 5378 	and.w	r3, r3, #15872	; 0x3e00
 8001472:	623b      	str	r3, [r7, #32]
  tmp = tmp >> 9;
 8001474:	6a3b      	ldr	r3, [r7, #32]
 8001476:	0a5b      	lsrs	r3, r3, #9
 8001478:	623b      	str	r3, [r7, #32]
  presc = ADCPrescTable[tmp];
 800147a:	4a41      	ldr	r2, [pc, #260]	; (8001580 <RCC_GetClocksFreq+0x280>)
 800147c:	6a3b      	ldr	r3, [r7, #32]
 800147e:	f832 3013 	ldrh.w	r3, [r2, r3, lsl #1]
 8001482:	b29b      	uxth	r3, r3
 8001484:	613b      	str	r3, [r7, #16]
  if ((presc & 0x10) != 0)
 8001486:	693b      	ldr	r3, [r7, #16]
 8001488:	f003 0310 	and.w	r3, r3, #16
 800148c:	2b00      	cmp	r3, #0
 800148e:	d006      	beq.n	800149e <RCC_GetClocksFreq+0x19e>
  {
     /* ADC34CLK clock frequency is derived from PLL clock */
     RCC_Clocks->ADC34CLK_Frequency = pllclk / presc;
 8001490:	6a7a      	ldr	r2, [r7, #36]	; 0x24
 8001492:	693b      	ldr	r3, [r7, #16]
 8001494:	fbb2 f2f3 	udiv	r2, r2, r3
 8001498:	687b      	ldr	r3, [r7, #4]
 800149a:	615a      	str	r2, [r3, #20]
 800149c:	e003      	b.n	80014a6 <RCC_GetClocksFreq+0x1a6>
  }
  else
  {
   /* ADC34CLK clock frequency is AHB clock */
     RCC_Clocks->ADC34CLK_Frequency = RCC_Clocks->SYSCLK_Frequency;
 800149e:	687b      	ldr	r3, [r7, #4]
 80014a0:	681a      	ldr	r2, [r3, #0]
 80014a2:	687b      	ldr	r3, [r7, #4]
 80014a4:	615a      	str	r2, [r3, #20]
  }

  /* I2C1CLK clock frequency */
  if((RCC->CFGR3 & RCC_CFGR3_I2C1SW) != RCC_CFGR3_I2C1SW)
 80014a6:	4b32      	ldr	r3, [pc, #200]	; (8001570 <RCC_GetClocksFreq+0x270>)
 80014a8:	6b1b      	ldr	r3, [r3, #48]	; 0x30
 80014aa:	f003 0310 	and.w	r3, r3, #16
 80014ae:	2b10      	cmp	r3, #16
 80014b0:	d003      	beq.n	80014ba <RCC_GetClocksFreq+0x1ba>
  {
    /* I2C1 Clock is HSI Osc. */
    RCC_Clocks->I2C1CLK_Frequency = HSI_VALUE;
 80014b2:	687b      	ldr	r3, [r7, #4]
 80014b4:	4a2f      	ldr	r2, [pc, #188]	; (8001574 <RCC_GetClocksFreq+0x274>)
 80014b6:	619a      	str	r2, [r3, #24]
 80014b8:	e003      	b.n	80014c2 <RCC_GetClocksFreq+0x1c2>
  }
  else
  {
    /* I2C1 Clock is System Clock */
    RCC_Clocks->I2C1CLK_Frequency = RCC_Clocks->SYSCLK_Frequency;
 80014ba:	687b      	ldr	r3, [r7, #4]
 80014bc:	681a      	ldr	r2, [r3, #0]
 80014be:	687b      	ldr	r3, [r7, #4]
 80014c0:	619a      	str	r2, [r3, #24]
  }

  /* I2C2CLK clock frequency */
  if((RCC->CFGR3 & RCC_CFGR3_I2C2SW) != RCC_CFGR3_I2C2SW)
 80014c2:	4b2b      	ldr	r3, [pc, #172]	; (8001570 <RCC_GetClocksFreq+0x270>)
 80014c4:	6b1b      	ldr	r3, [r3, #48]	; 0x30
 80014c6:	f003 0320 	and.w	r3, r3, #32
 80014ca:	2b20      	cmp	r3, #32
 80014cc:	d003      	beq.n	80014d6 <RCC_GetClocksFreq+0x1d6>
  {
    /* I2C2 Clock is HSI Osc. */
    RCC_Clocks->I2C2CLK_Frequency = HSI_VALUE;
 80014ce:	687b      	ldr	r3, [r7, #4]
 80014d0:	4a28      	ldr	r2, [pc, #160]	; (8001574 <RCC_GetClocksFreq+0x274>)
 80014d2:	61da      	str	r2, [r3, #28]
 80014d4:	e003      	b.n	80014de <RCC_GetClocksFreq+0x1de>
  }
  else
  {
    /* I2C2 Clock is System Clock */
    RCC_Clocks->I2C2CLK_Frequency = RCC_Clocks->SYSCLK_Frequency;
 80014d6:	687b      	ldr	r3, [r7, #4]
 80014d8:	681a      	ldr	r2, [r3, #0]
 80014da:	687b      	ldr	r3, [r7, #4]
 80014dc:	61da      	str	r2, [r3, #28]
  }
  
    /* TIM1CLK clock frequency */
  if(((RCC->CFGR3 & RCC_CFGR3_TIM1SW) == RCC_CFGR3_TIM1SW)&& (RCC_Clocks->SYSCLK_Frequency == pllclk) \
 80014de:	4b24      	ldr	r3, [pc, #144]	; (8001570 <RCC_GetClocksFreq+0x270>)
 80014e0:	6b1b      	ldr	r3, [r3, #48]	; 0x30
 80014e2:	f403 7380 	and.w	r3, r3, #256	; 0x100
 80014e6:	f5b3 7f80 	cmp.w	r3, #256	; 0x100
 80014ea:	d10d      	bne.n	8001508 <RCC_GetClocksFreq+0x208>
 80014ec:	687b      	ldr	r3, [r7, #4]
 80014ee:	681b      	ldr	r3, [r3, #0]
 80014f0:	6a7a      	ldr	r2, [r7, #36]	; 0x24
 80014f2:	429a      	cmp	r2, r3
 80014f4:	d108      	bne.n	8001508 <RCC_GetClocksFreq+0x208>
  && (apb2presc == ahbpresc)) 
 80014f6:	68fa      	ldr	r2, [r7, #12]
 80014f8:	68bb      	ldr	r3, [r7, #8]
 80014fa:	429a      	cmp	r2, r3
 80014fc:	d104      	bne.n	8001508 <RCC_GetClocksFreq+0x208>
  {
    /* TIM1 Clock is 2 * pllclk */
    RCC_Clocks->TIM1CLK_Frequency = pllclk * 2;
 80014fe:	6a7b      	ldr	r3, [r7, #36]	; 0x24
 8001500:	005a      	lsls	r2, r3, #1
 8001502:	687b      	ldr	r3, [r7, #4]
 8001504:	621a      	str	r2, [r3, #32]
 8001506:	e003      	b.n	8001510 <RCC_GetClocksFreq+0x210>
  }
  else
  {
    /* TIM1 Clock is APB2 clock. */
    RCC_Clocks->TIM1CLK_Frequency = RCC_Clocks->PCLK2_Frequency;
 8001508:	687b      	ldr	r3, [r7, #4]
 800150a:	68da      	ldr	r2, [r3, #12]
 800150c:	687b      	ldr	r3, [r7, #4]
 800150e:	621a      	str	r2, [r3, #32]
  }

    /* TIM8CLK clock frequency */
  if(((RCC->CFGR3 & RCC_CFGR3_TIM8SW) == RCC_CFGR3_TIM8SW)&& (RCC_Clocks->SYSCLK_Frequency == pllclk) \
 8001510:	4b17      	ldr	r3, [pc, #92]	; (8001570 <RCC_GetClocksFreq+0x270>)
 8001512:	6b1b      	ldr	r3, [r3, #48]	; 0x30
 8001514:	f403 7300 	and.w	r3, r3, #512	; 0x200
 8001518:	f5b3 7f00 	cmp.w	r3, #512	; 0x200
 800151c:	d10d      	bne.n	800153a <RCC_GetClocksFreq+0x23a>
 800151e:	687b      	ldr	r3, [r7, #4]
 8001520:	681b      	ldr	r3, [r3, #0]
 8001522:	6a7a      	ldr	r2, [r7, #36]	; 0x24
 8001524:	429a      	cmp	r2, r3
 8001526:	d108      	bne.n	800153a <RCC_GetClocksFreq+0x23a>
  && (apb2presc == ahbpresc))
 8001528:	68fa      	ldr	r2, [r7, #12]
 800152a:	68bb      	ldr	r3, [r7, #8]
 800152c:	429a      	cmp	r2, r3
 800152e:	d104      	bne.n	800153a <RCC_GetClocksFreq+0x23a>
  {
    /* TIM8 Clock is 2 * pllclk */
    RCC_Clocks->TIM8CLK_Frequency = pllclk * 2;
 8001530:	6a7b      	ldr	r3, [r7, #36]	; 0x24
 8001532:	005a      	lsls	r2, r3, #1
 8001534:	687b      	ldr	r3, [r7, #4]
 8001536:	625a      	str	r2, [r3, #36]	; 0x24
 8001538:	e003      	b.n	8001542 <RCC_GetClocksFreq+0x242>
  }
  else
  {
    /* TIM8 Clock is APB2 clock. */
    RCC_Clocks->TIM8CLK_Frequency = RCC_Clocks->PCLK2_Frequency;
 800153a:	687b      	ldr	r3, [r7, #4]
 800153c:	68da      	ldr	r2, [r3, #12]
 800153e:	687b      	ldr	r3, [r7, #4]
 8001540:	625a      	str	r2, [r3, #36]	; 0x24
  }
  
  /* USART1CLK clock frequency */
  if((RCC->CFGR3 & RCC_CFGR3_USART1SW) == 0x0)
 8001542:	4b0b      	ldr	r3, [pc, #44]	; (8001570 <RCC_GetClocksFreq+0x270>)
 8001544:	6b1b      	ldr	r3, [r3, #48]	; 0x30
 8001546:	f003 0303 	and.w	r3, r3, #3
 800154a:	2b00      	cmp	r3, #0
 800154c:	d104      	bne.n	8001558 <RCC_GetClocksFreq+0x258>
  {
    /* USART Clock is PCLK */
    RCC_Clocks->USART1CLK_Frequency = RCC_Clocks->PCLK2_Frequency;
 800154e:	687b      	ldr	r3, [r7, #4]
 8001550:	68da      	ldr	r2, [r3, #12]
 8001552:	687b      	ldr	r3, [r7, #4]
 8001554:	629a      	str	r2, [r3, #40]	; 0x28
 8001556:	e029      	b.n	80015ac <RCC_GetClocksFreq+0x2ac>
  }
  else if((RCC->CFGR3 & RCC_CFGR3_USART1SW) == RCC_CFGR3_USART1SW_0)
 8001558:	4b05      	ldr	r3, [pc, #20]	; (8001570 <RCC_GetClocksFreq+0x270>)
 800155a:	6b1b      	ldr	r3, [r3, #48]	; 0x30
 800155c:	f003 0303 	and.w	r3, r3, #3
 8001560:	2b01      	cmp	r3, #1
 8001562:	d10f      	bne.n	8001584 <RCC_GetClocksFreq+0x284>
  {
    /* USART Clock is System Clock */
    RCC_Clocks->USART1CLK_Frequency = RCC_Clocks->SYSCLK_Frequency;
 8001564:	687b      	ldr	r3, [r7, #4]
 8001566:	681a      	ldr	r2, [r3, #0]
 8001568:	687b      	ldr	r3, [r7, #4]
 800156a:	629a      	str	r2, [r3, #40]	; 0x28
 800156c:	e01e      	b.n	80015ac <RCC_GetClocksFreq+0x2ac>
 800156e:	bf00      	nop
 8001570:	40021000 	.word	0x40021000
 8001574:	007a1200 	.word	0x007a1200
 8001578:	003d0900 	.word	0x003d0900
 800157c:	20000000 	.word	0x20000000
 8001580:	20000010 	.word	0x20000010
  }
  else if((RCC->CFGR3 & RCC_CFGR3_USART1SW) == RCC_CFGR3_USART1SW_1)
 8001584:	4b66      	ldr	r3, [pc, #408]	; (8001720 <RCC_GetClocksFreq+0x420>)
 8001586:	6b1b      	ldr	r3, [r3, #48]	; 0x30
 8001588:	f003 0303 	and.w	r3, r3, #3
 800158c:	2b02      	cmp	r3, #2
 800158e:	d104      	bne.n	800159a <RCC_GetClocksFreq+0x29a>
  {
    /* USART Clock is LSE Osc. */
    RCC_Clocks->USART1CLK_Frequency = LSE_VALUE;
 8001590:	687b      	ldr	r3, [r7, #4]
 8001592:	f44f 4200 	mov.w	r2, #32768	; 0x8000
 8001596:	629a      	str	r2, [r3, #40]	; 0x28
 8001598:	e008      	b.n	80015ac <RCC_GetClocksFreq+0x2ac>
  }
  else if((RCC->CFGR3 & RCC_CFGR3_USART1SW) == RCC_CFGR3_USART1SW)
 800159a:	4b61      	ldr	r3, [pc, #388]	; (8001720 <RCC_GetClocksFreq+0x420>)
 800159c:	6b1b      	ldr	r3, [r3, #48]	; 0x30
 800159e:	f003 0303 	and.w	r3, r3, #3
 80015a2:	2b03      	cmp	r3, #3
 80015a4:	d102      	bne.n	80015ac <RCC_GetClocksFreq+0x2ac>
  {
    /* USART Clock is HSI Osc. */
    RCC_Clocks->USART1CLK_Frequency = HSI_VALUE;
 80015a6:	687b      	ldr	r3, [r7, #4]
 80015a8:	4a5e      	ldr	r2, [pc, #376]	; (8001724 <RCC_GetClocksFreq+0x424>)
 80015aa:	629a      	str	r2, [r3, #40]	; 0x28
  }

  /* USART2CLK clock frequency */
  if((RCC->CFGR3 & RCC_CFGR3_USART2SW) == 0x0)
 80015ac:	4b5c      	ldr	r3, [pc, #368]	; (8001720 <RCC_GetClocksFreq+0x420>)
 80015ae:	6b1b      	ldr	r3, [r3, #48]	; 0x30
 80015b0:	f403 3340 	and.w	r3, r3, #196608	; 0x30000
 80015b4:	2b00      	cmp	r3, #0
 80015b6:	d104      	bne.n	80015c2 <RCC_GetClocksFreq+0x2c2>
  {
    /* USART Clock is PCLK */
    RCC_Clocks->USART2CLK_Frequency = RCC_Clocks->PCLK1_Frequency;
 80015b8:	687b      	ldr	r3, [r7, #4]
 80015ba:	689a      	ldr	r2, [r3, #8]
 80015bc:	687b      	ldr	r3, [r7, #4]
 80015be:	62da      	str	r2, [r3, #44]	; 0x2c
 80015c0:	e021      	b.n	8001606 <RCC_GetClocksFreq+0x306>
  }
  else if((RCC->CFGR3 & RCC_CFGR3_USART2SW) == RCC_CFGR3_USART2SW_0)
 80015c2:	4b57      	ldr	r3, [pc, #348]	; (8001720 <RCC_GetClocksFreq+0x420>)
 80015c4:	6b1b      	ldr	r3, [r3, #48]	; 0x30
 80015c6:	f403 3340 	and.w	r3, r3, #196608	; 0x30000
 80015ca:	f5b3 3f80 	cmp.w	r3, #65536	; 0x10000
 80015ce:	d104      	bne.n	80015da <RCC_GetClocksFreq+0x2da>
  {
    /* USART Clock is System Clock */
    RCC_Clocks->USART2CLK_Frequency = RCC_Clocks->SYSCLK_Frequency;
 80015d0:	687b      	ldr	r3, [r7, #4]
 80015d2:	681a      	ldr	r2, [r3, #0]
 80015d4:	687b      	ldr	r3, [r7, #4]
 80015d6:	62da      	str	r2, [r3, #44]	; 0x2c
 80015d8:	e015      	b.n	8001606 <RCC_GetClocksFreq+0x306>
  }
  else if((RCC->CFGR3 & RCC_CFGR3_USART2SW) == RCC_CFGR3_USART2SW_1)
 80015da:	4b51      	ldr	r3, [pc, #324]	; (8001720 <RCC_GetClocksFreq+0x420>)
 80015dc:	6b1b      	ldr	r3, [r3, #48]	; 0x30
 80015de:	f403 3340 	and.w	r3, r3, #196608	; 0x30000
 80015e2:	f5b3 3f00 	cmp.w	r3, #131072	; 0x20000
 80015e6:	d104      	bne.n	80015f2 <RCC_GetClocksFreq+0x2f2>
  {
    /* USART Clock is LSE Osc. */
    RCC_Clocks->USART2CLK_Frequency = LSE_VALUE;
 80015e8:	687b      	ldr	r3, [r7, #4]
 80015ea:	f44f 4200 	mov.w	r2, #32768	; 0x8000
 80015ee:	62da      	str	r2, [r3, #44]	; 0x2c
 80015f0:	e009      	b.n	8001606 <RCC_GetClocksFreq+0x306>
  }
  else if((RCC->CFGR3 & RCC_CFGR3_USART2SW) == RCC_CFGR3_USART2SW)
 80015f2:	4b4b      	ldr	r3, [pc, #300]	; (8001720 <RCC_GetClocksFreq+0x420>)
 80015f4:	6b1b      	ldr	r3, [r3, #48]	; 0x30
 80015f6:	f403 3340 	and.w	r3, r3, #196608	; 0x30000
 80015fa:	f5b3 3f40 	cmp.w	r3, #196608	; 0x30000
 80015fe:	d102      	bne.n	8001606 <RCC_GetClocksFreq+0x306>
  {
    /* USART Clock is HSI Osc. */
    RCC_Clocks->USART2CLK_Frequency = HSI_VALUE;
 8001600:	687b      	ldr	r3, [r7, #4]
 8001602:	4a48      	ldr	r2, [pc, #288]	; (8001724 <RCC_GetClocksFreq+0x424>)
 8001604:	62da      	str	r2, [r3, #44]	; 0x2c
  }    

  /* USART3CLK clock frequency */
  if((RCC->CFGR3 & RCC_CFGR3_USART3SW) == 0x0)
 8001606:	4b46      	ldr	r3, [pc, #280]	; (8001720 <RCC_GetClocksFreq+0x420>)
 8001608:	6b1b      	ldr	r3, [r3, #48]	; 0x30
 800160a:	f403 2340 	and.w	r3, r3, #786432	; 0xc0000
 800160e:	2b00      	cmp	r3, #0
 8001610:	d104      	bne.n	800161c <RCC_GetClocksFreq+0x31c>
  {
    /* USART Clock is PCLK */
    RCC_Clocks->USART3CLK_Frequency = RCC_Clocks->PCLK1_Frequency;
 8001612:	687b      	ldr	r3, [r7, #4]
 8001614:	689a      	ldr	r2, [r3, #8]
 8001616:	687b      	ldr	r3, [r7, #4]
 8001618:	631a      	str	r2, [r3, #48]	; 0x30
 800161a:	e021      	b.n	8001660 <RCC_GetClocksFreq+0x360>
  }
  else if((RCC->CFGR3 & RCC_CFGR3_USART3SW) == RCC_CFGR3_USART3SW_0)
 800161c:	4b40      	ldr	r3, [pc, #256]	; (8001720 <RCC_GetClocksFreq+0x420>)
 800161e:	6b1b      	ldr	r3, [r3, #48]	; 0x30
 8001620:	f403 2340 	and.w	r3, r3, #786432	; 0xc0000
 8001624:	f5b3 2f80 	cmp.w	r3, #262144	; 0x40000
 8001628:	d104      	bne.n	8001634 <RCC_GetClocksFreq+0x334>
  {
    /* USART Clock is System Clock */
    RCC_Clocks->USART3CLK_Frequency = RCC_Clocks->SYSCLK_Frequency;
 800162a:	687b      	ldr	r3, [r7, #4]
 800162c:	681a      	ldr	r2, [r3, #0]
 800162e:	687b      	ldr	r3, [r7, #4]
 8001630:	631a      	str	r2, [r3, #48]	; 0x30
 8001632:	e015      	b.n	8001660 <RCC_GetClocksFreq+0x360>
  }
  else if((RCC->CFGR3 & RCC_CFGR3_USART3SW) == RCC_CFGR3_USART3SW_1)
 8001634:	4b3a      	ldr	r3, [pc, #232]	; (8001720 <RCC_GetClocksFreq+0x420>)
 8001636:	6b1b      	ldr	r3, [r3, #48]	; 0x30
 8001638:	f403 2340 	and.w	r3, r3, #786432	; 0xc0000
 800163c:	f5b3 2f00 	cmp.w	r3, #524288	; 0x80000
 8001640:	d104      	bne.n	800164c <RCC_GetClocksFreq+0x34c>
  {
    /* USART Clock is LSE Osc. */
    RCC_Clocks->USART3CLK_Frequency = LSE_VALUE;
 8001642:	687b      	ldr	r3, [r7, #4]
 8001644:	f44f 4200 	mov.w	r2, #32768	; 0x8000
 8001648:	631a      	str	r2, [r3, #48]	; 0x30
 800164a:	e009      	b.n	8001660 <RCC_GetClocksFreq+0x360>
  }
  else if((RCC->CFGR3 & RCC_CFGR3_USART3SW) == RCC_CFGR3_USART3SW)
 800164c:	4b34      	ldr	r3, [pc, #208]	; (8001720 <RCC_GetClocksFreq+0x420>)
 800164e:	6b1b      	ldr	r3, [r3, #48]	; 0x30
 8001650:	f403 2340 	and.w	r3, r3, #786432	; 0xc0000
 8001654:	f5b3 2f40 	cmp.w	r3, #786432	; 0xc0000
 8001658:	d102      	bne.n	8001660 <RCC_GetClocksFreq+0x360>
  {
    /* USART Clock is HSI Osc. */
    RCC_Clocks->USART3CLK_Frequency = HSI_VALUE;
 800165a:	687b      	ldr	r3, [r7, #4]
 800165c:	4a31      	ldr	r2, [pc, #196]	; (8001724 <RCC_GetClocksFreq+0x424>)
 800165e:	631a      	str	r2, [r3, #48]	; 0x30
  }
  
    /* UART4CLK clock frequency */
  if((RCC->CFGR3 & RCC_CFGR3_UART4SW) == 0x0)
 8001660:	4b2f      	ldr	r3, [pc, #188]	; (8001720 <RCC_GetClocksFreq+0x420>)
 8001662:	6b1b      	ldr	r3, [r3, #48]	; 0x30
 8001664:	f403 1340 	and.w	r3, r3, #3145728	; 0x300000
 8001668:	2b00      	cmp	r3, #0
 800166a:	d104      	bne.n	8001676 <RCC_GetClocksFreq+0x376>
  {
    /* USART Clock is PCLK */
    RCC_Clocks->UART4CLK_Frequency = RCC_Clocks->PCLK1_Frequency;
 800166c:	687b      	ldr	r3, [r7, #4]
 800166e:	689a      	ldr	r2, [r3, #8]
 8001670:	687b      	ldr	r3, [r7, #4]
 8001672:	635a      	str	r2, [r3, #52]	; 0x34
 8001674:	e021      	b.n	80016ba <RCC_GetClocksFreq+0x3ba>
  }
  else if((RCC->CFGR3 & RCC_CFGR3_UART4SW) == RCC_CFGR3_UART4SW_0)
 8001676:	4b2a      	ldr	r3, [pc, #168]	; (8001720 <RCC_GetClocksFreq+0x420>)
 8001678:	6b1b      	ldr	r3, [r3, #48]	; 0x30
 800167a:	f403 1340 	and.w	r3, r3, #3145728	; 0x300000
 800167e:	f5b3 1f80 	cmp.w	r3, #1048576	; 0x100000
 8001682:	d104      	bne.n	800168e <RCC_GetClocksFreq+0x38e>
  {
    /* USART Clock is System Clock */
    RCC_Clocks->UART4CLK_Frequency = RCC_Clocks->SYSCLK_Frequency;
 8001684:	687b      	ldr	r3, [r7, #4]
 8001686:	681a      	ldr	r2, [r3, #0]
 8001688:	687b      	ldr	r3, [r7, #4]
 800168a:	635a      	str	r2, [r3, #52]	; 0x34
 800168c:	e015      	b.n	80016ba <RCC_GetClocksFreq+0x3ba>
  }
  else if((RCC->CFGR3 & RCC_CFGR3_UART4SW) == RCC_CFGR3_UART4SW_1)
 800168e:	4b24      	ldr	r3, [pc, #144]	; (8001720 <RCC_GetClocksFreq+0x420>)
 8001690:	6b1b      	ldr	r3, [r3, #48]	; 0x30
 8001692:	f403 1340 	and.w	r3, r3, #3145728	; 0x300000
 8001696:	f5b3 1f00 	cmp.w	r3, #2097152	; 0x200000
 800169a:	d104      	bne.n	80016a6 <RCC_GetClocksFreq+0x3a6>
  {
    /* USART Clock is LSE Osc. */
    RCC_Clocks->UART4CLK_Frequency = LSE_VALUE;
 800169c:	687b      	ldr	r3, [r7, #4]
 800169e:	f44f 4200 	mov.w	r2, #32768	; 0x8000
 80016a2:	635a      	str	r2, [r3, #52]	; 0x34
 80016a4:	e009      	b.n	80016ba <RCC_GetClocksFreq+0x3ba>
  }
  else if((RCC->CFGR3 & RCC_CFGR3_UART4SW) == RCC_CFGR3_UART4SW)
 80016a6:	4b1e      	ldr	r3, [pc, #120]	; (8001720 <RCC_GetClocksFreq+0x420>)
 80016a8:	6b1b      	ldr	r3, [r3, #48]	; 0x30
 80016aa:	f403 1340 	and.w	r3, r3, #3145728	; 0x300000
 80016ae:	f5b3 1f40 	cmp.w	r3, #3145728	; 0x300000
 80016b2:	d102      	bne.n	80016ba <RCC_GetClocksFreq+0x3ba>
  {
    /* USART Clock is HSI Osc. */
    RCC_Clocks->UART4CLK_Frequency = HSI_VALUE;
 80016b4:	687b      	ldr	r3, [r7, #4]
 80016b6:	4a1b      	ldr	r2, [pc, #108]	; (8001724 <RCC_GetClocksFreq+0x424>)
 80016b8:	635a      	str	r2, [r3, #52]	; 0x34
  }   
  
  /* UART5CLK clock frequency */
  if((RCC->CFGR3 & RCC_CFGR3_UART5SW) == 0x0)
 80016ba:	4b19      	ldr	r3, [pc, #100]	; (8001720 <RCC_GetClocksFreq+0x420>)
 80016bc:	6b1b      	ldr	r3, [r3, #48]	; 0x30
 80016be:	f403 0340 	and.w	r3, r3, #12582912	; 0xc00000
 80016c2:	2b00      	cmp	r3, #0
 80016c4:	d104      	bne.n	80016d0 <RCC_GetClocksFreq+0x3d0>
  {
    /* USART Clock is PCLK */
    RCC_Clocks->UART5CLK_Frequency = RCC_Clocks->PCLK1_Frequency;
 80016c6:	687b      	ldr	r3, [r7, #4]
 80016c8:	689a      	ldr	r2, [r3, #8]
 80016ca:	687b      	ldr	r3, [r7, #4]
 80016cc:	639a      	str	r2, [r3, #56]	; 0x38
  else if((RCC->CFGR3 & RCC_CFGR3_UART5SW) == RCC_CFGR3_UART5SW)
  {
    /* USART Clock is HSI Osc. */
    RCC_Clocks->UART5CLK_Frequency = HSI_VALUE;
  } 
}
 80016ce:	e021      	b.n	8001714 <RCC_GetClocksFreq+0x414>
  else if((RCC->CFGR3 & RCC_CFGR3_UART5SW) == RCC_CFGR3_UART5SW_0)
 80016d0:	4b13      	ldr	r3, [pc, #76]	; (8001720 <RCC_GetClocksFreq+0x420>)
 80016d2:	6b1b      	ldr	r3, [r3, #48]	; 0x30
 80016d4:	f403 0340 	and.w	r3, r3, #12582912	; 0xc00000
 80016d8:	f5b3 0f80 	cmp.w	r3, #4194304	; 0x400000
 80016dc:	d104      	bne.n	80016e8 <RCC_GetClocksFreq+0x3e8>
    RCC_Clocks->UART5CLK_Frequency = RCC_Clocks->SYSCLK_Frequency;
 80016de:	687b      	ldr	r3, [r7, #4]
 80016e0:	681a      	ldr	r2, [r3, #0]
 80016e2:	687b      	ldr	r3, [r7, #4]
 80016e4:	639a      	str	r2, [r3, #56]	; 0x38
}
 80016e6:	e015      	b.n	8001714 <RCC_GetClocksFreq+0x414>
  else if((RCC->CFGR3 & RCC_CFGR3_UART5SW) == RCC_CFGR3_UART5SW_1)
 80016e8:	4b0d      	ldr	r3, [pc, #52]	; (8001720 <RCC_GetClocksFreq+0x420>)
 80016ea:	6b1b      	ldr	r3, [r3, #48]	; 0x30
 80016ec:	f403 0340 	and.w	r3, r3, #12582912	; 0xc00000
 80016f0:	f5b3 0f00 	cmp.w	r3, #8388608	; 0x800000
 80016f4:	d104      	bne.n	8001700 <RCC_GetClocksFreq+0x400>
    RCC_Clocks->UART5CLK_Frequency = LSE_VALUE;
 80016f6:	687b      	ldr	r3, [r7, #4]
 80016f8:	f44f 4200 	mov.w	r2, #32768	; 0x8000
 80016fc:	639a      	str	r2, [r3, #56]	; 0x38
}
 80016fe:	e009      	b.n	8001714 <RCC_GetClocksFreq+0x414>
  else if((RCC->CFGR3 & RCC_CFGR3_UART5SW) == RCC_CFGR3_UART5SW)
 8001700:	4b07      	ldr	r3, [pc, #28]	; (8001720 <RCC_GetClocksFreq+0x420>)
 8001702:	6b1b      	ldr	r3, [r3, #48]	; 0x30
 8001704:	f403 0340 	and.w	r3, r3, #12582912	; 0xc00000
 8001708:	f5b3 0f40 	cmp.w	r3, #12582912	; 0xc00000
 800170c:	d102      	bne.n	8001714 <RCC_GetClocksFreq+0x414>
    RCC_Clocks->UART5CLK_Frequency = HSI_VALUE;
 800170e:	687b      	ldr	r3, [r7, #4]
 8001710:	4a04      	ldr	r2, [pc, #16]	; (8001724 <RCC_GetClocksFreq+0x424>)
 8001712:	639a      	str	r2, [r3, #56]	; 0x38
}
 8001714:	bf00      	nop
 8001716:	372c      	adds	r7, #44	; 0x2c
 8001718:	46bd      	mov	sp, r7
 800171a:	f85d 7b04 	ldr.w	r7, [sp], #4
 800171e:	4770      	bx	lr
 8001720:	40021000 	.word	0x40021000
 8001724:	007a1200 	.word	0x007a1200

08001728 <USART_SendData>:
  *         following values: USART1 or USART2 or USART3 or UART4 or UART5.
  * @param  Data: the data to transmit.
  * @retval None
  */
void USART_SendData(USART_TypeDef* USARTx, uint16_t Data)
{
 8001728:	b480      	push	{r7}
 800172a:	b083      	sub	sp, #12
 800172c:	af00      	add	r7, sp, #0
 800172e:	6078      	str	r0, [r7, #4]
 8001730:	460b      	mov	r3, r1
 8001732:	807b      	strh	r3, [r7, #2]
  /* Check the parameters */
  assert_param(IS_USART_ALL_PERIPH(USARTx));
  assert_param(IS_USART_DATA(Data)); 

  /* Transmit Data */
  USARTx->TDR = (Data & (uint16_t)0x01FF);
 8001734:	887b      	ldrh	r3, [r7, #2]
 8001736:	f3c3 0308 	ubfx	r3, r3, #0, #9
 800173a:	b29a      	uxth	r2, r3
 800173c:	687b      	ldr	r3, [r7, #4]
 800173e:	851a      	strh	r2, [r3, #40]	; 0x28
}
 8001740:	bf00      	nop
 8001742:	370c      	adds	r7, #12
 8001744:	46bd      	mov	sp, r7
 8001746:	f85d 7b04 	ldr.w	r7, [sp], #4
 800174a:	4770      	bx	lr

0800174c <USART_ITConfig>:
  * @param  NewState: new state of the specified USARTx interrupts.
  *         This parameter can be: ENABLE or DISABLE.
  * @retval None
  */
void USART_ITConfig(USART_TypeDef* USARTx, uint32_t USART_IT, FunctionalState NewState)
{
 800174c:	b480      	push	{r7}
 800174e:	b089      	sub	sp, #36	; 0x24
 8001750:	af00      	add	r7, sp, #0
 8001752:	60f8      	str	r0, [r7, #12]
 8001754:	60b9      	str	r1, [r7, #8]
 8001756:	4613      	mov	r3, r2
 8001758:	71fb      	strb	r3, [r7, #7]
  uint32_t usartreg = 0, itpos = 0, itmask = 0;
 800175a:	2300      	movs	r3, #0
 800175c:	61bb      	str	r3, [r7, #24]
 800175e:	2300      	movs	r3, #0
 8001760:	617b      	str	r3, [r7, #20]
 8001762:	2300      	movs	r3, #0
 8001764:	613b      	str	r3, [r7, #16]
  uint32_t usartxbase = 0;
 8001766:	2300      	movs	r3, #0
 8001768:	61fb      	str	r3, [r7, #28]
  /* Check the parameters */
  assert_param(IS_USART_ALL_PERIPH(USARTx));
  assert_param(IS_USART_CONFIG_IT(USART_IT));
  assert_param(IS_FUNCTIONAL_STATE(NewState));
  
  usartxbase = (uint32_t)USARTx;
 800176a:	68fb      	ldr	r3, [r7, #12]
 800176c:	61fb      	str	r3, [r7, #28]

  /* Get the USART register index */
  usartreg = (((uint16_t)USART_IT) >> 0x08);
 800176e:	68bb      	ldr	r3, [r7, #8]
 8001770:	b29b      	uxth	r3, r3
 8001772:	0a1b      	lsrs	r3, r3, #8
 8001774:	b29b      	uxth	r3, r3
 8001776:	61bb      	str	r3, [r7, #24]

  /* Get the interrupt position */
  itpos = USART_IT & IT_MASK;
 8001778:	68bb      	ldr	r3, [r7, #8]
 800177a:	b2db      	uxtb	r3, r3
 800177c:	617b      	str	r3, [r7, #20]
  itmask = (((uint32_t)0x01) << itpos);
 800177e:	2201      	movs	r2, #1
 8001780:	697b      	ldr	r3, [r7, #20]
 8001782:	fa02 f303 	lsl.w	r3, r2, r3
 8001786:	613b      	str	r3, [r7, #16]

  if (usartreg == 0x02) /* The IT is in CR2 register */
 8001788:	69bb      	ldr	r3, [r7, #24]
 800178a:	2b02      	cmp	r3, #2
 800178c:	d103      	bne.n	8001796 <USART_ITConfig+0x4a>
  {
    usartxbase += 0x04;
 800178e:	69fb      	ldr	r3, [r7, #28]
 8001790:	3304      	adds	r3, #4
 8001792:	61fb      	str	r3, [r7, #28]
 8001794:	e005      	b.n	80017a2 <USART_ITConfig+0x56>
  }
  else if (usartreg == 0x03) /* The IT is in CR3 register */
 8001796:	69bb      	ldr	r3, [r7, #24]
 8001798:	2b03      	cmp	r3, #3
 800179a:	d102      	bne.n	80017a2 <USART_ITConfig+0x56>
  {
    usartxbase += 0x08;
 800179c:	69fb      	ldr	r3, [r7, #28]
 800179e:	3308      	adds	r3, #8
 80017a0:	61fb      	str	r3, [r7, #28]
  }
  else /* The IT is in CR1 register */
  {
  }
  if (NewState != DISABLE)
 80017a2:	79fb      	ldrb	r3, [r7, #7]
 80017a4:	2b00      	cmp	r3, #0
 80017a6:	d006      	beq.n	80017b6 <USART_ITConfig+0x6a>
  {
    *(__IO uint32_t*)usartxbase  |= itmask;
 80017a8:	69fb      	ldr	r3, [r7, #28]
 80017aa:	6819      	ldr	r1, [r3, #0]
 80017ac:	69fb      	ldr	r3, [r7, #28]
 80017ae:	693a      	ldr	r2, [r7, #16]
 80017b0:	430a      	orrs	r2, r1
 80017b2:	601a      	str	r2, [r3, #0]
  }
  else
  {
    *(__IO uint32_t*)usartxbase &= ~itmask;
  }
}
 80017b4:	e006      	b.n	80017c4 <USART_ITConfig+0x78>
    *(__IO uint32_t*)usartxbase &= ~itmask;
 80017b6:	69fb      	ldr	r3, [r7, #28]
 80017b8:	6819      	ldr	r1, [r3, #0]
 80017ba:	693b      	ldr	r3, [r7, #16]
 80017bc:	43da      	mvns	r2, r3
 80017be:	69fb      	ldr	r3, [r7, #28]
 80017c0:	400a      	ands	r2, r1
 80017c2:	601a      	str	r2, [r3, #0]
}
 80017c4:	bf00      	nop
 80017c6:	3724      	adds	r7, #36	; 0x24
 80017c8:	46bd      	mov	sp, r7
 80017ca:	f85d 7b04 	ldr.w	r7, [sp], #4
 80017ce:	4770      	bx	lr

080017d0 <USART_GetFlagStatus>:
  *         @arg USART_FLAG_FE:  Framing Error flag.
  *         @arg USART_FLAG_PE:  Parity Error flag.
  * @retval The new state of USART_FLAG (SET or RESET).
  */
FlagStatus USART_GetFlagStatus(USART_TypeDef* USARTx, uint32_t USART_FLAG)
{
 80017d0:	b480      	push	{r7}
 80017d2:	b085      	sub	sp, #20
 80017d4:	af00      	add	r7, sp, #0
 80017d6:	6078      	str	r0, [r7, #4]
 80017d8:	6039      	str	r1, [r7, #0]
  FlagStatus bitstatus = RESET;
 80017da:	2300      	movs	r3, #0
 80017dc:	73fb      	strb	r3, [r7, #15]
  /* Check the parameters */
  assert_param(IS_USART_ALL_PERIPH(USARTx));
  assert_param(IS_USART_FLAG(USART_FLAG));
  
  if ((USARTx->ISR & USART_FLAG) != (uint16_t)RESET)
 80017de:	687b      	ldr	r3, [r7, #4]
 80017e0:	69da      	ldr	r2, [r3, #28]
 80017e2:	683b      	ldr	r3, [r7, #0]
 80017e4:	4013      	ands	r3, r2
 80017e6:	2b00      	cmp	r3, #0
 80017e8:	d002      	beq.n	80017f0 <USART_GetFlagStatus+0x20>
  {
    bitstatus = SET;
 80017ea:	2301      	movs	r3, #1
 80017ec:	73fb      	strb	r3, [r7, #15]
 80017ee:	e001      	b.n	80017f4 <USART_GetFlagStatus+0x24>
  }
  else
  {
    bitstatus = RESET;
 80017f0:	2300      	movs	r3, #0
 80017f2:	73fb      	strb	r3, [r7, #15]
  }
  return bitstatus;
 80017f4:	7bfb      	ldrb	r3, [r7, #15]
}
 80017f6:	4618      	mov	r0, r3
 80017f8:	3714      	adds	r7, #20
 80017fa:	46bd      	mov	sp, r7
 80017fc:	f85d 7b04 	ldr.w	r7, [sp], #4
 8001800:	4770      	bx	lr

08001802 <USART_GetITStatus>:
  *         @arg USART_IT_FE:  Framing Error interrupt.
  *         @arg USART_IT_PE:  Parity Error interrupt.
  * @retval The new state of USART_IT (SET or RESET).
  */
ITStatus USART_GetITStatus(USART_TypeDef* USARTx, uint32_t USART_IT)
{
 8001802:	b480      	push	{r7}
 8001804:	b087      	sub	sp, #28
 8001806:	af00      	add	r7, sp, #0
 8001808:	6078      	str	r0, [r7, #4]
 800180a:	6039      	str	r1, [r7, #0]
  uint32_t bitpos = 0, itmask = 0, usartreg = 0;
 800180c:	2300      	movs	r3, #0
 800180e:	60fb      	str	r3, [r7, #12]
 8001810:	2300      	movs	r3, #0
 8001812:	617b      	str	r3, [r7, #20]
 8001814:	2300      	movs	r3, #0
 8001816:	60bb      	str	r3, [r7, #8]
  ITStatus bitstatus = RESET;
 8001818:	2300      	movs	r3, #0
 800181a:	74fb      	strb	r3, [r7, #19]
  /* Check the parameters */
  assert_param(IS_USART_ALL_PERIPH(USARTx));
  assert_param(IS_USART_GET_IT(USART_IT)); 
  
  /* Get the USART register index */
  usartreg = (((uint16_t)USART_IT) >> 0x08);
 800181c:	683b      	ldr	r3, [r7, #0]
 800181e:	b29b      	uxth	r3, r3
 8001820:	0a1b      	lsrs	r3, r3, #8
 8001822:	b29b      	uxth	r3, r3
 8001824:	60bb      	str	r3, [r7, #8]
  /* Get the interrupt position */
  itmask = USART_IT & IT_MASK;
 8001826:	683b      	ldr	r3, [r7, #0]
 8001828:	b2db      	uxtb	r3, r3
 800182a:	617b      	str	r3, [r7, #20]
  itmask = (uint32_t)0x01 << itmask;
 800182c:	2201      	movs	r2, #1
 800182e:	697b      	ldr	r3, [r7, #20]
 8001830:	fa02 f303 	lsl.w	r3, r2, r3
 8001834:	617b      	str	r3, [r7, #20]
  
  if (usartreg == 0x01) /* The IT  is in CR1 register */
 8001836:	68bb      	ldr	r3, [r7, #8]
 8001838:	2b01      	cmp	r3, #1
 800183a:	d105      	bne.n	8001848 <USART_GetITStatus+0x46>
  {
    itmask &= USARTx->CR1;
 800183c:	687b      	ldr	r3, [r7, #4]
 800183e:	681b      	ldr	r3, [r3, #0]
 8001840:	697a      	ldr	r2, [r7, #20]
 8001842:	4013      	ands	r3, r2
 8001844:	617b      	str	r3, [r7, #20]
 8001846:	e00d      	b.n	8001864 <USART_GetITStatus+0x62>
  }
  else if (usartreg == 0x02) /* The IT  is in CR2 register */
 8001848:	68bb      	ldr	r3, [r7, #8]
 800184a:	2b02      	cmp	r3, #2
 800184c:	d105      	bne.n	800185a <USART_GetITStatus+0x58>
  {
    itmask &= USARTx->CR2;
 800184e:	687b      	ldr	r3, [r7, #4]
 8001850:	685b      	ldr	r3, [r3, #4]
 8001852:	697a      	ldr	r2, [r7, #20]
 8001854:	4013      	ands	r3, r2
 8001856:	617b      	str	r3, [r7, #20]
 8001858:	e004      	b.n	8001864 <USART_GetITStatus+0x62>
  }
  else /* The IT  is in CR3 register */
  {
    itmask &= USARTx->CR3;
 800185a:	687b      	ldr	r3, [r7, #4]
 800185c:	689b      	ldr	r3, [r3, #8]
 800185e:	697a      	ldr	r2, [r7, #20]
 8001860:	4013      	ands	r3, r2
 8001862:	617b      	str	r3, [r7, #20]
  }
  
  bitpos = USART_IT >> 0x10;
 8001864:	683b      	ldr	r3, [r7, #0]
 8001866:	0c1b      	lsrs	r3, r3, #16
 8001868:	60fb      	str	r3, [r7, #12]
  bitpos = (uint32_t)0x01 << bitpos;
 800186a:	2201      	movs	r2, #1
 800186c:	68fb      	ldr	r3, [r7, #12]
 800186e:	fa02 f303 	lsl.w	r3, r2, r3
 8001872:	60fb      	str	r3, [r7, #12]
  bitpos &= USARTx->ISR;
 8001874:	687b      	ldr	r3, [r7, #4]
 8001876:	69db      	ldr	r3, [r3, #28]
 8001878:	68fa      	ldr	r2, [r7, #12]
 800187a:	4013      	ands	r3, r2
 800187c:	60fb      	str	r3, [r7, #12]
  if ((itmask != (uint16_t)RESET)&&(bitpos != (uint16_t)RESET))
 800187e:	697b      	ldr	r3, [r7, #20]
 8001880:	2b00      	cmp	r3, #0
 8001882:	d005      	beq.n	8001890 <USART_GetITStatus+0x8e>
 8001884:	68fb      	ldr	r3, [r7, #12]
 8001886:	2b00      	cmp	r3, #0
 8001888:	d002      	beq.n	8001890 <USART_GetITStatus+0x8e>
  {
    bitstatus = SET;
 800188a:	2301      	movs	r3, #1
 800188c:	74fb      	strb	r3, [r7, #19]
 800188e:	e001      	b.n	8001894 <USART_GetITStatus+0x92>
  }
  else
  {
    bitstatus = RESET;
 8001890:	2300      	movs	r3, #0
 8001892:	74fb      	strb	r3, [r7, #19]
  }
  
  return bitstatus;  
 8001894:	7cfb      	ldrb	r3, [r7, #19]
}
 8001896:	4618      	mov	r0, r3
 8001898:	371c      	adds	r7, #28
 800189a:	46bd      	mov	sp, r7
 800189c:	f85d 7b04 	ldr.w	r7, [sp], #4
 80018a0:	4770      	bx	lr
	...

080018a4 <NVIC_EnableIRQ>:
    The interrupt number cannot be a negative value.

    \param [in]      IRQn  Number of the external interrupt to enable
 */
static __INLINE void NVIC_EnableIRQ(IRQn_Type IRQn)
{
 80018a4:	b480      	push	{r7}
 80018a6:	b083      	sub	sp, #12
 80018a8:	af00      	add	r7, sp, #0
 80018aa:	4603      	mov	r3, r0
 80018ac:	71fb      	strb	r3, [r7, #7]
/*  NVIC->ISER[((uint32_t)(IRQn) >> 5)] = (1 << ((uint32_t)(IRQn) & 0x1F));  enable interrupt */
  NVIC->ISER[(uint32_t)((int32_t)IRQn) >> 5] = (uint32_t)(1 << ((uint32_t)((int32_t)IRQn) & (uint32_t)0x1F)); /* enable interrupt */
 80018ae:	79fb      	ldrb	r3, [r7, #7]
 80018b0:	f003 031f 	and.w	r3, r3, #31
 80018b4:	2201      	movs	r2, #1
 80018b6:	fa02 f103 	lsl.w	r1, r2, r3
 80018ba:	4a06      	ldr	r2, [pc, #24]	; (80018d4 <NVIC_EnableIRQ+0x30>)
 80018bc:	f997 3007 	ldrsb.w	r3, [r7, #7]
 80018c0:	095b      	lsrs	r3, r3, #5
 80018c2:	f842 1023 	str.w	r1, [r2, r3, lsl #2]
}
 80018c6:	bf00      	nop
 80018c8:	370c      	adds	r7, #12
 80018ca:	46bd      	mov	sp, r7
 80018cc:	f85d 7b04 	ldr.w	r7, [sp], #4
 80018d0:	4770      	bx	lr
 80018d2:	bf00      	nop
 80018d4:	e000e100 	.word	0xe000e100

080018d8 <uart_get_char>:
volatile uint8_t UART_BUFFER[UART_BUFFER_LENGTH] = {0};
volatile uint8_t UART_END_IDX = 0;
volatile uint8_t UART_START_IDX = 0;
volatile uint8_t UART_COUNT = 0;

uint8_t uart_get_char(){
 80018d8:	b480      	push	{r7}
 80018da:	b083      	sub	sp, #12
 80018dc:	af00      	add	r7, sp, #0
    uint8_t val = 0;
 80018de:	2300      	movs	r3, #0
 80018e0:	71fb      	strb	r3, [r7, #7]
    if (UART_COUNT > 0) {
 80018e2:	4b0f      	ldr	r3, [pc, #60]	; (8001920 <uart_get_char+0x48>)
 80018e4:	781b      	ldrb	r3, [r3, #0]
 80018e6:	b2db      	uxtb	r3, r3
 80018e8:	2b00      	cmp	r3, #0
 80018ea:	d011      	beq.n	8001910 <uart_get_char+0x38>
        val = UART_BUFFER[UART_START_IDX++];
 80018ec:	4b0d      	ldr	r3, [pc, #52]	; (8001924 <uart_get_char+0x4c>)
 80018ee:	781b      	ldrb	r3, [r3, #0]
 80018f0:	b2db      	uxtb	r3, r3
 80018f2:	1c5a      	adds	r2, r3, #1
 80018f4:	b2d1      	uxtb	r1, r2
 80018f6:	4a0b      	ldr	r2, [pc, #44]	; (8001924 <uart_get_char+0x4c>)
 80018f8:	7011      	strb	r1, [r2, #0]
 80018fa:	461a      	mov	r2, r3
 80018fc:	4b0a      	ldr	r3, [pc, #40]	; (8001928 <uart_get_char+0x50>)
 80018fe:	5c9b      	ldrb	r3, [r3, r2]
 8001900:	71fb      	strb	r3, [r7, #7]
        UART_COUNT--;
 8001902:	4b07      	ldr	r3, [pc, #28]	; (8001920 <uart_get_char+0x48>)
 8001904:	781b      	ldrb	r3, [r3, #0]
 8001906:	b2db      	uxtb	r3, r3
 8001908:	3b01      	subs	r3, #1
 800190a:	b2da      	uxtb	r2, r3
 800190c:	4b04      	ldr	r3, [pc, #16]	; (8001920 <uart_get_char+0x48>)
 800190e:	701a      	strb	r2, [r3, #0]
    }
    return val;
 8001910:	79fb      	ldrb	r3, [r7, #7]
}
 8001912:	4618      	mov	r0, r3
 8001914:	370c      	adds	r7, #12
 8001916:	46bd      	mov	sp, r7
 8001918:	f85d 7b04 	ldr.w	r7, [sp], #4
 800191c:	4770      	bx	lr
 800191e:	bf00      	nop
 8001920:	200001ae 	.word	0x200001ae
 8001924:	200001ad 	.word	0x200001ad
 8001928:	200000ac 	.word	0x200000ac

0800192c <uart_put_char>:

void uart_put_char(uint8_t c) {
 800192c:	b580      	push	{r7, lr}
 800192e:	b082      	sub	sp, #8
 8001930:	af00      	add	r7, sp, #0
 8001932:	4603      	mov	r3, r0
 8001934:	71fb      	strb	r3, [r7, #7]
    USART_SendData(USART2, (uint8_t)c);
 8001936:	79fb      	ldrb	r3, [r7, #7]
 8001938:	b29b      	uxth	r3, r3
 800193a:	4619      	mov	r1, r3
 800193c:	4807      	ldr	r0, [pc, #28]	; (800195c <uart_put_char+0x30>)
 800193e:	f7ff fef3 	bl	8001728 <USART_SendData>
    while(USART_GetFlagStatus(USART2, USART_FLAG_TXE)  == RESET){}
 8001942:	bf00      	nop
 8001944:	2180      	movs	r1, #128	; 0x80
 8001946:	4805      	ldr	r0, [pc, #20]	; (800195c <uart_put_char+0x30>)
 8001948:	f7ff ff42 	bl	80017d0 <USART_GetFlagStatus>
 800194c:	4603      	mov	r3, r0
 800194e:	2b00      	cmp	r3, #0
 8001950:	d0f8      	beq.n	8001944 <uart_put_char+0x18>
}
 8001952:	bf00      	nop
 8001954:	bf00      	nop
 8001956:	3708      	adds	r7, #8
 8001958:	46bd      	mov	sp, r7
 800195a:	bd80      	pop	{r7, pc}
 800195c:	40004400 	.word	0x40004400

08001960 <_write_r>:

int _write_r(struct _reent *r, int file, char *ptr, int len) {
 8001960:	b580      	push	{r7, lr}
 8001962:	b086      	sub	sp, #24
 8001964:	af00      	add	r7, sp, #0
 8001966:	60f8      	str	r0, [r7, #12]
 8001968:	60b9      	str	r1, [r7, #8]
 800196a:	607a      	str	r2, [r7, #4]
 800196c:	603b      	str	r3, [r7, #0]
    int n;

    for (n = 0; n < len; n++) {
 800196e:	2300      	movs	r3, #0
 8001970:	617b      	str	r3, [r7, #20]
 8001972:	e012      	b.n	800199a <_write_r+0x3a>
        if (ptr[n] == '\n') {
 8001974:	697b      	ldr	r3, [r7, #20]
 8001976:	687a      	ldr	r2, [r7, #4]
 8001978:	4413      	add	r3, r2
 800197a:	781b      	ldrb	r3, [r3, #0]
 800197c:	2b0a      	cmp	r3, #10
 800197e:	d102      	bne.n	8001986 <_write_r+0x26>
            uart_put_char('\r');
 8001980:	200d      	movs	r0, #13
 8001982:	f7ff ffd3 	bl	800192c <uart_put_char>
        }
        uart_put_char(ptr[n] & (uint16_t)0x01FF);
 8001986:	697b      	ldr	r3, [r7, #20]
 8001988:	687a      	ldr	r2, [r7, #4]
 800198a:	4413      	add	r3, r2
 800198c:	781b      	ldrb	r3, [r3, #0]
 800198e:	4618      	mov	r0, r3
 8001990:	f7ff ffcc 	bl	800192c <uart_put_char>
    for (n = 0; n < len; n++) {
 8001994:	697b      	ldr	r3, [r7, #20]
 8001996:	3301      	adds	r3, #1
 8001998:	617b      	str	r3, [r7, #20]
 800199a:	697a      	ldr	r2, [r7, #20]
 800199c:	683b      	ldr	r3, [r7, #0]
 800199e:	429a      	cmp	r2, r3
 80019a0:	dbe8      	blt.n	8001974 <_write_r+0x14>
    }

    return len;
 80019a2:	683b      	ldr	r3, [r7, #0]
}
 80019a4:	4618      	mov	r0, r3
 80019a6:	3718      	adds	r7, #24
 80019a8:	46bd      	mov	sp, r7
 80019aa:	bd80      	pop	{r7, pc}

080019ac <USART2_IRQHandler>:

void USART2_IRQHandler(void)
{
 80019ac:	b580      	push	{r7, lr}
 80019ae:	af00      	add	r7, sp, #0
    if(USART_GetITStatus(USART2, USART_IT_RXNE) != RESET)
 80019b0:	4915      	ldr	r1, [pc, #84]	; (8001a08 <USART2_IRQHandler+0x5c>)
 80019b2:	4816      	ldr	r0, [pc, #88]	; (8001a0c <USART2_IRQHandler+0x60>)
 80019b4:	f7ff ff25 	bl	8001802 <USART_GetITStatus>
 80019b8:	4603      	mov	r3, r0
 80019ba:	2b00      	cmp	r3, #0
 80019bc:	d021      	beq.n	8001a02 <USART2_IRQHandler+0x56>
    {
        UART_BUFFER[UART_END_IDX++] = (uint8_t)(USART2->RDR & 0xFF);
 80019be:	4b13      	ldr	r3, [pc, #76]	; (8001a0c <USART2_IRQHandler+0x60>)
 80019c0:	8c9b      	ldrh	r3, [r3, #36]	; 0x24
 80019c2:	b299      	uxth	r1, r3
 80019c4:	4b12      	ldr	r3, [pc, #72]	; (8001a10 <USART2_IRQHandler+0x64>)
 80019c6:	781b      	ldrb	r3, [r3, #0]
 80019c8:	b2db      	uxtb	r3, r3
 80019ca:	1c5a      	adds	r2, r3, #1
 80019cc:	b2d0      	uxtb	r0, r2
 80019ce:	4a10      	ldr	r2, [pc, #64]	; (8001a10 <USART2_IRQHandler+0x64>)
 80019d0:	7010      	strb	r0, [r2, #0]
 80019d2:	461a      	mov	r2, r3
 80019d4:	b2c9      	uxtb	r1, r1
 80019d6:	4b0f      	ldr	r3, [pc, #60]	; (8001a14 <USART2_IRQHandler+0x68>)
 80019d8:	5499      	strb	r1, [r3, r2]
        if (UART_COUNT == UART_BUFFER_LENGTH-1){
 80019da:	4b0f      	ldr	r3, [pc, #60]	; (8001a18 <USART2_IRQHandler+0x6c>)
 80019dc:	781b      	ldrb	r3, [r3, #0]
 80019de:	b2db      	uxtb	r3, r3
 80019e0:	2bff      	cmp	r3, #255	; 0xff
 80019e2:	d107      	bne.n	80019f4 <USART2_IRQHandler+0x48>
            UART_START_IDX++;
 80019e4:	4b0d      	ldr	r3, [pc, #52]	; (8001a1c <USART2_IRQHandler+0x70>)
 80019e6:	781b      	ldrb	r3, [r3, #0]
 80019e8:	b2db      	uxtb	r3, r3
 80019ea:	3301      	adds	r3, #1
 80019ec:	b2da      	uxtb	r2, r3
 80019ee:	4b0b      	ldr	r3, [pc, #44]	; (8001a1c <USART2_IRQHandler+0x70>)
 80019f0:	701a      	strb	r2, [r3, #0]
        } else {
            UART_COUNT++;
        }
    }
}
 80019f2:	e006      	b.n	8001a02 <USART2_IRQHandler+0x56>
            UART_COUNT++;
 80019f4:	4b08      	ldr	r3, [pc, #32]	; (8001a18 <USART2_IRQHandler+0x6c>)
 80019f6:	781b      	ldrb	r3, [r3, #0]
 80019f8:	b2db      	uxtb	r3, r3
 80019fa:	3301      	adds	r3, #1
 80019fc:	b2da      	uxtb	r2, r3
 80019fe:	4b06      	ldr	r3, [pc, #24]	; (8001a18 <USART2_IRQHandler+0x6c>)
 8001a00:	701a      	strb	r2, [r3, #0]
}
 8001a02:	bf00      	nop
 8001a04:	bd80      	pop	{r7, pc}
 8001a06:	bf00      	nop
 8001a08:	00050105 	.word	0x00050105
 8001a0c:	40004400 	.word	0x40004400
 8001a10:	200001ac 	.word	0x200001ac
 8001a14:	200000ac 	.word	0x200000ac
 8001a18:	200001ae 	.word	0x200001ae
 8001a1c:	200001ad 	.word	0x200001ad

08001a20 <uart_init>:

uint8_t uart_get_count(){
    return UART_COUNT;
}

void uart_init(uint32_t baud) {
 8001a20:	b580      	push	{r7, lr}
 8001a22:	b094      	sub	sp, #80	; 0x50
 8001a24:	af00      	add	r7, sp, #0
 8001a26:	6078      	str	r0, [r7, #4]
    setbuf(stdout, NULL); // Set stdout to disable line buffering
 8001a28:	4b86      	ldr	r3, [pc, #536]	; (8001c44 <uart_init+0x224>)
 8001a2a:	681b      	ldr	r3, [r3, #0]
 8001a2c:	689b      	ldr	r3, [r3, #8]
 8001a2e:	2100      	movs	r1, #0
 8001a30:	4618      	mov	r0, r3
 8001a32:	f004 fed7 	bl	80067e4 <setbuf>
    setbuf(stdin,  NULL); // Set stdin  to disable line buffering
 8001a36:	4b83      	ldr	r3, [pc, #524]	; (8001c44 <uart_init+0x224>)
 8001a38:	681b      	ldr	r3, [r3, #0]
 8001a3a:	685b      	ldr	r3, [r3, #4]
 8001a3c:	2100      	movs	r1, #0
 8001a3e:	4618      	mov	r0, r3
 8001a40:	f004 fed0 	bl	80067e4 <setbuf>

    // Enable Clocks
    RCC->AHBENR  |= RCC_AHBPeriph_GPIOA;    // Enable Clock for GPIO Bank A
 8001a44:	4b80      	ldr	r3, [pc, #512]	; (8001c48 <uart_init+0x228>)
 8001a46:	695b      	ldr	r3, [r3, #20]
 8001a48:	4a7f      	ldr	r2, [pc, #508]	; (8001c48 <uart_init+0x228>)
 8001a4a:	f443 3300 	orr.w	r3, r3, #131072	; 0x20000
 8001a4e:	6153      	str	r3, [r2, #20]
    RCC->APB1ENR |= RCC_APB1Periph_USART2;  // Enable Clock for USART2
 8001a50:	4b7d      	ldr	r3, [pc, #500]	; (8001c48 <uart_init+0x228>)
 8001a52:	69db      	ldr	r3, [r3, #28]
 8001a54:	4a7c      	ldr	r2, [pc, #496]	; (8001c48 <uart_init+0x228>)
 8001a56:	f443 3300 	orr.w	r3, r3, #131072	; 0x20000
 8001a5a:	61d3      	str	r3, [r2, #28]

    // Connect pins to USART2
    GPIOA->AFR[2 >> 0x03] &= ~(0x0000000F << ((2 & 0x00000007) * 4)); // Clear alternate function for PA2
 8001a5c:	f04f 4390 	mov.w	r3, #1207959552	; 0x48000000
 8001a60:	6a1b      	ldr	r3, [r3, #32]
 8001a62:	f04f 4290 	mov.w	r2, #1207959552	; 0x48000000
 8001a66:	f423 6370 	bic.w	r3, r3, #3840	; 0xf00
 8001a6a:	6213      	str	r3, [r2, #32]
    GPIOA->AFR[2 >> 0x03] |=  (0x00000007 << ((2 & 0x00000007) * 4)); // Set alternate 7 function for PA2
 8001a6c:	f04f 4390 	mov.w	r3, #1207959552	; 0x48000000
 8001a70:	6a1b      	ldr	r3, [r3, #32]
 8001a72:	f04f 4290 	mov.w	r2, #1207959552	; 0x48000000
 8001a76:	f443 63e0 	orr.w	r3, r3, #1792	; 0x700
 8001a7a:	6213      	str	r3, [r2, #32]
    GPIOA->AFR[3 >> 0x03] &= ~(0x0000000F << ((3 & 0x00000007) * 4)); // Clear alternate function for PA3
 8001a7c:	f04f 4390 	mov.w	r3, #1207959552	; 0x48000000
 8001a80:	6a1b      	ldr	r3, [r3, #32]
 8001a82:	f04f 4290 	mov.w	r2, #1207959552	; 0x48000000
 8001a86:	f423 4370 	bic.w	r3, r3, #61440	; 0xf000
 8001a8a:	6213      	str	r3, [r2, #32]
    GPIOA->AFR[3 >> 0x03] |=  (0x00000007 << ((3 & 0x00000007) * 4)); // Set alternate 7 function for PA3
 8001a8c:	f04f 4390 	mov.w	r3, #1207959552	; 0x48000000
 8001a90:	6a1b      	ldr	r3, [r3, #32]
 8001a92:	f04f 4290 	mov.w	r2, #1207959552	; 0x48000000
 8001a96:	f443 43e0 	orr.w	r3, r3, #28672	; 0x7000
 8001a9a:	6213      	str	r3, [r2, #32]

    // Configure pins PA2 and PA3 for 10 MHz alternate function
    GPIOA->OSPEEDR &= ~(0x00000003 << (2 * 2) | 0x00000003 << (3 * 2));    // Clear speed register
 8001a9c:	f04f 4390 	mov.w	r3, #1207959552	; 0x48000000
 8001aa0:	689b      	ldr	r3, [r3, #8]
 8001aa2:	f04f 4290 	mov.w	r2, #1207959552	; 0x48000000
 8001aa6:	f023 03f0 	bic.w	r3, r3, #240	; 0xf0
 8001aaa:	6093      	str	r3, [r2, #8]
    GPIOA->OSPEEDR |=  (0x00000001 << (2 * 2) | 0x00000001 << (3 * 2));    // set speed register (0x01 - 10 MHz, 0x02 - 2 MHz, 0x03 - 50 MHz)
 8001aac:	f04f 4390 	mov.w	r3, #1207959552	; 0x48000000
 8001ab0:	689b      	ldr	r3, [r3, #8]
 8001ab2:	f04f 4290 	mov.w	r2, #1207959552	; 0x48000000
 8001ab6:	f043 0350 	orr.w	r3, r3, #80	; 0x50
 8001aba:	6093      	str	r3, [r2, #8]
    GPIOA->OTYPER  &= ~(0x0001     << (2)     | 0x0001     << (3));        // Clear output type register
 8001abc:	f04f 4390 	mov.w	r3, #1207959552	; 0x48000000
 8001ac0:	889b      	ldrh	r3, [r3, #4]
 8001ac2:	b29b      	uxth	r3, r3
 8001ac4:	f04f 4290 	mov.w	r2, #1207959552	; 0x48000000
 8001ac8:	f023 030c 	bic.w	r3, r3, #12
 8001acc:	b29b      	uxth	r3, r3
 8001ace:	8093      	strh	r3, [r2, #4]
    GPIOA->OTYPER  |=  (0x0000     << (2)     | 0x0000     << (3));        // Set output type register (0x00 - Push pull, 0x01 - Open drain)
 8001ad0:	f04f 4290 	mov.w	r2, #1207959552	; 0x48000000
 8001ad4:	f04f 4390 	mov.w	r3, #1207959552	; 0x48000000
 8001ad8:	8892      	ldrh	r2, [r2, #4]
 8001ada:	b292      	uxth	r2, r2
 8001adc:	809a      	strh	r2, [r3, #4]
    GPIOA->MODER   &= ~(0x00000003 << (2 * 2) | 0x00000003 << (3 * 2));    // Clear mode register
 8001ade:	f04f 4390 	mov.w	r3, #1207959552	; 0x48000000
 8001ae2:	681b      	ldr	r3, [r3, #0]
 8001ae4:	f04f 4290 	mov.w	r2, #1207959552	; 0x48000000
 8001ae8:	f023 03f0 	bic.w	r3, r3, #240	; 0xf0
 8001aec:	6013      	str	r3, [r2, #0]
    GPIOA->MODER   |=  (0x00000002 << (2 * 2) | 0x00000002 << (3 * 2));    // Set mode register (0x00 - Input, 0x01 - Output, 0x02 - Alternate Function, 0x03 - Analog in/out)
 8001aee:	f04f 4390 	mov.w	r3, #1207959552	; 0x48000000
 8001af2:	681b      	ldr	r3, [r3, #0]
 8001af4:	f04f 4290 	mov.w	r2, #1207959552	; 0x48000000
 8001af8:	f043 03a0 	orr.w	r3, r3, #160	; 0xa0
 8001afc:	6013      	str	r3, [r2, #0]
    GPIOA->PUPDR   &= ~(0x00000003 << (2 * 2) | 0x00000003 << (3 * 2));    // Clear push/pull register
 8001afe:	f04f 4390 	mov.w	r3, #1207959552	; 0x48000000
 8001b02:	68db      	ldr	r3, [r3, #12]
 8001b04:	f04f 4290 	mov.w	r2, #1207959552	; 0x48000000
 8001b08:	f023 03f0 	bic.w	r3, r3, #240	; 0xf0
 8001b0c:	60d3      	str	r3, [r2, #12]
    GPIOA->PUPDR   |=  (0x00000001 << (2 * 2) | 0x00000001 << (3 * 2));    // Set push/pull register (0x00 - No pull, 0x01 - Pull-up, 0x02 - Pull-down)
 8001b0e:	f04f 4390 	mov.w	r3, #1207959552	; 0x48000000
 8001b12:	68db      	ldr	r3, [r3, #12]
 8001b14:	f04f 4290 	mov.w	r2, #1207959552	; 0x48000000
 8001b18:	f043 0350 	orr.w	r3, r3, #80	; 0x50
 8001b1c:	60d3      	str	r3, [r2, #12]

    //Configure USART2
    USART2->CR1 &= ~0x00000001; // Disable USART2
 8001b1e:	4b4b      	ldr	r3, [pc, #300]	; (8001c4c <uart_init+0x22c>)
 8001b20:	681b      	ldr	r3, [r3, #0]
 8001b22:	4a4a      	ldr	r2, [pc, #296]	; (8001c4c <uart_init+0x22c>)
 8001b24:	f023 0301 	bic.w	r3, r3, #1
 8001b28:	6013      	str	r3, [r2, #0]
    USART2->CR2 &= ~0x00003000; // Clear CR2 Configuration
 8001b2a:	4b48      	ldr	r3, [pc, #288]	; (8001c4c <uart_init+0x22c>)
 8001b2c:	685b      	ldr	r3, [r3, #4]
 8001b2e:	4a47      	ldr	r2, [pc, #284]	; (8001c4c <uart_init+0x22c>)
 8001b30:	f423 5340 	bic.w	r3, r3, #12288	; 0x3000
 8001b34:	6053      	str	r3, [r2, #4]
    USART2->CR2 |=  0x00000000; // Set 1 stop bits
 8001b36:	4b45      	ldr	r3, [pc, #276]	; (8001c4c <uart_init+0x22c>)
 8001b38:	4a44      	ldr	r2, [pc, #272]	; (8001c4c <uart_init+0x22c>)
 8001b3a:	685b      	ldr	r3, [r3, #4]
 8001b3c:	6053      	str	r3, [r2, #4]
    USART2->CR1 &= ~(0x00001000 | 0x00000400 | 0x00000200 | 0x00000008 | 0x00000004); // Clear CR1 Configuration
 8001b3e:	4b43      	ldr	r3, [pc, #268]	; (8001c4c <uart_init+0x22c>)
 8001b40:	681b      	ldr	r3, [r3, #0]
 8001b42:	4a42      	ldr	r2, [pc, #264]	; (8001c4c <uart_init+0x22c>)
 8001b44:	f423 53b0 	bic.w	r3, r3, #5632	; 0x1600
 8001b48:	f023 030c 	bic.w	r3, r3, #12
 8001b4c:	6013      	str	r3, [r2, #0]
    USART2->CR1 |=  0x00000000; // Set word length to 8 bits
 8001b4e:	4b3f      	ldr	r3, [pc, #252]	; (8001c4c <uart_init+0x22c>)
 8001b50:	4a3e      	ldr	r2, [pc, #248]	; (8001c4c <uart_init+0x22c>)
 8001b52:	681b      	ldr	r3, [r3, #0]
 8001b54:	6013      	str	r3, [r2, #0]
    USART2->CR1 |=  0x00000000; // Set parity bits to none
 8001b56:	4b3d      	ldr	r3, [pc, #244]	; (8001c4c <uart_init+0x22c>)
 8001b58:	4a3c      	ldr	r2, [pc, #240]	; (8001c4c <uart_init+0x22c>)
 8001b5a:	681b      	ldr	r3, [r3, #0]
 8001b5c:	6013      	str	r3, [r2, #0]
    USART2->CR1 |=  0x00000004 | 0x00000008; // Set mode to RX and TX
 8001b5e:	4b3b      	ldr	r3, [pc, #236]	; (8001c4c <uart_init+0x22c>)
 8001b60:	681b      	ldr	r3, [r3, #0]
 8001b62:	4a3a      	ldr	r2, [pc, #232]	; (8001c4c <uart_init+0x22c>)
 8001b64:	f043 030c 	orr.w	r3, r3, #12
 8001b68:	6013      	str	r3, [r2, #0]
    USART2->CR3 &= ~(0x00000100 | 0x00000200); // Clear CR3 Configuration
 8001b6a:	4b38      	ldr	r3, [pc, #224]	; (8001c4c <uart_init+0x22c>)
 8001b6c:	689b      	ldr	r3, [r3, #8]
 8001b6e:	4a37      	ldr	r2, [pc, #220]	; (8001c4c <uart_init+0x22c>)
 8001b70:	f423 7340 	bic.w	r3, r3, #768	; 0x300
 8001b74:	6093      	str	r3, [r2, #8]
    USART2->CR3 |=  0x00000000; // Set hardware flow control to none
 8001b76:	4b35      	ldr	r3, [pc, #212]	; (8001c4c <uart_init+0x22c>)
 8001b78:	4a34      	ldr	r2, [pc, #208]	; (8001c4c <uart_init+0x22c>)
 8001b7a:	689b      	ldr	r3, [r3, #8]
 8001b7c:	6093      	str	r3, [r2, #8]

    uint32_t divider = 0, apbclock = 0, tmpreg = 0;
 8001b7e:	2300      	movs	r3, #0
 8001b80:	64fb      	str	r3, [r7, #76]	; 0x4c
 8001b82:	2300      	movs	r3, #0
 8001b84:	647b      	str	r3, [r7, #68]	; 0x44
 8001b86:	2300      	movs	r3, #0
 8001b88:	64bb      	str	r3, [r7, #72]	; 0x48
    RCC_ClocksTypeDef RCC_ClocksStatus;
    RCC_GetClocksFreq(&RCC_ClocksStatus); // Get USART2 Clock frequency
 8001b8a:	f107 0308 	add.w	r3, r7, #8
 8001b8e:	4618      	mov	r0, r3
 8001b90:	f7ff fbb6 	bl	8001300 <RCC_GetClocksFreq>
    apbclock = RCC_ClocksStatus.USART2CLK_Frequency;
 8001b94:	6b7b      	ldr	r3, [r7, #52]	; 0x34
 8001b96:	647b      	str	r3, [r7, #68]	; 0x44

    if ((USART2->CR1 & 0x00008000) != 0) {
 8001b98:	4b2c      	ldr	r3, [pc, #176]	; (8001c4c <uart_init+0x22c>)
 8001b9a:	681b      	ldr	r3, [r3, #0]
 8001b9c:	f403 4300 	and.w	r3, r3, #32768	; 0x8000
 8001ba0:	2b00      	cmp	r3, #0
 8001ba2:	d010      	beq.n	8001bc6 <uart_init+0x1a6>
      // (divider * 10) computing in case Oversampling mode is 8 Samples
      divider = (2 * apbclock) / baud;
 8001ba4:	6c7b      	ldr	r3, [r7, #68]	; 0x44
 8001ba6:	005a      	lsls	r2, r3, #1
 8001ba8:	687b      	ldr	r3, [r7, #4]
 8001baa:	fbb2 f3f3 	udiv	r3, r2, r3
 8001bae:	64fb      	str	r3, [r7, #76]	; 0x4c
      tmpreg  = (2 * apbclock) % baud;
 8001bb0:	6c7b      	ldr	r3, [r7, #68]	; 0x44
 8001bb2:	005b      	lsls	r3, r3, #1
 8001bb4:	687a      	ldr	r2, [r7, #4]
 8001bb6:	fbb3 f2f2 	udiv	r2, r3, r2
 8001bba:	6879      	ldr	r1, [r7, #4]
 8001bbc:	fb01 f202 	mul.w	r2, r1, r2
 8001bc0:	1a9b      	subs	r3, r3, r2
 8001bc2:	64bb      	str	r3, [r7, #72]	; 0x48
 8001bc4:	e00d      	b.n	8001be2 <uart_init+0x1c2>
    } else {
      // (divider * 10) computing in case Oversampling mode is 16 Samples
      divider = apbclock / baud;
 8001bc6:	6c7a      	ldr	r2, [r7, #68]	; 0x44
 8001bc8:	687b      	ldr	r3, [r7, #4]
 8001bca:	fbb2 f3f3 	udiv	r3, r2, r3
 8001bce:	64fb      	str	r3, [r7, #76]	; 0x4c
      tmpreg  = apbclock % baud;
 8001bd0:	6c7b      	ldr	r3, [r7, #68]	; 0x44
 8001bd2:	687a      	ldr	r2, [r7, #4]
 8001bd4:	fbb3 f2f2 	udiv	r2, r3, r2
 8001bd8:	6879      	ldr	r1, [r7, #4]
 8001bda:	fb01 f202 	mul.w	r2, r1, r2
 8001bde:	1a9b      	subs	r3, r3, r2
 8001be0:	64bb      	str	r3, [r7, #72]	; 0x48
    }

    if (tmpreg >=  baud / 2) {
 8001be2:	687b      	ldr	r3, [r7, #4]
 8001be4:	085b      	lsrs	r3, r3, #1
 8001be6:	6cba      	ldr	r2, [r7, #72]	; 0x48
 8001be8:	429a      	cmp	r2, r3
 8001bea:	d302      	bcc.n	8001bf2 <uart_init+0x1d2>
        divider++;
 8001bec:	6cfb      	ldr	r3, [r7, #76]	; 0x4c
 8001bee:	3301      	adds	r3, #1
 8001bf0:	64fb      	str	r3, [r7, #76]	; 0x4c
    }

    if ((USART2->CR1 & 0x00008000) != 0) {
 8001bf2:	4b16      	ldr	r3, [pc, #88]	; (8001c4c <uart_init+0x22c>)
 8001bf4:	681b      	ldr	r3, [r3, #0]
 8001bf6:	f403 4300 	and.w	r3, r3, #32768	; 0x8000
 8001bfa:	2b00      	cmp	r3, #0
 8001bfc:	d00b      	beq.n	8001c16 <uart_init+0x1f6>
        // get the LSB of divider and shift it to the right by 1 bit
        tmpreg = (divider & (uint16_t)0x000F) >> 1;
 8001bfe:	6cfb      	ldr	r3, [r7, #76]	; 0x4c
 8001c00:	085b      	lsrs	r3, r3, #1
 8001c02:	f003 0307 	and.w	r3, r3, #7
 8001c06:	64bb      	str	r3, [r7, #72]	; 0x48
        // update the divider value
        divider = (divider & (uint16_t)0xFFF0) | tmpreg;
 8001c08:	6cfa      	ldr	r2, [r7, #76]	; 0x4c
 8001c0a:	f64f 73f0 	movw	r3, #65520	; 0xfff0
 8001c0e:	4013      	ands	r3, r2
 8001c10:	6cba      	ldr	r2, [r7, #72]	; 0x48
 8001c12:	4313      	orrs	r3, r2
 8001c14:	64fb      	str	r3, [r7, #76]	; 0x4c
    }

    USART2->BRR = (uint16_t)divider; // Configure baud rate
 8001c16:	4b0d      	ldr	r3, [pc, #52]	; (8001c4c <uart_init+0x22c>)
 8001c18:	6cfa      	ldr	r2, [r7, #76]	; 0x4c
 8001c1a:	b292      	uxth	r2, r2
 8001c1c:	819a      	strh	r2, [r3, #12]
    USART2->CR1 |= 0x00000001; // Enable USART2
 8001c1e:	4b0b      	ldr	r3, [pc, #44]	; (8001c4c <uart_init+0x22c>)
 8001c20:	681b      	ldr	r3, [r3, #0]
 8001c22:	4a0a      	ldr	r2, [pc, #40]	; (8001c4c <uart_init+0x22c>)
 8001c24:	f043 0301 	orr.w	r3, r3, #1
 8001c28:	6013      	str	r3, [r2, #0]

    USART_ITConfig(USART2, USART_IT_RXNE, ENABLE);
 8001c2a:	2201      	movs	r2, #1
 8001c2c:	4908      	ldr	r1, [pc, #32]	; (8001c50 <uart_init+0x230>)
 8001c2e:	4807      	ldr	r0, [pc, #28]	; (8001c4c <uart_init+0x22c>)
 8001c30:	f7ff fd8c 	bl	800174c <USART_ITConfig>
    NVIC_EnableIRQ(USART2_IRQn);
 8001c34:	2026      	movs	r0, #38	; 0x26
 8001c36:	f7ff fe35 	bl	80018a4 <NVIC_EnableIRQ>
}
 8001c3a:	bf00      	nop
 8001c3c:	3750      	adds	r7, #80	; 0x50
 8001c3e:	46bd      	mov	sp, r7
 8001c40:	bd80      	pop	{r7, pc}
 8001c42:	bf00      	nop
 8001c44:	2000002c 	.word	0x2000002c
 8001c48:	40021000 	.word	0x40021000
 8001c4c:	40004400 	.word	0x40004400
 8001c50:	00050105 	.word	0x00050105

08001c54 <fgcolor>:
/**
  * @brief  Sets the foreground color of text TODO:REF
  * @param  the color to be set
  * @retval None
  */
void fgcolor(uint8_t foreground) {
 8001c54:	b580      	push	{r7, lr}
 8001c56:	b084      	sub	sp, #16
 8001c58:	af00      	add	r7, sp, #0
 8001c5a:	4603      	mov	r3, r0
 8001c5c:	71fb      	strb	r3, [r7, #7]
      4        Blue            12       Light Blue
      5        Purple          13       Light Purple
      6        Cyan            14       Light Cyan
      7        Light Gray      15       White
*/
  uint8_t type = 22;             // normal text
 8001c5e:	2316      	movs	r3, #22
 8001c60:	73fb      	strb	r3, [r7, #15]
	if (foreground > 7) {
 8001c62:	79fb      	ldrb	r3, [r7, #7]
 8001c64:	2b07      	cmp	r3, #7
 8001c66:	d904      	bls.n	8001c72 <fgcolor+0x1e>
	  type = 1;                // bold text
 8001c68:	2301      	movs	r3, #1
 8001c6a:	73fb      	strb	r3, [r7, #15]
		foreground -= 8;
 8001c6c:	79fb      	ldrb	r3, [r7, #7]
 8001c6e:	3b08      	subs	r3, #8
 8001c70:	71fb      	strb	r3, [r7, #7]
	}
  printf("%c[%d;%dm", ESC, type, foreground+30);
 8001c72:	7bfa      	ldrb	r2, [r7, #15]
 8001c74:	79fb      	ldrb	r3, [r7, #7]
 8001c76:	331e      	adds	r3, #30
 8001c78:	211b      	movs	r1, #27
 8001c7a:	4803      	ldr	r0, [pc, #12]	; (8001c88 <fgcolor+0x34>)
 8001c7c:	f004 fc90 	bl	80065a0 <iprintf>
}
 8001c80:	bf00      	nop
 8001c82:	3710      	adds	r7, #16
 8001c84:	46bd      	mov	sp, r7
 8001c86:	bd80      	pop	{r7, pc}
 8001c88:	08007800 	.word	0x08007800

08001c8c <clrscr>:
/**
  * @brief  clears the screen TODO:REF
  * @param  None
  * @retval None
  */
void clrscr(){
 8001c8c:	b580      	push	{r7, lr}
 8001c8e:	af00      	add	r7, sp, #0
    printf("%c[H", ESC);
 8001c90:	211b      	movs	r1, #27
 8001c92:	4804      	ldr	r0, [pc, #16]	; (8001ca4 <clrscr+0x18>)
 8001c94:	f004 fc84 	bl	80065a0 <iprintf>
    printf("%c[J", ESC);
 8001c98:	211b      	movs	r1, #27
 8001c9a:	4803      	ldr	r0, [pc, #12]	; (8001ca8 <clrscr+0x1c>)
 8001c9c:	f004 fc80 	bl	80065a0 <iprintf>
}
 8001ca0:	bf00      	nop
 8001ca2:	bd80      	pop	{r7, pc}
 8001ca4:	0800782c 	.word	0x0800782c
 8001ca8:	08007834 	.word	0x08007834

08001cac <gotoxy>:
/**
  * @brief  Sends cursor to the given coordinate TODO:REF
  * @param  x: x-part, y: y-part
  * @retval None
  */
void gotoxy(int x, int y){
 8001cac:	b580      	push	{r7, lr}
 8001cae:	b082      	sub	sp, #8
 8001cb0:	af00      	add	r7, sp, #0
 8001cb2:	6078      	str	r0, [r7, #4]
 8001cb4:	6039      	str	r1, [r7, #0]
    printf("%c[%d;%dH", ESC, y, x);
 8001cb6:	687b      	ldr	r3, [r7, #4]
 8001cb8:	683a      	ldr	r2, [r7, #0]
 8001cba:	211b      	movs	r1, #27
 8001cbc:	4803      	ldr	r0, [pc, #12]	; (8001ccc <gotoxy+0x20>)
 8001cbe:	f004 fc6f 	bl	80065a0 <iprintf>
}
 8001cc2:	bf00      	nop
 8001cc4:	3708      	adds	r7, #8
 8001cc6:	46bd      	mov	sp, r7
 8001cc8:	bd80      	pop	{r7, pc}
 8001cca:	bf00      	nop
 8001ccc:	0800783c 	.word	0x0800783c

08001cd0 <drawBox>:
/**
  * @brief  Draws a box from given coordiantes TODO:REF
  * @param  x1: x of top left, y1: y of top left, x2: x of bottom right, y2: y of bottom right, style: the style of box 0=thin 1=bold
  * @retval None
  */
void drawBox(int x1, int y1, int x2, int y2, int style) {
 8001cd0:	b580      	push	{r7, lr}
 8001cd2:	b08a      	sub	sp, #40	; 0x28
 8001cd4:	af00      	add	r7, sp, #0
 8001cd6:	60f8      	str	r0, [r7, #12]
 8001cd8:	60b9      	str	r1, [r7, #8]
 8001cda:	607a      	str	r2, [r7, #4]
 8001cdc:	603b      	str	r3, [r7, #0]
	if(style == 1) {
 8001cde:	6b3b      	ldr	r3, [r7, #48]	; 0x30
 8001ce0:	2b01      	cmp	r3, #1
 8001ce2:	d15e      	bne.n	8001da2 <drawBox+0xd2>
		 for(int y = y1; y <= y2; y++){
 8001ce4:	68bb      	ldr	r3, [r7, #8]
 8001ce6:	627b      	str	r3, [r7, #36]	; 0x24
 8001ce8:	e019      	b.n	8001d1e <drawBox+0x4e>
			 gotoxy(x1,y);
 8001cea:	6a79      	ldr	r1, [r7, #36]	; 0x24
 8001cec:	68f8      	ldr	r0, [r7, #12]
 8001cee:	f7ff ffdd 	bl	8001cac <gotoxy>
			 if (y==y1){
 8001cf2:	6a7a      	ldr	r2, [r7, #36]	; 0x24
 8001cf4:	68bb      	ldr	r3, [r7, #8]
 8001cf6:	429a      	cmp	r2, r3
 8001cf8:	d103      	bne.n	8001d02 <drawBox+0x32>
				printf("%c", 201);
 8001cfa:	20c9      	movs	r0, #201	; 0xc9
 8001cfc:	f004 fc68 	bl	80065d0 <putchar>
 8001d00:	e00a      	b.n	8001d18 <drawBox+0x48>
			 }
			 else if(y==y2){
 8001d02:	6a7a      	ldr	r2, [r7, #36]	; 0x24
 8001d04:	683b      	ldr	r3, [r7, #0]
 8001d06:	429a      	cmp	r2, r3
 8001d08:	d103      	bne.n	8001d12 <drawBox+0x42>
				printf("%c", 200);
 8001d0a:	20c8      	movs	r0, #200	; 0xc8
 8001d0c:	f004 fc60 	bl	80065d0 <putchar>
 8001d10:	e002      	b.n	8001d18 <drawBox+0x48>
			 }
			 else {
				printf("%c", 186);
 8001d12:	20ba      	movs	r0, #186	; 0xba
 8001d14:	f004 fc5c 	bl	80065d0 <putchar>
		 for(int y = y1; y <= y2; y++){
 8001d18:	6a7b      	ldr	r3, [r7, #36]	; 0x24
 8001d1a:	3301      	adds	r3, #1
 8001d1c:	627b      	str	r3, [r7, #36]	; 0x24
 8001d1e:	6a7a      	ldr	r2, [r7, #36]	; 0x24
 8001d20:	683b      	ldr	r3, [r7, #0]
 8001d22:	429a      	cmp	r2, r3
 8001d24:	dde1      	ble.n	8001cea <drawBox+0x1a>
			 }
		   		 }
   		 for(int x = x1; x <= x2; x++){
 8001d26:	68fb      	ldr	r3, [r7, #12]
 8001d28:	623b      	str	r3, [r7, #32]
 8001d2a:	e014      	b.n	8001d56 <drawBox+0x86>
   			 if(x!=x1){
 8001d2c:	6a3a      	ldr	r2, [r7, #32]
 8001d2e:	68fb      	ldr	r3, [r7, #12]
 8001d30:	429a      	cmp	r2, r3
 8001d32:	d00d      	beq.n	8001d50 <drawBox+0x80>
				 gotoxy(x,y1);
 8001d34:	68b9      	ldr	r1, [r7, #8]
 8001d36:	6a38      	ldr	r0, [r7, #32]
 8001d38:	f7ff ffb8 	bl	8001cac <gotoxy>
				 printf("%c", 205);
 8001d3c:	20cd      	movs	r0, #205	; 0xcd
 8001d3e:	f004 fc47 	bl	80065d0 <putchar>
				 gotoxy(x,y2);
 8001d42:	6839      	ldr	r1, [r7, #0]
 8001d44:	6a38      	ldr	r0, [r7, #32]
 8001d46:	f7ff ffb1 	bl	8001cac <gotoxy>
				 printf("%c", 205);
 8001d4a:	20cd      	movs	r0, #205	; 0xcd
 8001d4c:	f004 fc40 	bl	80065d0 <putchar>
   		 for(int x = x1; x <= x2; x++){
 8001d50:	6a3b      	ldr	r3, [r7, #32]
 8001d52:	3301      	adds	r3, #1
 8001d54:	623b      	str	r3, [r7, #32]
 8001d56:	6a3a      	ldr	r2, [r7, #32]
 8001d58:	687b      	ldr	r3, [r7, #4]
 8001d5a:	429a      	cmp	r2, r3
 8001d5c:	dde6      	ble.n	8001d2c <drawBox+0x5c>
   			 }
   		 }
   		 for(int y = y1; y <= y2; y++){
 8001d5e:	68bb      	ldr	r3, [r7, #8]
 8001d60:	61fb      	str	r3, [r7, #28]
 8001d62:	e019      	b.n	8001d98 <drawBox+0xc8>
   			 gotoxy(x2,y);
 8001d64:	69f9      	ldr	r1, [r7, #28]
 8001d66:	6878      	ldr	r0, [r7, #4]
 8001d68:	f7ff ffa0 	bl	8001cac <gotoxy>
   			 if (y==y1){
 8001d6c:	69fa      	ldr	r2, [r7, #28]
 8001d6e:	68bb      	ldr	r3, [r7, #8]
 8001d70:	429a      	cmp	r2, r3
 8001d72:	d103      	bne.n	8001d7c <drawBox+0xac>
				printf("%c", 187);
 8001d74:	20bb      	movs	r0, #187	; 0xbb
 8001d76:	f004 fc2b 	bl	80065d0 <putchar>
 8001d7a:	e00a      	b.n	8001d92 <drawBox+0xc2>
			 }
			 else if(y==y2){
 8001d7c:	69fa      	ldr	r2, [r7, #28]
 8001d7e:	683b      	ldr	r3, [r7, #0]
 8001d80:	429a      	cmp	r2, r3
 8001d82:	d103      	bne.n	8001d8c <drawBox+0xbc>
				printf("%c", 188);
 8001d84:	20bc      	movs	r0, #188	; 0xbc
 8001d86:	f004 fc23 	bl	80065d0 <putchar>
 8001d8a:	e002      	b.n	8001d92 <drawBox+0xc2>
			 }
			 else {
				printf("%c", 186);
 8001d8c:	20ba      	movs	r0, #186	; 0xba
 8001d8e:	f004 fc1f 	bl	80065d0 <putchar>
   		 for(int y = y1; y <= y2; y++){
 8001d92:	69fb      	ldr	r3, [r7, #28]
 8001d94:	3301      	adds	r3, #1
 8001d96:	61fb      	str	r3, [r7, #28]
 8001d98:	69fa      	ldr	r2, [r7, #28]
 8001d9a:	683b      	ldr	r3, [r7, #0]
 8001d9c:	429a      	cmp	r2, r3
 8001d9e:	dde1      	ble.n	8001d64 <drawBox+0x94>
			 else {
				printf("%c", 179);
			 }
		 }
	}
}
 8001da0:	e05d      	b.n	8001e5e <drawBox+0x18e>
		for(int y = y1; y <= y2; y++){
 8001da2:	68bb      	ldr	r3, [r7, #8]
 8001da4:	61bb      	str	r3, [r7, #24]
 8001da6:	e019      	b.n	8001ddc <drawBox+0x10c>
			 gotoxy(x1,y);
 8001da8:	69b9      	ldr	r1, [r7, #24]
 8001daa:	68f8      	ldr	r0, [r7, #12]
 8001dac:	f7ff ff7e 	bl	8001cac <gotoxy>
			 if (y==y1){
 8001db0:	69ba      	ldr	r2, [r7, #24]
 8001db2:	68bb      	ldr	r3, [r7, #8]
 8001db4:	429a      	cmp	r2, r3
 8001db6:	d103      	bne.n	8001dc0 <drawBox+0xf0>
				printf("%c", 218);
 8001db8:	20da      	movs	r0, #218	; 0xda
 8001dba:	f004 fc09 	bl	80065d0 <putchar>
 8001dbe:	e00a      	b.n	8001dd6 <drawBox+0x106>
			 else if(y==y2){
 8001dc0:	69ba      	ldr	r2, [r7, #24]
 8001dc2:	683b      	ldr	r3, [r7, #0]
 8001dc4:	429a      	cmp	r2, r3
 8001dc6:	d103      	bne.n	8001dd0 <drawBox+0x100>
				printf("%c", 192);
 8001dc8:	20c0      	movs	r0, #192	; 0xc0
 8001dca:	f004 fc01 	bl	80065d0 <putchar>
 8001dce:	e002      	b.n	8001dd6 <drawBox+0x106>
				printf("%c", 179);
 8001dd0:	20b3      	movs	r0, #179	; 0xb3
 8001dd2:	f004 fbfd 	bl	80065d0 <putchar>
		for(int y = y1; y <= y2; y++){
 8001dd6:	69bb      	ldr	r3, [r7, #24]
 8001dd8:	3301      	adds	r3, #1
 8001dda:	61bb      	str	r3, [r7, #24]
 8001ddc:	69ba      	ldr	r2, [r7, #24]
 8001dde:	683b      	ldr	r3, [r7, #0]
 8001de0:	429a      	cmp	r2, r3
 8001de2:	dde1      	ble.n	8001da8 <drawBox+0xd8>
		for(int x = x1; x <= x2; x++){
 8001de4:	68fb      	ldr	r3, [r7, #12]
 8001de6:	617b      	str	r3, [r7, #20]
 8001de8:	e014      	b.n	8001e14 <drawBox+0x144>
			if(x!=x1){
 8001dea:	697a      	ldr	r2, [r7, #20]
 8001dec:	68fb      	ldr	r3, [r7, #12]
 8001dee:	429a      	cmp	r2, r3
 8001df0:	d00d      	beq.n	8001e0e <drawBox+0x13e>
				 gotoxy(x,y1);
 8001df2:	68b9      	ldr	r1, [r7, #8]
 8001df4:	6978      	ldr	r0, [r7, #20]
 8001df6:	f7ff ff59 	bl	8001cac <gotoxy>
				 printf("%c", 196);
 8001dfa:	20c4      	movs	r0, #196	; 0xc4
 8001dfc:	f004 fbe8 	bl	80065d0 <putchar>
				 gotoxy(x,y2);
 8001e00:	6839      	ldr	r1, [r7, #0]
 8001e02:	6978      	ldr	r0, [r7, #20]
 8001e04:	f7ff ff52 	bl	8001cac <gotoxy>
				 printf("%c", 196);
 8001e08:	20c4      	movs	r0, #196	; 0xc4
 8001e0a:	f004 fbe1 	bl	80065d0 <putchar>
		for(int x = x1; x <= x2; x++){
 8001e0e:	697b      	ldr	r3, [r7, #20]
 8001e10:	3301      	adds	r3, #1
 8001e12:	617b      	str	r3, [r7, #20]
 8001e14:	697a      	ldr	r2, [r7, #20]
 8001e16:	687b      	ldr	r3, [r7, #4]
 8001e18:	429a      	cmp	r2, r3
 8001e1a:	dde6      	ble.n	8001dea <drawBox+0x11a>
		for(int y = y1; y <= y2; y++){
 8001e1c:	68bb      	ldr	r3, [r7, #8]
 8001e1e:	613b      	str	r3, [r7, #16]
 8001e20:	e019      	b.n	8001e56 <drawBox+0x186>
			 gotoxy(x2,y);
 8001e22:	6939      	ldr	r1, [r7, #16]
 8001e24:	6878      	ldr	r0, [r7, #4]
 8001e26:	f7ff ff41 	bl	8001cac <gotoxy>
			if (y==y1){
 8001e2a:	693a      	ldr	r2, [r7, #16]
 8001e2c:	68bb      	ldr	r3, [r7, #8]
 8001e2e:	429a      	cmp	r2, r3
 8001e30:	d103      	bne.n	8001e3a <drawBox+0x16a>
				printf("%c", 191);
 8001e32:	20bf      	movs	r0, #191	; 0xbf
 8001e34:	f004 fbcc 	bl	80065d0 <putchar>
 8001e38:	e00a      	b.n	8001e50 <drawBox+0x180>
			 else if(y==y2){
 8001e3a:	693a      	ldr	r2, [r7, #16]
 8001e3c:	683b      	ldr	r3, [r7, #0]
 8001e3e:	429a      	cmp	r2, r3
 8001e40:	d103      	bne.n	8001e4a <drawBox+0x17a>
				printf("%c", 217);
 8001e42:	20d9      	movs	r0, #217	; 0xd9
 8001e44:	f004 fbc4 	bl	80065d0 <putchar>
 8001e48:	e002      	b.n	8001e50 <drawBox+0x180>
				printf("%c", 179);
 8001e4a:	20b3      	movs	r0, #179	; 0xb3
 8001e4c:	f004 fbc0 	bl	80065d0 <putchar>
		for(int y = y1; y <= y2; y++){
 8001e50:	693b      	ldr	r3, [r7, #16]
 8001e52:	3301      	adds	r3, #1
 8001e54:	613b      	str	r3, [r7, #16]
 8001e56:	693a      	ldr	r2, [r7, #16]
 8001e58:	683b      	ldr	r3, [r7, #0]
 8001e5a:	429a      	cmp	r2, r3
 8001e5c:	dde1      	ble.n	8001e22 <drawBox+0x152>
}
 8001e5e:	bf00      	nop
 8001e60:	3728      	adds	r7, #40	; 0x28
 8001e62:	46bd      	mov	sp, r7
 8001e64:	bd80      	pop	{r7, pc}

08001e66 <updateBullets>:
/**
  * @brief  Updates the position of all the bullets according to their velocities and thier velocities according the gravity from the moon
  * @param  gamestate: the current state of the game
  * @retval None
  */
void updateBullets(gameState_t* gameState){
 8001e66:	b590      	push	{r4, r7, lr}
 8001e68:	b089      	sub	sp, #36	; 0x24
 8001e6a:	af00      	add	r7, sp, #0
 8001e6c:	6078      	str	r0, [r7, #4]
	bulletNode_t* current = gameState->bulletLL;
 8001e6e:	687b      	ldr	r3, [r7, #4]
 8001e70:	681b      	ldr	r3, [r3, #0]
 8001e72:	61fb      	str	r3, [r7, #28]
	//Loops though the bullet linked list
	while (current != NULL) {
 8001e74:	e073      	b.n	8001f5e <updateBullets+0xf8>
		//Gravity calculations for bullets
		vector_t v = {intToFp(gameState->moon.x)-current->bullet.position.x, intToFp(gameState->moon.y)-current->bullet.position.y}; //Creates a vector from bullet to the moon
 8001e76:	687b      	ldr	r3, [r7, #4]
 8001e78:	7b1b      	ldrb	r3, [r3, #12]
 8001e7a:	b29b      	uxth	r3, r3
 8001e7c:	4618      	mov	r0, r3
 8001e7e:	f001 fa86 	bl	800338e <intToFp>
 8001e82:	4602      	mov	r2, r0
 8001e84:	69fb      	ldr	r3, [r7, #28]
 8001e86:	681b      	ldr	r3, [r3, #0]
 8001e88:	1ad3      	subs	r3, r2, r3
 8001e8a:	617b      	str	r3, [r7, #20]
 8001e8c:	687b      	ldr	r3, [r7, #4]
 8001e8e:	7b5b      	ldrb	r3, [r3, #13]
 8001e90:	b29b      	uxth	r3, r3
 8001e92:	4618      	mov	r0, r3
 8001e94:	f001 fa7b 	bl	800338e <intToFp>
 8001e98:	4602      	mov	r2, r0
 8001e9a:	69fb      	ldr	r3, [r7, #28]
 8001e9c:	685b      	ldr	r3, [r3, #4]
 8001e9e:	1ad3      	subs	r3, r2, r3
 8001ea0:	61bb      	str	r3, [r7, #24]
		current->bullet.distanceToMoon = fpMultiply(fpAbs(v.x)+fpAbs(v.y), 0x0000b400); //Approximates the distance to the moon by multiplying the sum of the vector-coordinates by 2/sqrt(2)
 8001ea2:	697b      	ldr	r3, [r7, #20]
 8001ea4:	4618      	mov	r0, r3
 8001ea6:	f001 fb13 	bl	80034d0 <fpAbs>
 8001eaa:	4604      	mov	r4, r0
 8001eac:	69bb      	ldr	r3, [r7, #24]
 8001eae:	4618      	mov	r0, r3
 8001eb0:	f001 fb0e 	bl	80034d0 <fpAbs>
 8001eb4:	4603      	mov	r3, r0
 8001eb6:	4423      	add	r3, r4
 8001eb8:	f44f 4134 	mov.w	r1, #46080	; 0xb400
 8001ebc:	4618      	mov	r0, r3
 8001ebe:	f001 fa9c 	bl	80033fa <fpMultiply>
 8001ec2:	4602      	mov	r2, r0
 8001ec4:	69fb      	ldr	r3, [r7, #28]
 8001ec6:	619a      	str	r2, [r3, #24]
		v = scaleVector(v, fpDivide(intToFp(1),current->bullet.distanceToMoon)); //scales the vector to a length of 1
 8001ec8:	2001      	movs	r0, #1
 8001eca:	f001 fa60 	bl	800338e <intToFp>
 8001ece:	4602      	mov	r2, r0
 8001ed0:	69fb      	ldr	r3, [r7, #28]
 8001ed2:	699b      	ldr	r3, [r3, #24]
 8001ed4:	4619      	mov	r1, r3
 8001ed6:	4610      	mov	r0, r2
 8001ed8:	f001 fab0 	bl	800343c <fpDivide>
 8001edc:	4603      	mov	r3, r0
 8001ede:	f107 0014 	add.w	r0, r7, #20
 8001ee2:	f107 0214 	add.w	r2, r7, #20
 8001ee6:	ca06      	ldmia	r2, {r1, r2}
 8001ee8:	f001 fad0 	bl	800348c <scaleVector>
		vector_t accVec = scaleVector(v, fpDivide(intToFp(gameState->moon.mass),fpMultiply(current->bullet.distanceToMoon, current->bullet.distanceToMoon))); //Scale the vector proportional to the distance to the moon
 8001eec:	687b      	ldr	r3, [r7, #4]
 8001eee:	7b9b      	ldrb	r3, [r3, #14]
 8001ef0:	b29b      	uxth	r3, r3
 8001ef2:	4618      	mov	r0, r3
 8001ef4:	f001 fa4b 	bl	800338e <intToFp>
 8001ef8:	4604      	mov	r4, r0
 8001efa:	69fb      	ldr	r3, [r7, #28]
 8001efc:	699a      	ldr	r2, [r3, #24]
 8001efe:	69fb      	ldr	r3, [r7, #28]
 8001f00:	699b      	ldr	r3, [r3, #24]
 8001f02:	4619      	mov	r1, r3
 8001f04:	4610      	mov	r0, r2
 8001f06:	f001 fa78 	bl	80033fa <fpMultiply>
 8001f0a:	4603      	mov	r3, r0
 8001f0c:	4619      	mov	r1, r3
 8001f0e:	4620      	mov	r0, r4
 8001f10:	f001 fa94 	bl	800343c <fpDivide>
 8001f14:	4603      	mov	r3, r0
 8001f16:	f107 000c 	add.w	r0, r7, #12
 8001f1a:	f107 0214 	add.w	r2, r7, #20
 8001f1e:	ca06      	ldmia	r2, {r1, r2}
 8001f20:	f001 fab4 	bl	800348c <scaleVector>

		//Adds acceleration to the bullets velocity
		current->bullet.velocity.x+=accVec.x;
 8001f24:	69fb      	ldr	r3, [r7, #28]
 8001f26:	691a      	ldr	r2, [r3, #16]
 8001f28:	68fb      	ldr	r3, [r7, #12]
 8001f2a:	441a      	add	r2, r3
 8001f2c:	69fb      	ldr	r3, [r7, #28]
 8001f2e:	611a      	str	r2, [r3, #16]
		current->bullet.velocity.y+=accVec.y;
 8001f30:	69fb      	ldr	r3, [r7, #28]
 8001f32:	695a      	ldr	r2, [r3, #20]
 8001f34:	693b      	ldr	r3, [r7, #16]
 8001f36:	441a      	add	r2, r3
 8001f38:	69fb      	ldr	r3, [r7, #28]
 8001f3a:	615a      	str	r2, [r3, #20]

		//Adds velocity to the bullets position
		current->bullet.nextPosition.x=current->bullet.position.x+current->bullet.velocity.x;
 8001f3c:	69fb      	ldr	r3, [r7, #28]
 8001f3e:	681a      	ldr	r2, [r3, #0]
 8001f40:	69fb      	ldr	r3, [r7, #28]
 8001f42:	691b      	ldr	r3, [r3, #16]
 8001f44:	441a      	add	r2, r3
 8001f46:	69fb      	ldr	r3, [r7, #28]
 8001f48:	609a      	str	r2, [r3, #8]
		current->bullet.nextPosition.y=current->bullet.position.y+current->bullet.velocity.y;
 8001f4a:	69fb      	ldr	r3, [r7, #28]
 8001f4c:	685a      	ldr	r2, [r3, #4]
 8001f4e:	69fb      	ldr	r3, [r7, #28]
 8001f50:	695b      	ldr	r3, [r3, #20]
 8001f52:	441a      	add	r2, r3
 8001f54:	69fb      	ldr	r3, [r7, #28]
 8001f56:	60da      	str	r2, [r3, #12]
		current = current->nextBulletAddress;
 8001f58:	69fb      	ldr	r3, [r7, #28]
 8001f5a:	69db      	ldr	r3, [r3, #28]
 8001f5c:	61fb      	str	r3, [r7, #28]
	while (current != NULL) {
 8001f5e:	69fb      	ldr	r3, [r7, #28]
 8001f60:	2b00      	cmp	r3, #0
 8001f62:	d188      	bne.n	8001e76 <updateBullets+0x10>
	}

}
 8001f64:	bf00      	nop
 8001f66:	bf00      	nop
 8001f68:	3724      	adds	r7, #36	; 0x24
 8001f6a:	46bd      	mov	sp, r7
 8001f6c:	bd90      	pop	{r4, r7, pc}

08001f6e <detectBulletHit>:
/**
  * @brief  Checks if a bullets has hit something
  * @param  gamestate: the current state of the game
  * @retval None
  */
void detectBulletHit(gameState_t* gameState){
 8001f6e:	b590      	push	{r4, r7, lr}
 8001f70:	b087      	sub	sp, #28
 8001f72:	af00      	add	r7, sp, #0
 8001f74:	6078      	str	r0, [r7, #4]
	bulletNode_t* current = gameState->bulletLL;
 8001f76:	687b      	ldr	r3, [r7, #4]
 8001f78:	681b      	ldr	r3, [r3, #0]
 8001f7a:	617b      	str	r3, [r7, #20]
	//Loops over all bullets
	while (current != NULL) {
 8001f7c:	e1a1      	b.n	80022c2 <detectBulletHit+0x354>

		uint8_t distToMoon = fpToInt(current->bullet.distanceToMoon);
 8001f7e:	697b      	ldr	r3, [r7, #20]
 8001f80:	699b      	ldr	r3, [r3, #24]
 8001f82:	4618      	mov	r0, r3
 8001f84:	f001 fa18 	bl	80033b8 <fpToInt>
 8001f88:	4603      	mov	r3, r0
 8001f8a:	72fb      	strb	r3, [r7, #11]

		uint8_t hitInertObject = fpToInt(current->bullet.nextPosition.y)<=2*yScale ||
 8001f8c:	697b      	ldr	r3, [r7, #20]
 8001f8e:	68db      	ldr	r3, [r3, #12]
 8001f90:	4618      	mov	r0, r3
 8001f92:	f001 fa11 	bl	80033b8 <fpToInt>
 8001f96:	4603      	mov	r3, r0
				fpToInt(current->bullet.nextPosition.y)>=43*yScale ||
				fpToInt(current->bullet.nextPosition.x)<=1 ||
				fpToInt(current->bullet.nextPosition.x)>=156 ||
 8001f98:	2b04      	cmp	r3, #4
 8001f9a:	dd1a      	ble.n	8001fd2 <detectBulletHit+0x64>
				fpToInt(current->bullet.nextPosition.y)>=43*yScale ||
 8001f9c:	697b      	ldr	r3, [r7, #20]
 8001f9e:	68db      	ldr	r3, [r3, #12]
 8001fa0:	4618      	mov	r0, r3
 8001fa2:	f001 fa09 	bl	80033b8 <fpToInt>
 8001fa6:	4603      	mov	r3, r0
		uint8_t hitInertObject = fpToInt(current->bullet.nextPosition.y)<=2*yScale ||
 8001fa8:	2b55      	cmp	r3, #85	; 0x55
 8001faa:	dc12      	bgt.n	8001fd2 <detectBulletHit+0x64>
				fpToInt(current->bullet.nextPosition.x)<=1 ||
 8001fac:	697b      	ldr	r3, [r7, #20]
 8001fae:	689b      	ldr	r3, [r3, #8]
 8001fb0:	4618      	mov	r0, r3
 8001fb2:	f001 fa01 	bl	80033b8 <fpToInt>
 8001fb6:	4603      	mov	r3, r0
				fpToInt(current->bullet.nextPosition.y)>=43*yScale ||
 8001fb8:	2b01      	cmp	r3, #1
 8001fba:	dd0a      	ble.n	8001fd2 <detectBulletHit+0x64>
				fpToInt(current->bullet.nextPosition.x)>=156 ||
 8001fbc:	697b      	ldr	r3, [r7, #20]
 8001fbe:	689b      	ldr	r3, [r3, #8]
 8001fc0:	4618      	mov	r0, r3
 8001fc2:	f001 f9f9 	bl	80033b8 <fpToInt>
 8001fc6:	4603      	mov	r3, r0
				fpToInt(current->bullet.nextPosition.x)<=1 ||
 8001fc8:	2b9b      	cmp	r3, #155	; 0x9b
 8001fca:	dc02      	bgt.n	8001fd2 <detectBulletHit+0x64>
				fpToInt(current->bullet.nextPosition.x)>=156 ||
 8001fcc:	7afb      	ldrb	r3, [r7, #11]
 8001fce:	2b06      	cmp	r3, #6
 8001fd0:	d801      	bhi.n	8001fd6 <detectBulletHit+0x68>
 8001fd2:	2301      	movs	r3, #1
 8001fd4:	e000      	b.n	8001fd8 <detectBulletHit+0x6a>
 8001fd6:	2300      	movs	r3, #0
		uint8_t hitInertObject = fpToInt(current->bullet.nextPosition.y)<=2*yScale ||
 8001fd8:	72bb      	strb	r3, [r7, #10]
				distToMoon<=6;

		//Checks if the bullet hit the moon or a wall
		if(hitInertObject){
 8001fda:	7abb      	ldrb	r3, [r7, #10]
 8001fdc:	2b00      	cmp	r3, #0
 8001fde:	d008      	beq.n	8001ff2 <detectBulletHit+0x84>
			deleteBulletNode(&(gameState->bulletLL), current);
 8001fe0:	687b      	ldr	r3, [r7, #4]
 8001fe2:	6979      	ldr	r1, [r7, #20]
 8001fe4:	4618      	mov	r0, r3
 8001fe6:	f002 fe6f 	bl	8004cc8 <deleteBulletNode>
			current = current->nextBulletAddress;
 8001fea:	697b      	ldr	r3, [r7, #20]
 8001fec:	69db      	ldr	r3, [r3, #28]
 8001fee:	617b      	str	r3, [r7, #20]
			continue;
 8001ff0:	e167      	b.n	80022c2 <detectBulletHit+0x354>
		}

		//Checks if the bullet hit the spaceship
		uint8_t hitSpaceship;
		if(gameState->spaceship.numberOfParts==1){
 8001ff2:	687b      	ldr	r3, [r7, #4]
 8001ff4:	f893 3028 	ldrb.w	r3, [r3, #40]	; 0x28
 8001ff8:	2b01      	cmp	r3, #1
 8001ffa:	d131      	bne.n	8002060 <detectBulletHit+0xf2>
			hitSpaceship = fpToInt(current->bullet.nextPosition.y)>=fpToInt(gameState->spaceship.position.y)-1 &&
 8001ffc:	697b      	ldr	r3, [r7, #20]
 8001ffe:	68db      	ldr	r3, [r3, #12]
 8002000:	4618      	mov	r0, r3
 8002002:	f001 f9d9 	bl	80033b8 <fpToInt>
 8002006:	4604      	mov	r4, r0
 8002008:	687b      	ldr	r3, [r7, #4]
 800200a:	69db      	ldr	r3, [r3, #28]
 800200c:	4618      	mov	r0, r3
 800200e:	f001 f9d3 	bl	80033b8 <fpToInt>
 8002012:	4603      	mov	r3, r0
 8002014:	3b01      	subs	r3, #1
 8002016:	429c      	cmp	r4, r3
 8002018:	db1f      	blt.n	800205a <detectBulletHit+0xec>
						(fpToInt(current->bullet.nextPosition.x)>=fpToInt(gameState->spaceship.position.x)-1 &&
 800201a:	697b      	ldr	r3, [r7, #20]
 800201c:	689b      	ldr	r3, [r3, #8]
 800201e:	4618      	mov	r0, r3
 8002020:	f001 f9ca 	bl	80033b8 <fpToInt>
 8002024:	4604      	mov	r4, r0
 8002026:	687b      	ldr	r3, [r7, #4]
 8002028:	699b      	ldr	r3, [r3, #24]
 800202a:	4618      	mov	r0, r3
 800202c:	f001 f9c4 	bl	80033b8 <fpToInt>
 8002030:	4603      	mov	r3, r0
 8002032:	3b01      	subs	r3, #1
			hitSpaceship = fpToInt(current->bullet.nextPosition.y)>=fpToInt(gameState->spaceship.position.y)-1 &&
 8002034:	429c      	cmp	r4, r3
 8002036:	db10      	blt.n	800205a <detectBulletHit+0xec>
						fpToInt(current->bullet.nextPosition.x)<=fpToInt(gameState->spaceship.position.x)+1);
 8002038:	697b      	ldr	r3, [r7, #20]
 800203a:	689b      	ldr	r3, [r3, #8]
 800203c:	4618      	mov	r0, r3
 800203e:	f001 f9bb 	bl	80033b8 <fpToInt>
 8002042:	4604      	mov	r4, r0
 8002044:	687b      	ldr	r3, [r7, #4]
 8002046:	699b      	ldr	r3, [r3, #24]
 8002048:	4618      	mov	r0, r3
 800204a:	f001 f9b5 	bl	80033b8 <fpToInt>
 800204e:	4603      	mov	r3, r0
 8002050:	3301      	adds	r3, #1
						(fpToInt(current->bullet.nextPosition.x)>=fpToInt(gameState->spaceship.position.x)-1 &&
 8002052:	429c      	cmp	r4, r3
 8002054:	dc01      	bgt.n	800205a <detectBulletHit+0xec>
			hitSpaceship = fpToInt(current->bullet.nextPosition.y)>=fpToInt(gameState->spaceship.position.y)-1 &&
 8002056:	2301      	movs	r3, #1
 8002058:	e000      	b.n	800205c <detectBulletHit+0xee>
 800205a:	2300      	movs	r3, #0
 800205c:	74fb      	strb	r3, [r7, #19]
 800205e:	e06c      	b.n	800213a <detectBulletHit+0x1cc>
		}
		else if(gameState->spaceship.numberOfParts==2){
 8002060:	687b      	ldr	r3, [r7, #4]
 8002062:	f893 3028 	ldrb.w	r3, [r3, #40]	; 0x28
 8002066:	2b02      	cmp	r3, #2
 8002068:	d131      	bne.n	80020ce <detectBulletHit+0x160>
			hitSpaceship = fpToInt(current->bullet.nextPosition.y)>=fpToInt(gameState->spaceship.position.y)-1 &&
 800206a:	697b      	ldr	r3, [r7, #20]
 800206c:	68db      	ldr	r3, [r3, #12]
 800206e:	4618      	mov	r0, r3
 8002070:	f001 f9a2 	bl	80033b8 <fpToInt>
 8002074:	4604      	mov	r4, r0
 8002076:	687b      	ldr	r3, [r7, #4]
 8002078:	69db      	ldr	r3, [r3, #28]
 800207a:	4618      	mov	r0, r3
 800207c:	f001 f99c 	bl	80033b8 <fpToInt>
 8002080:	4603      	mov	r3, r0
 8002082:	3b01      	subs	r3, #1
 8002084:	429c      	cmp	r4, r3
 8002086:	db1f      	blt.n	80020c8 <detectBulletHit+0x15a>
							(fpToInt(current->bullet.nextPosition.x)>=fpToInt(gameState->spaceship.position.x)-1 &&
 8002088:	697b      	ldr	r3, [r7, #20]
 800208a:	689b      	ldr	r3, [r3, #8]
 800208c:	4618      	mov	r0, r3
 800208e:	f001 f993 	bl	80033b8 <fpToInt>
 8002092:	4604      	mov	r4, r0
 8002094:	687b      	ldr	r3, [r7, #4]
 8002096:	699b      	ldr	r3, [r3, #24]
 8002098:	4618      	mov	r0, r3
 800209a:	f001 f98d 	bl	80033b8 <fpToInt>
 800209e:	4603      	mov	r3, r0
 80020a0:	3b01      	subs	r3, #1
			hitSpaceship = fpToInt(current->bullet.nextPosition.y)>=fpToInt(gameState->spaceship.position.y)-1 &&
 80020a2:	429c      	cmp	r4, r3
 80020a4:	db10      	blt.n	80020c8 <detectBulletHit+0x15a>
							fpToInt(current->bullet.nextPosition.x)<=fpToInt(gameState->spaceship.position.x)+9);
 80020a6:	697b      	ldr	r3, [r7, #20]
 80020a8:	689b      	ldr	r3, [r3, #8]
 80020aa:	4618      	mov	r0, r3
 80020ac:	f001 f984 	bl	80033b8 <fpToInt>
 80020b0:	4604      	mov	r4, r0
 80020b2:	687b      	ldr	r3, [r7, #4]
 80020b4:	699b      	ldr	r3, [r3, #24]
 80020b6:	4618      	mov	r0, r3
 80020b8:	f001 f97e 	bl	80033b8 <fpToInt>
 80020bc:	4603      	mov	r3, r0
 80020be:	3309      	adds	r3, #9
							(fpToInt(current->bullet.nextPosition.x)>=fpToInt(gameState->spaceship.position.x)-1 &&
 80020c0:	429c      	cmp	r4, r3
 80020c2:	dc01      	bgt.n	80020c8 <detectBulletHit+0x15a>
			hitSpaceship = fpToInt(current->bullet.nextPosition.y)>=fpToInt(gameState->spaceship.position.y)-1 &&
 80020c4:	2301      	movs	r3, #1
 80020c6:	e000      	b.n	80020ca <detectBulletHit+0x15c>
 80020c8:	2300      	movs	r3, #0
 80020ca:	74fb      	strb	r3, [r7, #19]
 80020cc:	e035      	b.n	800213a <detectBulletHit+0x1cc>
		}
		else if(gameState->spaceship.numberOfParts==3){
 80020ce:	687b      	ldr	r3, [r7, #4]
 80020d0:	f893 3028 	ldrb.w	r3, [r3, #40]	; 0x28
 80020d4:	2b03      	cmp	r3, #3
 80020d6:	d130      	bne.n	800213a <detectBulletHit+0x1cc>
			hitSpaceship = fpToInt(current->bullet.nextPosition.y)>=fpToInt(gameState->spaceship.position.y)-1 &&
 80020d8:	697b      	ldr	r3, [r7, #20]
 80020da:	68db      	ldr	r3, [r3, #12]
 80020dc:	4618      	mov	r0, r3
 80020de:	f001 f96b 	bl	80033b8 <fpToInt>
 80020e2:	4604      	mov	r4, r0
 80020e4:	687b      	ldr	r3, [r7, #4]
 80020e6:	69db      	ldr	r3, [r3, #28]
 80020e8:	4618      	mov	r0, r3
 80020ea:	f001 f965 	bl	80033b8 <fpToInt>
 80020ee:	4603      	mov	r3, r0
 80020f0:	3b01      	subs	r3, #1
 80020f2:	429c      	cmp	r4, r3
 80020f4:	db1f      	blt.n	8002136 <detectBulletHit+0x1c8>
							(fpToInt(current->bullet.nextPosition.x)>=fpToInt(gameState->spaceship.position.x)-9 &&
 80020f6:	697b      	ldr	r3, [r7, #20]
 80020f8:	689b      	ldr	r3, [r3, #8]
 80020fa:	4618      	mov	r0, r3
 80020fc:	f001 f95c 	bl	80033b8 <fpToInt>
 8002100:	4604      	mov	r4, r0
 8002102:	687b      	ldr	r3, [r7, #4]
 8002104:	699b      	ldr	r3, [r3, #24]
 8002106:	4618      	mov	r0, r3
 8002108:	f001 f956 	bl	80033b8 <fpToInt>
 800210c:	4603      	mov	r3, r0
 800210e:	3b09      	subs	r3, #9
			hitSpaceship = fpToInt(current->bullet.nextPosition.y)>=fpToInt(gameState->spaceship.position.y)-1 &&
 8002110:	429c      	cmp	r4, r3
 8002112:	db10      	blt.n	8002136 <detectBulletHit+0x1c8>
							fpToInt(current->bullet.nextPosition.x)<=fpToInt(gameState->spaceship.position.x)+9);
 8002114:	697b      	ldr	r3, [r7, #20]
 8002116:	689b      	ldr	r3, [r3, #8]
 8002118:	4618      	mov	r0, r3
 800211a:	f001 f94d 	bl	80033b8 <fpToInt>
 800211e:	4604      	mov	r4, r0
 8002120:	687b      	ldr	r3, [r7, #4]
 8002122:	699b      	ldr	r3, [r3, #24]
 8002124:	4618      	mov	r0, r3
 8002126:	f001 f947 	bl	80033b8 <fpToInt>
 800212a:	4603      	mov	r3, r0
 800212c:	3309      	adds	r3, #9
							(fpToInt(current->bullet.nextPosition.x)>=fpToInt(gameState->spaceship.position.x)-9 &&
 800212e:	429c      	cmp	r4, r3
 8002130:	dc01      	bgt.n	8002136 <detectBulletHit+0x1c8>
			hitSpaceship = fpToInt(current->bullet.nextPosition.y)>=fpToInt(gameState->spaceship.position.y)-1 &&
 8002132:	2301      	movs	r3, #1
 8002134:	e000      	b.n	8002138 <detectBulletHit+0x1ca>
 8002136:	2300      	movs	r3, #0
 8002138:	74fb      	strb	r3, [r7, #19]
		}

		//If a hit deletes a part of the spaceship
		if(hitSpaceship){
 800213a:	7cfb      	ldrb	r3, [r7, #19]
 800213c:	2b00      	cmp	r3, #0
 800213e:	d055      	beq.n	80021ec <detectBulletHit+0x27e>
			gameState->soundToPlay = 4;
 8002140:	687b      	ldr	r3, [r7, #4]
 8002142:	2204      	movs	r2, #4
 8002144:	f883 2064 	strb.w	r2, [r3, #100]	; 0x64

			if(gameState->spaceship.numberOfParts==3){
 8002148:	687b      	ldr	r3, [r7, #4]
 800214a:	f893 3028 	ldrb.w	r3, [r3, #40]	; 0x28
 800214e:	2b03      	cmp	r3, #3
 8002150:	d11f      	bne.n	8002192 <detectBulletHit+0x224>
				deleteMe(fpToInt(gameState->spaceship.position.x)-7, fpToInt(gameState->spaceship.position.y)/yScale);
 8002152:	687b      	ldr	r3, [r7, #4]
 8002154:	699b      	ldr	r3, [r3, #24]
 8002156:	4618      	mov	r0, r3
 8002158:	f001 f92e 	bl	80033b8 <fpToInt>
 800215c:	4603      	mov	r3, r0
 800215e:	b2db      	uxtb	r3, r3
 8002160:	3b07      	subs	r3, #7
 8002162:	b2dc      	uxtb	r4, r3
 8002164:	687b      	ldr	r3, [r7, #4]
 8002166:	69db      	ldr	r3, [r3, #28]
 8002168:	4618      	mov	r0, r3
 800216a:	f001 f925 	bl	80033b8 <fpToInt>
 800216e:	4603      	mov	r3, r0
 8002170:	0fda      	lsrs	r2, r3, #31
 8002172:	4413      	add	r3, r2
 8002174:	105b      	asrs	r3, r3, #1
 8002176:	b2db      	uxtb	r3, r3
 8002178:	4619      	mov	r1, r3
 800217a:	4620      	mov	r0, r4
 800217c:	f002 f861 	bl	8004242 <deleteMe>
				gameState->spaceship.numberOfParts--;
 8002180:	687b      	ldr	r3, [r7, #4]
 8002182:	f893 3028 	ldrb.w	r3, [r3, #40]	; 0x28
 8002186:	3b01      	subs	r3, #1
 8002188:	b2da      	uxtb	r2, r3
 800218a:	687b      	ldr	r3, [r7, #4]
 800218c:	f883 2028 	strb.w	r2, [r3, #40]	; 0x28
 8002190:	e023      	b.n	80021da <detectBulletHit+0x26c>
			} else if(gameState->spaceship.numberOfParts==2){
 8002192:	687b      	ldr	r3, [r7, #4]
 8002194:	f893 3028 	ldrb.w	r3, [r3, #40]	; 0x28
 8002198:	2b02      	cmp	r3, #2
 800219a:	d11e      	bne.n	80021da <detectBulletHit+0x26c>
				deleteMe(fpToInt(gameState->spaceship.position.x)+7, fpToInt(gameState->spaceship.position.y)/yScale);
 800219c:	687b      	ldr	r3, [r7, #4]
 800219e:	699b      	ldr	r3, [r3, #24]
 80021a0:	4618      	mov	r0, r3
 80021a2:	f001 f909 	bl	80033b8 <fpToInt>
 80021a6:	4603      	mov	r3, r0
 80021a8:	b2db      	uxtb	r3, r3
 80021aa:	3307      	adds	r3, #7
 80021ac:	b2dc      	uxtb	r4, r3
 80021ae:	687b      	ldr	r3, [r7, #4]
 80021b0:	69db      	ldr	r3, [r3, #28]
 80021b2:	4618      	mov	r0, r3
 80021b4:	f001 f900 	bl	80033b8 <fpToInt>
 80021b8:	4603      	mov	r3, r0
 80021ba:	0fda      	lsrs	r2, r3, #31
 80021bc:	4413      	add	r3, r2
 80021be:	105b      	asrs	r3, r3, #1
 80021c0:	b2db      	uxtb	r3, r3
 80021c2:	4619      	mov	r1, r3
 80021c4:	4620      	mov	r0, r4
 80021c6:	f002 f83c 	bl	8004242 <deleteMe>
				gameState->spaceship.numberOfParts--;
 80021ca:	687b      	ldr	r3, [r7, #4]
 80021cc:	f893 3028 	ldrb.w	r3, [r3, #40]	; 0x28
 80021d0:	3b01      	subs	r3, #1
 80021d2:	b2da      	uxtb	r2, r3
 80021d4:	687b      	ldr	r3, [r7, #4]
 80021d6:	f883 2028 	strb.w	r2, [r3, #40]	; 0x28
			}

			deleteBulletNode(&(gameState->bulletLL), current);
 80021da:	687b      	ldr	r3, [r7, #4]
 80021dc:	6979      	ldr	r1, [r7, #20]
 80021de:	4618      	mov	r0, r3
 80021e0:	f002 fd72 	bl	8004cc8 <deleteBulletNode>
			current = current->nextBulletAddress;
 80021e4:	697b      	ldr	r3, [r7, #20]
 80021e6:	69db      	ldr	r3, [r3, #28]
 80021e8:	617b      	str	r3, [r7, #20]
			continue;
 80021ea:	e06a      	b.n	80022c2 <detectBulletHit+0x354>
		}


		//Loops over all the enemies and checks for hits
		enemyNode_t* currentEnemy = gameState->enemyLL;
 80021ec:	687b      	ldr	r3, [r7, #4]
 80021ee:	685b      	ldr	r3, [r3, #4]
 80021f0:	60fb      	str	r3, [r7, #12]
		while(currentEnemy != NULL){
 80021f2:	e060      	b.n	80022b6 <detectBulletHit+0x348>
			uint8_t hitEnemy = 0;
 80021f4:	2300      	movs	r3, #0
 80021f6:	727b      	strb	r3, [r7, #9]
			hitEnemy = (fpToInt(current->bullet.position.x) >= fpToInt(currentEnemy->enemy->position->x) &&
 80021f8:	697b      	ldr	r3, [r7, #20]
 80021fa:	681b      	ldr	r3, [r3, #0]
 80021fc:	4618      	mov	r0, r3
 80021fe:	f001 f8db 	bl	80033b8 <fpToInt>
 8002202:	4604      	mov	r4, r0
 8002204:	68fb      	ldr	r3, [r7, #12]
 8002206:	681b      	ldr	r3, [r3, #0]
 8002208:	681b      	ldr	r3, [r3, #0]
 800220a:	681b      	ldr	r3, [r3, #0]
 800220c:	4618      	mov	r0, r3
 800220e:	f001 f8d3 	bl	80033b8 <fpToInt>
 8002212:	4603      	mov	r3, r0
					fpToInt(current->bullet.position.x) <= fpToInt(currentEnemy->enemy->position->x) + 7 &&
					fpToInt(current->bullet.position.y) >= fpToInt(currentEnemy->enemy->position->y) &&
 8002214:	429c      	cmp	r4, r3
 8002216:	db33      	blt.n	8002280 <detectBulletHit+0x312>
					fpToInt(current->bullet.position.x) <= fpToInt(currentEnemy->enemy->position->x) + 7 &&
 8002218:	697b      	ldr	r3, [r7, #20]
 800221a:	681b      	ldr	r3, [r3, #0]
 800221c:	4618      	mov	r0, r3
 800221e:	f001 f8cb 	bl	80033b8 <fpToInt>
 8002222:	4604      	mov	r4, r0
 8002224:	68fb      	ldr	r3, [r7, #12]
 8002226:	681b      	ldr	r3, [r3, #0]
 8002228:	681b      	ldr	r3, [r3, #0]
 800222a:	681b      	ldr	r3, [r3, #0]
 800222c:	4618      	mov	r0, r3
 800222e:	f001 f8c3 	bl	80033b8 <fpToInt>
 8002232:	4603      	mov	r3, r0
 8002234:	3307      	adds	r3, #7
			hitEnemy = (fpToInt(current->bullet.position.x) >= fpToInt(currentEnemy->enemy->position->x) &&
 8002236:	429c      	cmp	r4, r3
 8002238:	dc22      	bgt.n	8002280 <detectBulletHit+0x312>
					fpToInt(current->bullet.position.y) >= fpToInt(currentEnemy->enemy->position->y) &&
 800223a:	697b      	ldr	r3, [r7, #20]
 800223c:	685b      	ldr	r3, [r3, #4]
 800223e:	4618      	mov	r0, r3
 8002240:	f001 f8ba 	bl	80033b8 <fpToInt>
 8002244:	4604      	mov	r4, r0
 8002246:	68fb      	ldr	r3, [r7, #12]
 8002248:	681b      	ldr	r3, [r3, #0]
 800224a:	681b      	ldr	r3, [r3, #0]
 800224c:	685b      	ldr	r3, [r3, #4]
 800224e:	4618      	mov	r0, r3
 8002250:	f001 f8b2 	bl	80033b8 <fpToInt>
 8002254:	4603      	mov	r3, r0
					fpToInt(current->bullet.position.x) <= fpToInt(currentEnemy->enemy->position->x) + 7 &&
 8002256:	429c      	cmp	r4, r3
 8002258:	db12      	blt.n	8002280 <detectBulletHit+0x312>
					fpToInt(current->bullet.position.y) <= fpToInt(currentEnemy->enemy->position->y) + 1 * yScale);
 800225a:	697b      	ldr	r3, [r7, #20]
 800225c:	685b      	ldr	r3, [r3, #4]
 800225e:	4618      	mov	r0, r3
 8002260:	f001 f8aa 	bl	80033b8 <fpToInt>
 8002264:	4604      	mov	r4, r0
 8002266:	68fb      	ldr	r3, [r7, #12]
 8002268:	681b      	ldr	r3, [r3, #0]
 800226a:	681b      	ldr	r3, [r3, #0]
 800226c:	685b      	ldr	r3, [r3, #4]
 800226e:	4618      	mov	r0, r3
 8002270:	f001 f8a2 	bl	80033b8 <fpToInt>
 8002274:	4603      	mov	r3, r0
 8002276:	3302      	adds	r3, #2
					fpToInt(current->bullet.position.y) >= fpToInt(currentEnemy->enemy->position->y) &&
 8002278:	429c      	cmp	r4, r3
 800227a:	dc01      	bgt.n	8002280 <detectBulletHit+0x312>
 800227c:	2301      	movs	r3, #1
 800227e:	e000      	b.n	8002282 <detectBulletHit+0x314>
 8002280:	2300      	movs	r3, #0
			hitEnemy = (fpToInt(current->bullet.position.x) >= fpToInt(currentEnemy->enemy->position->x) &&
 8002282:	727b      	strb	r3, [r7, #9]
			if(hitEnemy == 1){
 8002284:	7a7b      	ldrb	r3, [r7, #9]
 8002286:	2b01      	cmp	r3, #1
 8002288:	d112      	bne.n	80022b0 <detectBulletHit+0x342>
				gameState->score += 10;
 800228a:	687b      	ldr	r3, [r7, #4]
 800228c:	8e5b      	ldrh	r3, [r3, #50]	; 0x32
 800228e:	330a      	adds	r3, #10
 8002290:	b29a      	uxth	r2, r3
 8002292:	687b      	ldr	r3, [r7, #4]
 8002294:	865a      	strh	r2, [r3, #50]	; 0x32
				drawScore(gameState);
 8002296:	6878      	ldr	r0, [r7, #4]
 8002298:	f001 ff5e 	bl	8004158 <drawScore>
				deleteBulletNode(&(gameState->bulletLL), current);
 800229c:	687b      	ldr	r3, [r7, #4]
 800229e:	6979      	ldr	r1, [r7, #20]
 80022a0:	4618      	mov	r0, r3
 80022a2:	f002 fd11 	bl	8004cc8 <deleteBulletNode>
				deleteEnemyNode(gameState, currentEnemy);
 80022a6:	68f9      	ldr	r1, [r7, #12]
 80022a8:	6878      	ldr	r0, [r7, #4]
 80022aa:	f002 fc59 	bl	8004b60 <deleteEnemyNode>
				break;
 80022ae:	e005      	b.n	80022bc <detectBulletHit+0x34e>
			}
			currentEnemy = currentEnemy->nextEnemyNode;
 80022b0:	68fb      	ldr	r3, [r7, #12]
 80022b2:	685b      	ldr	r3, [r3, #4]
 80022b4:	60fb      	str	r3, [r7, #12]
		while(currentEnemy != NULL){
 80022b6:	68fb      	ldr	r3, [r7, #12]
 80022b8:	2b00      	cmp	r3, #0
 80022ba:	d19b      	bne.n	80021f4 <detectBulletHit+0x286>
		}
		current = current->nextBulletAddress;
 80022bc:	697b      	ldr	r3, [r7, #20]
 80022be:	69db      	ldr	r3, [r3, #28]
 80022c0:	617b      	str	r3, [r7, #20]
	while (current != NULL) {
 80022c2:	697b      	ldr	r3, [r7, #20]
 80022c4:	2b00      	cmp	r3, #0
 80022c6:	f47f ae5a 	bne.w	8001f7e <detectBulletHit+0x10>
	}
}
 80022ca:	bf00      	nop
 80022cc:	bf00      	nop
 80022ce:	371c      	adds	r7, #28
 80022d0:	46bd      	mov	sp, r7
 80022d2:	bd90      	pop	{r4, r7, pc}

080022d4 <drawBullets>:
/**
  * @brief  draws all the bullets to the screen
  * @param  gamestate: the current state of the game
  * @retval None
  */
void drawBullets(gameState_t* gameState){
 80022d4:	b590      	push	{r4, r7, lr}
 80022d6:	b085      	sub	sp, #20
 80022d8:	af00      	add	r7, sp, #0
 80022da:	6078      	str	r0, [r7, #4]
	bulletNode_t* current = gameState->bulletLL;
 80022dc:	687b      	ldr	r3, [r7, #4]
 80022de:	681b      	ldr	r3, [r3, #0]
 80022e0:	60fb      	str	r3, [r7, #12]

	while (current != NULL) {
 80022e2:	e036      	b.n	8002352 <drawBullets+0x7e>
		gotoxy(fpToInt(current->bullet.position.x), fpToInt(current->bullet.position.y)/yScale);
 80022e4:	68fb      	ldr	r3, [r7, #12]
 80022e6:	681b      	ldr	r3, [r3, #0]
 80022e8:	4618      	mov	r0, r3
 80022ea:	f001 f865 	bl	80033b8 <fpToInt>
 80022ee:	4604      	mov	r4, r0
 80022f0:	68fb      	ldr	r3, [r7, #12]
 80022f2:	685b      	ldr	r3, [r3, #4]
 80022f4:	4618      	mov	r0, r3
 80022f6:	f001 f85f 	bl	80033b8 <fpToInt>
 80022fa:	4603      	mov	r3, r0
 80022fc:	0fda      	lsrs	r2, r3, #31
 80022fe:	4413      	add	r3, r2
 8002300:	105b      	asrs	r3, r3, #1
 8002302:	4619      	mov	r1, r3
 8002304:	4620      	mov	r0, r4
 8002306:	f7ff fcd1 	bl	8001cac <gotoxy>
		printf(" ");
 800230a:	2020      	movs	r0, #32
 800230c:	f004 f960 	bl	80065d0 <putchar>
		gotoxy(fpToInt(current->bullet.nextPosition.x), fpToInt(current->bullet.nextPosition.y)/yScale);
 8002310:	68fb      	ldr	r3, [r7, #12]
 8002312:	689b      	ldr	r3, [r3, #8]
 8002314:	4618      	mov	r0, r3
 8002316:	f001 f84f 	bl	80033b8 <fpToInt>
 800231a:	4604      	mov	r4, r0
 800231c:	68fb      	ldr	r3, [r7, #12]
 800231e:	68db      	ldr	r3, [r3, #12]
 8002320:	4618      	mov	r0, r3
 8002322:	f001 f849 	bl	80033b8 <fpToInt>
 8002326:	4603      	mov	r3, r0
 8002328:	0fda      	lsrs	r2, r3, #31
 800232a:	4413      	add	r3, r2
 800232c:	105b      	asrs	r3, r3, #1
 800232e:	4619      	mov	r1, r3
 8002330:	4620      	mov	r0, r4
 8002332:	f7ff fcbb 	bl	8001cac <gotoxy>
		printf("O");
 8002336:	204f      	movs	r0, #79	; 0x4f
 8002338:	f004 f94a 	bl	80065d0 <putchar>

		current->bullet.position.x=current->bullet.nextPosition.x;
 800233c:	68fb      	ldr	r3, [r7, #12]
 800233e:	689a      	ldr	r2, [r3, #8]
 8002340:	68fb      	ldr	r3, [r7, #12]
 8002342:	601a      	str	r2, [r3, #0]
		current->bullet.position.y=current->bullet.nextPosition.y;
 8002344:	68fb      	ldr	r3, [r7, #12]
 8002346:	68da      	ldr	r2, [r3, #12]
 8002348:	68fb      	ldr	r3, [r7, #12]
 800234a:	605a      	str	r2, [r3, #4]

		current = current->nextBulletAddress;
 800234c:	68fb      	ldr	r3, [r7, #12]
 800234e:	69db      	ldr	r3, [r3, #28]
 8002350:	60fb      	str	r3, [r7, #12]
	while (current != NULL) {
 8002352:	68fb      	ldr	r3, [r7, #12]
 8002354:	2b00      	cmp	r3, #0
 8002356:	d1c5      	bne.n	80022e4 <drawBullets+0x10>
	}
}
 8002358:	bf00      	nop
 800235a:	bf00      	nop
 800235c:	3714      	adds	r7, #20
 800235e:	46bd      	mov	sp, r7
 8002360:	bd90      	pop	{r4, r7, pc}
	...

08002364 <NVIC_EnableIRQ>:
{
 8002364:	b480      	push	{r7}
 8002366:	b083      	sub	sp, #12
 8002368:	af00      	add	r7, sp, #0
 800236a:	4603      	mov	r3, r0
 800236c:	71fb      	strb	r3, [r7, #7]
  NVIC->ISER[(uint32_t)((int32_t)IRQn) >> 5] = (uint32_t)(1 << ((uint32_t)((int32_t)IRQn) & (uint32_t)0x1F)); /* enable interrupt */
 800236e:	79fb      	ldrb	r3, [r7, #7]
 8002370:	f003 031f 	and.w	r3, r3, #31
 8002374:	2201      	movs	r2, #1
 8002376:	fa02 f103 	lsl.w	r1, r2, r3
 800237a:	4a06      	ldr	r2, [pc, #24]	; (8002394 <NVIC_EnableIRQ+0x30>)
 800237c:	f997 3007 	ldrsb.w	r3, [r7, #7]
 8002380:	095b      	lsrs	r3, r3, #5
 8002382:	f842 1023 	str.w	r1, [r2, r3, lsl #2]
}
 8002386:	bf00      	nop
 8002388:	370c      	adds	r7, #12
 800238a:	46bd      	mov	sp, r7
 800238c:	f85d 7b04 	ldr.w	r7, [sp], #4
 8002390:	4770      	bx	lr
 8002392:	bf00      	nop
 8002394:	e000e100 	.word	0xe000e100

08002398 <NVIC_SetPriority>:

    \param [in]      IRQn  Number of the interrupt for set priority
    \param [in]  priority  Priority to set
 */
static __INLINE void NVIC_SetPriority(IRQn_Type IRQn, uint32_t priority)
{
 8002398:	b480      	push	{r7}
 800239a:	b083      	sub	sp, #12
 800239c:	af00      	add	r7, sp, #0
 800239e:	4603      	mov	r3, r0
 80023a0:	6039      	str	r1, [r7, #0]
 80023a2:	71fb      	strb	r3, [r7, #7]
  if(IRQn < 0) {
 80023a4:	f997 3007 	ldrsb.w	r3, [r7, #7]
 80023a8:	2b00      	cmp	r3, #0
 80023aa:	da0b      	bge.n	80023c4 <NVIC_SetPriority+0x2c>
    SCB->SHP[((uint32_t)(IRQn) & 0xF)-4] = ((priority << (8 - __NVIC_PRIO_BITS)) & 0xff); } /* set Priority for Cortex-M  System Interrupts */
 80023ac:	683b      	ldr	r3, [r7, #0]
 80023ae:	b2da      	uxtb	r2, r3
 80023b0:	490c      	ldr	r1, [pc, #48]	; (80023e4 <NVIC_SetPriority+0x4c>)
 80023b2:	79fb      	ldrb	r3, [r7, #7]
 80023b4:	f003 030f 	and.w	r3, r3, #15
 80023b8:	3b04      	subs	r3, #4
 80023ba:	0112      	lsls	r2, r2, #4
 80023bc:	b2d2      	uxtb	r2, r2
 80023be:	440b      	add	r3, r1
 80023c0:	761a      	strb	r2, [r3, #24]
  else {
    NVIC->IP[(uint32_t)(IRQn)] = ((priority << (8 - __NVIC_PRIO_BITS)) & 0xff);    }        /* set Priority for device specific Interrupts  */
}
 80023c2:	e009      	b.n	80023d8 <NVIC_SetPriority+0x40>
    NVIC->IP[(uint32_t)(IRQn)] = ((priority << (8 - __NVIC_PRIO_BITS)) & 0xff);    }        /* set Priority for device specific Interrupts  */
 80023c4:	683b      	ldr	r3, [r7, #0]
 80023c6:	b2da      	uxtb	r2, r3
 80023c8:	4907      	ldr	r1, [pc, #28]	; (80023e8 <NVIC_SetPriority+0x50>)
 80023ca:	f997 3007 	ldrsb.w	r3, [r7, #7]
 80023ce:	0112      	lsls	r2, r2, #4
 80023d0:	b2d2      	uxtb	r2, r2
 80023d2:	440b      	add	r3, r1
 80023d4:	f883 2300 	strb.w	r2, [r3, #768]	; 0x300
}
 80023d8:	bf00      	nop
 80023da:	370c      	adds	r7, #12
 80023dc:	46bd      	mov	sp, r7
 80023de:	f85d 7b04 	ldr.w	r7, [sp], #4
 80023e2:	4770      	bx	lr
 80023e4:	e000ed00 	.word	0xe000ed00
 80023e8:	e000e100 	.word	0xe000e100

080023ec <initJoystick>:
/**
  * @brief  Sets up the pins for the joystick TODO: REF
  * @param  None
  * @retval None
  */
void initJoystick(){
 80023ec:	b480      	push	{r7}
 80023ee:	af00      	add	r7, sp, #0
	// Enable clock for GPIO Port A, B, C
	 RCC->AHBENR |= RCC_AHBPeriph_GPIOA;
 80023f0:	4b46      	ldr	r3, [pc, #280]	; (800250c <initJoystick+0x120>)
 80023f2:	695b      	ldr	r3, [r3, #20]
 80023f4:	4a45      	ldr	r2, [pc, #276]	; (800250c <initJoystick+0x120>)
 80023f6:	f443 3300 	orr.w	r3, r3, #131072	; 0x20000
 80023fa:	6153      	str	r3, [r2, #20]
	 RCC->AHBENR |= RCC_AHBPeriph_GPIOB;
 80023fc:	4b43      	ldr	r3, [pc, #268]	; (800250c <initJoystick+0x120>)
 80023fe:	695b      	ldr	r3, [r3, #20]
 8002400:	4a42      	ldr	r2, [pc, #264]	; (800250c <initJoystick+0x120>)
 8002402:	f443 2380 	orr.w	r3, r3, #262144	; 0x40000
 8002406:	6153      	str	r3, [r2, #20]
	 RCC->AHBENR |= RCC_AHBPeriph_GPIOC;
 8002408:	4b40      	ldr	r3, [pc, #256]	; (800250c <initJoystick+0x120>)
 800240a:	695b      	ldr	r3, [r3, #20]
 800240c:	4a3f      	ldr	r2, [pc, #252]	; (800250c <initJoystick+0x120>)
 800240e:	f443 2300 	orr.w	r3, r3, #524288	; 0x80000
 8002412:	6153      	str	r3, [r2, #20]

	//CENTER B5
	 GPIOB->MODER &= ~(0x00000003 << (5 * 2)); // Clear mode register
 8002414:	4b3e      	ldr	r3, [pc, #248]	; (8002510 <initJoystick+0x124>)
 8002416:	681b      	ldr	r3, [r3, #0]
 8002418:	4a3d      	ldr	r2, [pc, #244]	; (8002510 <initJoystick+0x124>)
 800241a:	f423 6340 	bic.w	r3, r3, #3072	; 0xc00
 800241e:	6013      	str	r3, [r2, #0]
	 GPIOB->MODER |= (0x00000000 << (0 * 2)); // Set mode register (0x00  Input, 0x01 - Output, 0x02 - Alternate Function, 0x03 - Analog in/out)
 8002420:	4b3b      	ldr	r3, [pc, #236]	; (8002510 <initJoystick+0x124>)
 8002422:	4a3b      	ldr	r2, [pc, #236]	; (8002510 <initJoystick+0x124>)
 8002424:	681b      	ldr	r3, [r3, #0]
 8002426:	6013      	str	r3, [r2, #0]
	 GPIOB->PUPDR &= ~(0x00000003 << (0 * 2)); // Clear push/pull register
 8002428:	4b39      	ldr	r3, [pc, #228]	; (8002510 <initJoystick+0x124>)
 800242a:	68db      	ldr	r3, [r3, #12]
 800242c:	4a38      	ldr	r2, [pc, #224]	; (8002510 <initJoystick+0x124>)
 800242e:	f023 0303 	bic.w	r3, r3, #3
 8002432:	60d3      	str	r3, [r2, #12]
	 GPIOB->PUPDR |= (0x00000002 << (0 * 2)); // Set push/pull register (0x00 - No pull, 0x01 - Pull-up, 0x02 - Pull-down)
 8002434:	4b36      	ldr	r3, [pc, #216]	; (8002510 <initJoystick+0x124>)
 8002436:	68db      	ldr	r3, [r3, #12]
 8002438:	4a35      	ldr	r2, [pc, #212]	; (8002510 <initJoystick+0x124>)
 800243a:	f043 0302 	orr.w	r3, r3, #2
 800243e:	60d3      	str	r3, [r2, #12]

	 //UP A4
	 GPIOA->MODER &= ~(0x00000003 << (4 * 2));
 8002440:	f04f 4390 	mov.w	r3, #1207959552	; 0x48000000
 8002444:	681b      	ldr	r3, [r3, #0]
 8002446:	f04f 4290 	mov.w	r2, #1207959552	; 0x48000000
 800244a:	f423 7340 	bic.w	r3, r3, #768	; 0x300
 800244e:	6013      	str	r3, [r2, #0]
	 GPIOA->MODER |= (0x00000000 << (0 * 2));
 8002450:	f04f 4390 	mov.w	r3, #1207959552	; 0x48000000
 8002454:	f04f 4290 	mov.w	r2, #1207959552	; 0x48000000
 8002458:	681b      	ldr	r3, [r3, #0]
 800245a:	6013      	str	r3, [r2, #0]
	 GPIOA->PUPDR &= ~(0x00000003 << (0 * 2));
 800245c:	f04f 4390 	mov.w	r3, #1207959552	; 0x48000000
 8002460:	68db      	ldr	r3, [r3, #12]
 8002462:	f04f 4290 	mov.w	r2, #1207959552	; 0x48000000
 8002466:	f023 0303 	bic.w	r3, r3, #3
 800246a:	60d3      	str	r3, [r2, #12]
	 GPIOA->PUPDR |= (0x00000002 << (0 * 2));
 800246c:	f04f 4390 	mov.w	r3, #1207959552	; 0x48000000
 8002470:	68db      	ldr	r3, [r3, #12]
 8002472:	f04f 4290 	mov.w	r2, #1207959552	; 0x48000000
 8002476:	f043 0302 	orr.w	r3, r3, #2
 800247a:	60d3      	str	r3, [r2, #12]

	 //down B0
	 GPIOB->MODER &= ~(0x00000003 << (0 * 2));
 800247c:	4b24      	ldr	r3, [pc, #144]	; (8002510 <initJoystick+0x124>)
 800247e:	681b      	ldr	r3, [r3, #0]
 8002480:	4a23      	ldr	r2, [pc, #140]	; (8002510 <initJoystick+0x124>)
 8002482:	f023 0303 	bic.w	r3, r3, #3
 8002486:	6013      	str	r3, [r2, #0]
	 GPIOB->MODER |= (0x00000000 << (0 * 2));
 8002488:	4b21      	ldr	r3, [pc, #132]	; (8002510 <initJoystick+0x124>)
 800248a:	4a21      	ldr	r2, [pc, #132]	; (8002510 <initJoystick+0x124>)
 800248c:	681b      	ldr	r3, [r3, #0]
 800248e:	6013      	str	r3, [r2, #0]
	 GPIOB->PUPDR &= ~(0x00000003 << (0 * 2));
 8002490:	4b1f      	ldr	r3, [pc, #124]	; (8002510 <initJoystick+0x124>)
 8002492:	68db      	ldr	r3, [r3, #12]
 8002494:	4a1e      	ldr	r2, [pc, #120]	; (8002510 <initJoystick+0x124>)
 8002496:	f023 0303 	bic.w	r3, r3, #3
 800249a:	60d3      	str	r3, [r2, #12]
	 GPIOB->PUPDR |= (0x00000002 << (0 * 2));
 800249c:	4b1c      	ldr	r3, [pc, #112]	; (8002510 <initJoystick+0x124>)
 800249e:	68db      	ldr	r3, [r3, #12]
 80024a0:	4a1b      	ldr	r2, [pc, #108]	; (8002510 <initJoystick+0x124>)
 80024a2:	f043 0302 	orr.w	r3, r3, #2
 80024a6:	60d3      	str	r3, [r2, #12]

	 //left C1
	 GPIOC->MODER &= ~(0x00000003 << (1 * 2));
 80024a8:	4b1a      	ldr	r3, [pc, #104]	; (8002514 <initJoystick+0x128>)
 80024aa:	681b      	ldr	r3, [r3, #0]
 80024ac:	4a19      	ldr	r2, [pc, #100]	; (8002514 <initJoystick+0x128>)
 80024ae:	f023 030c 	bic.w	r3, r3, #12
 80024b2:	6013      	str	r3, [r2, #0]
	 GPIOC->MODER |= (0x00000000 << (0 * 2));
 80024b4:	4b17      	ldr	r3, [pc, #92]	; (8002514 <initJoystick+0x128>)
 80024b6:	4a17      	ldr	r2, [pc, #92]	; (8002514 <initJoystick+0x128>)
 80024b8:	681b      	ldr	r3, [r3, #0]
 80024ba:	6013      	str	r3, [r2, #0]
	 GPIOC->PUPDR &= ~(0x00000003 << (0 * 2));
 80024bc:	4b15      	ldr	r3, [pc, #84]	; (8002514 <initJoystick+0x128>)
 80024be:	68db      	ldr	r3, [r3, #12]
 80024c0:	4a14      	ldr	r2, [pc, #80]	; (8002514 <initJoystick+0x128>)
 80024c2:	f023 0303 	bic.w	r3, r3, #3
 80024c6:	60d3      	str	r3, [r2, #12]
	 GPIOC->PUPDR |= (0x00000002 << (0 * 2));
 80024c8:	4b12      	ldr	r3, [pc, #72]	; (8002514 <initJoystick+0x128>)
 80024ca:	68db      	ldr	r3, [r3, #12]
 80024cc:	4a11      	ldr	r2, [pc, #68]	; (8002514 <initJoystick+0x128>)
 80024ce:	f043 0302 	orr.w	r3, r3, #2
 80024d2:	60d3      	str	r3, [r2, #12]

	 //right C0
	 GPIOC->MODER &= ~(0x00000003 << (0 * 2));
 80024d4:	4b0f      	ldr	r3, [pc, #60]	; (8002514 <initJoystick+0x128>)
 80024d6:	681b      	ldr	r3, [r3, #0]
 80024d8:	4a0e      	ldr	r2, [pc, #56]	; (8002514 <initJoystick+0x128>)
 80024da:	f023 0303 	bic.w	r3, r3, #3
 80024de:	6013      	str	r3, [r2, #0]
	 GPIOC->MODER |= (0x00000000 << (0 * 2));
 80024e0:	4b0c      	ldr	r3, [pc, #48]	; (8002514 <initJoystick+0x128>)
 80024e2:	4a0c      	ldr	r2, [pc, #48]	; (8002514 <initJoystick+0x128>)
 80024e4:	681b      	ldr	r3, [r3, #0]
 80024e6:	6013      	str	r3, [r2, #0]
	 GPIOC->PUPDR &= ~(0x00000003 << (0 * 2));
 80024e8:	4b0a      	ldr	r3, [pc, #40]	; (8002514 <initJoystick+0x128>)
 80024ea:	68db      	ldr	r3, [r3, #12]
 80024ec:	4a09      	ldr	r2, [pc, #36]	; (8002514 <initJoystick+0x128>)
 80024ee:	f023 0303 	bic.w	r3, r3, #3
 80024f2:	60d3      	str	r3, [r2, #12]
	 GPIOC->PUPDR |= (0x00000002 << (0 * 2));
 80024f4:	4b07      	ldr	r3, [pc, #28]	; (8002514 <initJoystick+0x128>)
 80024f6:	68db      	ldr	r3, [r3, #12]
 80024f8:	4a06      	ldr	r2, [pc, #24]	; (8002514 <initJoystick+0x128>)
 80024fa:	f043 0302 	orr.w	r3, r3, #2
 80024fe:	60d3      	str	r3, [r2, #12]

}
 8002500:	bf00      	nop
 8002502:	46bd      	mov	sp, r7
 8002504:	f85d 7b04 	ldr.w	r7, [sp], #4
 8002508:	4770      	bx	lr
 800250a:	bf00      	nop
 800250c:	40021000 	.word	0x40021000
 8002510:	48000400 	.word	0x48000400
 8002514:	48000800 	.word	0x48000800

08002518 <centerIsPressed>:
/**
  * @brief  Reads the if the center of joystick is pressed
  * @param  None
  * @retval 0 if not pressed, 1 if pressed
  */
uint8_t centerIsPressed(){
 8002518:	b480      	push	{r7}
 800251a:	af00      	add	r7, sp, #0
	 if(((GPIOB->IDR & (0x0001 << 5))!=0 )&& (runtime-centerPrevPressed>btnDelay)){
 800251c:	4b12      	ldr	r3, [pc, #72]	; (8002568 <centerIsPressed+0x50>)
 800251e:	8a1b      	ldrh	r3, [r3, #16]
 8002520:	b29b      	uxth	r3, r3
 8002522:	f003 0320 	and.w	r3, r3, #32
 8002526:	2b00      	cmp	r3, #0
 8002528:	d00c      	beq.n	8002544 <centerIsPressed+0x2c>
 800252a:	4b10      	ldr	r3, [pc, #64]	; (800256c <centerIsPressed+0x54>)
 800252c:	681a      	ldr	r2, [r3, #0]
 800252e:	4b10      	ldr	r3, [pc, #64]	; (8002570 <centerIsPressed+0x58>)
 8002530:	681b      	ldr	r3, [r3, #0]
 8002532:	1ad3      	subs	r3, r2, r3
 8002534:	2b1e      	cmp	r3, #30
 8002536:	d905      	bls.n	8002544 <centerIsPressed+0x2c>
		 centerPrevPressed=runtime;
 8002538:	4b0c      	ldr	r3, [pc, #48]	; (800256c <centerIsPressed+0x54>)
 800253a:	681b      	ldr	r3, [r3, #0]
 800253c:	4a0c      	ldr	r2, [pc, #48]	; (8002570 <centerIsPressed+0x58>)
 800253e:	6013      	str	r3, [r2, #0]
		 return 1;
 8002540:	2301      	movs	r3, #1
 8002542:	e00c      	b.n	800255e <centerIsPressed+0x46>
	 } else {
		 if((GPIOB->IDR & (0x0001 << 5))==0){
 8002544:	4b08      	ldr	r3, [pc, #32]	; (8002568 <centerIsPressed+0x50>)
 8002546:	8a1b      	ldrh	r3, [r3, #16]
 8002548:	b29b      	uxth	r3, r3
 800254a:	f003 0320 	and.w	r3, r3, #32
 800254e:	2b00      	cmp	r3, #0
 8002550:	d104      	bne.n	800255c <centerIsPressed+0x44>
			 centerPrevPressed=runtime-btnDelay;
 8002552:	4b06      	ldr	r3, [pc, #24]	; (800256c <centerIsPressed+0x54>)
 8002554:	681b      	ldr	r3, [r3, #0]
 8002556:	3b1e      	subs	r3, #30
 8002558:	4a05      	ldr	r2, [pc, #20]	; (8002570 <centerIsPressed+0x58>)
 800255a:	6013      	str	r3, [r2, #0]
		 }
		 return 0;
 800255c:	2300      	movs	r3, #0
	 }
}
 800255e:	4618      	mov	r0, r3
 8002560:	46bd      	mov	sp, r7
 8002562:	f85d 7b04 	ldr.w	r7, [sp], #4
 8002566:	4770      	bx	lr
 8002568:	48000400 	.word	0x48000400
 800256c:	200001c8 	.word	0x200001c8
 8002570:	200001b0 	.word	0x200001b0

08002574 <upIsPressed>:
/**
  * @brief  Reads the if the up of joystick is pressed
  * @param  None
  * @retval 0 if not pressed, 1 if pressed
  */
uint8_t upIsPressed(){
 8002574:	b480      	push	{r7}
 8002576:	af00      	add	r7, sp, #0
		 if(((GPIOA->IDR & (0x0001 << 4))!=0) && (runtime-upPrevPressed>btnDelay)){
 8002578:	f04f 4390 	mov.w	r3, #1207959552	; 0x48000000
 800257c:	8a1b      	ldrh	r3, [r3, #16]
 800257e:	b29b      	uxth	r3, r3
 8002580:	f003 0310 	and.w	r3, r3, #16
 8002584:	2b00      	cmp	r3, #0
 8002586:	d00c      	beq.n	80025a2 <upIsPressed+0x2e>
 8002588:	4b0f      	ldr	r3, [pc, #60]	; (80025c8 <upIsPressed+0x54>)
 800258a:	681a      	ldr	r2, [r3, #0]
 800258c:	4b0f      	ldr	r3, [pc, #60]	; (80025cc <upIsPressed+0x58>)
 800258e:	681b      	ldr	r3, [r3, #0]
 8002590:	1ad3      	subs	r3, r2, r3
 8002592:	2b1e      	cmp	r3, #30
 8002594:	d905      	bls.n	80025a2 <upIsPressed+0x2e>
			 upPrevPressed = runtime;
 8002596:	4b0c      	ldr	r3, [pc, #48]	; (80025c8 <upIsPressed+0x54>)
 8002598:	681b      	ldr	r3, [r3, #0]
 800259a:	4a0c      	ldr	r2, [pc, #48]	; (80025cc <upIsPressed+0x58>)
 800259c:	6013      	str	r3, [r2, #0]
			 return 1;
 800259e:	2301      	movs	r3, #1
 80025a0:	e00d      	b.n	80025be <upIsPressed+0x4a>
		 } else {
			 if((GPIOA->IDR & (0x0001 << 4))==0){
 80025a2:	f04f 4390 	mov.w	r3, #1207959552	; 0x48000000
 80025a6:	8a1b      	ldrh	r3, [r3, #16]
 80025a8:	b29b      	uxth	r3, r3
 80025aa:	f003 0310 	and.w	r3, r3, #16
 80025ae:	2b00      	cmp	r3, #0
 80025b0:	d104      	bne.n	80025bc <upIsPressed+0x48>
				 upPrevPressed=runtime-btnDelay;
 80025b2:	4b05      	ldr	r3, [pc, #20]	; (80025c8 <upIsPressed+0x54>)
 80025b4:	681b      	ldr	r3, [r3, #0]
 80025b6:	3b1e      	subs	r3, #30
 80025b8:	4a04      	ldr	r2, [pc, #16]	; (80025cc <upIsPressed+0x58>)
 80025ba:	6013      	str	r3, [r2, #0]
			 }
			 return 0;
 80025bc:	2300      	movs	r3, #0
		 }
	 }
 80025be:	4618      	mov	r0, r3
 80025c0:	46bd      	mov	sp, r7
 80025c2:	f85d 7b04 	ldr.w	r7, [sp], #4
 80025c6:	4770      	bx	lr
 80025c8:	200001c8 	.word	0x200001c8
 80025cc:	200001b4 	.word	0x200001b4

080025d0 <downIsPressed>:
/**
  * @brief  Reads the if the down of joystick is pressed
  * @param  None
  * @retval 0 if not pressed, 1 if pressed
  */
uint8_t downIsPressed(){
 80025d0:	b480      	push	{r7}
 80025d2:	af00      	add	r7, sp, #0
		 if(((GPIOB->IDR & (0x0001 << 0))!=0)&& (runtime-downPrevPressed>btnDelay)){
 80025d4:	4b12      	ldr	r3, [pc, #72]	; (8002620 <downIsPressed+0x50>)
 80025d6:	8a1b      	ldrh	r3, [r3, #16]
 80025d8:	b29b      	uxth	r3, r3
 80025da:	f003 0301 	and.w	r3, r3, #1
 80025de:	2b00      	cmp	r3, #0
 80025e0:	d00c      	beq.n	80025fc <downIsPressed+0x2c>
 80025e2:	4b10      	ldr	r3, [pc, #64]	; (8002624 <downIsPressed+0x54>)
 80025e4:	681a      	ldr	r2, [r3, #0]
 80025e6:	4b10      	ldr	r3, [pc, #64]	; (8002628 <downIsPressed+0x58>)
 80025e8:	681b      	ldr	r3, [r3, #0]
 80025ea:	1ad3      	subs	r3, r2, r3
 80025ec:	2b1e      	cmp	r3, #30
 80025ee:	d905      	bls.n	80025fc <downIsPressed+0x2c>
			 downPrevPressed = runtime;
 80025f0:	4b0c      	ldr	r3, [pc, #48]	; (8002624 <downIsPressed+0x54>)
 80025f2:	681b      	ldr	r3, [r3, #0]
 80025f4:	4a0c      	ldr	r2, [pc, #48]	; (8002628 <downIsPressed+0x58>)
 80025f6:	6013      	str	r3, [r2, #0]
			 return 1;
 80025f8:	2301      	movs	r3, #1
 80025fa:	e00c      	b.n	8002616 <downIsPressed+0x46>
		 } else {
			 if((GPIOB->IDR & (0x0001 << 0))==0){
 80025fc:	4b08      	ldr	r3, [pc, #32]	; (8002620 <downIsPressed+0x50>)
 80025fe:	8a1b      	ldrh	r3, [r3, #16]
 8002600:	b29b      	uxth	r3, r3
 8002602:	f003 0301 	and.w	r3, r3, #1
 8002606:	2b00      	cmp	r3, #0
 8002608:	d104      	bne.n	8002614 <downIsPressed+0x44>
				 downPrevPressed=runtime-btnDelay;
 800260a:	4b06      	ldr	r3, [pc, #24]	; (8002624 <downIsPressed+0x54>)
 800260c:	681b      	ldr	r3, [r3, #0]
 800260e:	3b1e      	subs	r3, #30
 8002610:	4a05      	ldr	r2, [pc, #20]	; (8002628 <downIsPressed+0x58>)
 8002612:	6013      	str	r3, [r2, #0]
			 }
			 return 0;
 8002614:	2300      	movs	r3, #0
		 }
	 }
 8002616:	4618      	mov	r0, r3
 8002618:	46bd      	mov	sp, r7
 800261a:	f85d 7b04 	ldr.w	r7, [sp], #4
 800261e:	4770      	bx	lr
 8002620:	48000400 	.word	0x48000400
 8002624:	200001c8 	.word	0x200001c8
 8002628:	200001b8 	.word	0x200001b8

0800262c <initTimer>:
/**
  * @brief  Sets up timer 15 to a period of 0.01s and timer 2 to be configured later for the buzzer TODO: REF
  * @param  None
  * @retval None
  */
void initTimer(){ //period = 0,01 sec
 800262c:	b580      	push	{r7, lr}
 800262e:	af00      	add	r7, sp, #0

	 RCC->APB2ENR |= RCC_APB2Periph_TIM15; // Enable clock line to timer 15;
 8002630:	4b3e      	ldr	r3, [pc, #248]	; (800272c <initTimer+0x100>)
 8002632:	699b      	ldr	r3, [r3, #24]
 8002634:	4a3d      	ldr	r2, [pc, #244]	; (800272c <initTimer+0x100>)
 8002636:	f443 3380 	orr.w	r3, r3, #65536	; 0x10000
 800263a:	6193      	str	r3, [r2, #24]
	 TIM15->CR1 &= 0xF470; // Configure timer 15
 800263c:	4b3c      	ldr	r3, [pc, #240]	; (8002730 <initTimer+0x104>)
 800263e:	881b      	ldrh	r3, [r3, #0]
 8002640:	b29b      	uxth	r3, r3
 8002642:	4a3b      	ldr	r2, [pc, #236]	; (8002730 <initTimer+0x104>)
 8002644:	f423 6338 	bic.w	r3, r3, #2944	; 0xb80
 8002648:	f023 030f 	bic.w	r3, r3, #15
 800264c:	b29b      	uxth	r3, r3
 800264e:	8013      	strh	r3, [r2, #0]
	 TIM15->ARR = 63999; // Set reload value
 8002650:	4b37      	ldr	r3, [pc, #220]	; (8002730 <initTimer+0x104>)
 8002652:	f64f 12ff 	movw	r2, #63999	; 0xf9ff
 8002656:	62da      	str	r2, [r3, #44]	; 0x2c
	 TIM15->PSC = 0x09; // Set prescale value
 8002658:	4b35      	ldr	r3, [pc, #212]	; (8002730 <initTimer+0x104>)
 800265a:	2209      	movs	r2, #9
 800265c:	851a      	strh	r2, [r3, #40]	; 0x28

	 TIM15->CR1 |= 0x0001; //counter enable
 800265e:	4b34      	ldr	r3, [pc, #208]	; (8002730 <initTimer+0x104>)
 8002660:	881b      	ldrh	r3, [r3, #0]
 8002662:	b29b      	uxth	r3, r3
 8002664:	4a32      	ldr	r2, [pc, #200]	; (8002730 <initTimer+0x104>)
 8002666:	f043 0301 	orr.w	r3, r3, #1
 800266a:	b29b      	uxth	r3, r3
 800266c:	8013      	strh	r3, [r2, #0]

	 TIM15->DIER |= 0x0001; // Enable timer 15 interrupts
 800266e:	4b30      	ldr	r3, [pc, #192]	; (8002730 <initTimer+0x104>)
 8002670:	68db      	ldr	r3, [r3, #12]
 8002672:	4a2f      	ldr	r2, [pc, #188]	; (8002730 <initTimer+0x104>)
 8002674:	f043 0301 	orr.w	r3, r3, #1
 8002678:	60d3      	str	r3, [r2, #12]
	 NVIC_SetPriority(TIM1_BRK_TIM15_IRQn, 0); // Set interrupt priority
 800267a:	2100      	movs	r1, #0
 800267c:	2018      	movs	r0, #24
 800267e:	f7ff fe8b 	bl	8002398 <NVIC_SetPriority>
	 NVIC_EnableIRQ(TIM1_BRK_TIM15_IRQn); // Enable interrupt
 8002682:	2018      	movs	r0, #24
 8002684:	f7ff fe6e 	bl	8002364 <NVIC_EnableIRQ>


	 //BUZZER timer (TIM2)vvvvvvvvvvvvvvvv
	 RCC->APB1ENR |= RCC_APB1Periph_TIM2; // Enable clock line to timer 2;
 8002688:	4b28      	ldr	r3, [pc, #160]	; (800272c <initTimer+0x100>)
 800268a:	69db      	ldr	r3, [r3, #28]
 800268c:	4a27      	ldr	r2, [pc, #156]	; (800272c <initTimer+0x100>)
 800268e:	f043 0301 	orr.w	r3, r3, #1
 8002692:	61d3      	str	r3, [r2, #28]
	 TIM2->CR1 &= 0xF400; // Configure timer 2
 8002694:	f04f 4380 	mov.w	r3, #1073741824	; 0x40000000
 8002698:	881b      	ldrh	r3, [r3, #0]
 800269a:	b29b      	uxth	r3, r3
 800269c:	f04f 4280 	mov.w	r2, #1073741824	; 0x40000000
 80026a0:	f423 633f 	bic.w	r3, r3, #3056	; 0xbf0
 80026a4:	f023 030f 	bic.w	r3, r3, #15
 80026a8:	b29b      	uxth	r3, r3
 80026aa:	8013      	strh	r3, [r2, #0]

	 TIM2->CCER &= ~TIM_CCER_CC3P; // Clear CCER register
 80026ac:	f04f 4380 	mov.w	r3, #1073741824	; 0x40000000
 80026b0:	6a1b      	ldr	r3, [r3, #32]
 80026b2:	f04f 4280 	mov.w	r2, #1073741824	; 0x40000000
 80026b6:	f423 7300 	bic.w	r3, r3, #512	; 0x200
 80026ba:	6213      	str	r3, [r2, #32]
	 TIM2->CCER |= 0x00000001 << 8; // Enable OC3 output
 80026bc:	f04f 4380 	mov.w	r3, #1073741824	; 0x40000000
 80026c0:	6a1b      	ldr	r3, [r3, #32]
 80026c2:	f04f 4280 	mov.w	r2, #1073741824	; 0x40000000
 80026c6:	f443 7380 	orr.w	r3, r3, #256	; 0x100
 80026ca:	6213      	str	r3, [r2, #32]
	 TIM2->CCMR2 &= ~TIM_CCMR2_OC3M; // Clear CCMR2 register
 80026cc:	f04f 4380 	mov.w	r3, #1073741824	; 0x40000000
 80026d0:	69db      	ldr	r3, [r3, #28]
 80026d2:	f04f 4280 	mov.w	r2, #1073741824	; 0x40000000
 80026d6:	f023 0370 	bic.w	r3, r3, #112	; 0x70
 80026da:	61d3      	str	r3, [r2, #28]
	 TIM2->CCMR2 &= ~TIM_CCMR2_CC3S;
 80026dc:	f04f 4380 	mov.w	r3, #1073741824	; 0x40000000
 80026e0:	69db      	ldr	r3, [r3, #28]
 80026e2:	f04f 4280 	mov.w	r2, #1073741824	; 0x40000000
 80026e6:	f023 0303 	bic.w	r3, r3, #3
 80026ea:	61d3      	str	r3, [r2, #28]
	 TIM2->CCMR2 |= TIM_OCMode_PWM1; // Set output mode to PWM1
 80026ec:	f04f 4380 	mov.w	r3, #1073741824	; 0x40000000
 80026f0:	69db      	ldr	r3, [r3, #28]
 80026f2:	f04f 4280 	mov.w	r2, #1073741824	; 0x40000000
 80026f6:	f043 0360 	orr.w	r3, r3, #96	; 0x60
 80026fa:	61d3      	str	r3, [r2, #28]
	 TIM2->CCMR2 &= ~TIM_CCMR2_OC3PE;
 80026fc:	f04f 4380 	mov.w	r3, #1073741824	; 0x40000000
 8002700:	69db      	ldr	r3, [r3, #28]
 8002702:	f04f 4280 	mov.w	r2, #1073741824	; 0x40000000
 8002706:	f023 0308 	bic.w	r3, r3, #8
 800270a:	61d3      	str	r3, [r2, #28]
	 TIM2->CCMR2 |= TIM_OCPreload_Enable;
 800270c:	f04f 4380 	mov.w	r3, #1073741824	; 0x40000000
 8002710:	69db      	ldr	r3, [r3, #28]
 8002712:	f04f 4280 	mov.w	r2, #1073741824	; 0x40000000
 8002716:	f043 0308 	orr.w	r3, r3, #8
 800271a:	61d3      	str	r3, [r2, #28]
	 TIM2->CCR3 = 63999 / 2; // Set duty cycle to 50 %
 800271c:	f04f 4380 	mov.w	r3, #1073741824	; 0x40000000
 8002720:	f647 42ff 	movw	r2, #31999	; 0x7cff
 8002724:	63da      	str	r2, [r3, #60]	; 0x3c
}
 8002726:	bf00      	nop
 8002728:	bd80      	pop	{r7, pc}
 800272a:	bf00      	nop
 800272c:	40021000 	.word	0x40021000
 8002730:	40014000 	.word	0x40014000

08002734 <TIM1_BRK_TIM15_IRQHandler>:
/**
  * @brief  When timer 15 interrupts (every 0.01s) adds 1 to runtime
  * @param  None
  * @retval None
  */
void TIM1_BRK_TIM15_IRQHandler(void) {
 8002734:	b480      	push	{r7}
 8002736:	af00      	add	r7, sp, #0
	runtime++;
 8002738:	4b07      	ldr	r3, [pc, #28]	; (8002758 <TIM1_BRK_TIM15_IRQHandler+0x24>)
 800273a:	681b      	ldr	r3, [r3, #0]
 800273c:	3301      	adds	r3, #1
 800273e:	4a06      	ldr	r2, [pc, #24]	; (8002758 <TIM1_BRK_TIM15_IRQHandler+0x24>)
 8002740:	6013      	str	r3, [r2, #0]
	TIM15->SR &= ~0x0001; // Clear interrupt bit
 8002742:	4b06      	ldr	r3, [pc, #24]	; (800275c <TIM1_BRK_TIM15_IRQHandler+0x28>)
 8002744:	691b      	ldr	r3, [r3, #16]
 8002746:	4a05      	ldr	r2, [pc, #20]	; (800275c <TIM1_BRK_TIM15_IRQHandler+0x28>)
 8002748:	f023 0301 	bic.w	r3, r3, #1
 800274c:	6113      	str	r3, [r2, #16]
 }
 800274e:	bf00      	nop
 8002750:	46bd      	mov	sp, r7
 8002752:	f85d 7b04 	ldr.w	r7, [sp], #4
 8002756:	4770      	bx	lr
 8002758:	200001c8 	.word	0x200001c8
 800275c:	40014000 	.word	0x40014000

08002760 <initBuzzerPin>:
/**
  * @brief  Sets up the pin controlling the buzzer
  * @param  None
  * @retval None
  */
void initBuzzerPin(){
 8002760:	b580      	push	{r7, lr}
 8002762:	af00      	add	r7, sp, #0
  	RCC->AHBENR |= RCC_AHBPeriph_GPIOB;
 8002764:	4b18      	ldr	r3, [pc, #96]	; (80027c8 <initBuzzerPin+0x68>)
 8002766:	695b      	ldr	r3, [r3, #20]
 8002768:	4a17      	ldr	r2, [pc, #92]	; (80027c8 <initBuzzerPin+0x68>)
 800276a:	f443 2380 	orr.w	r3, r3, #262144	; 0x40000
 800276e:	6153      	str	r3, [r2, #20]

	GPIOB->OSPEEDR &= ~(0x00000003 << (2*10));
 8002770:	4b16      	ldr	r3, [pc, #88]	; (80027cc <initBuzzerPin+0x6c>)
 8002772:	689b      	ldr	r3, [r3, #8]
 8002774:	4a15      	ldr	r2, [pc, #84]	; (80027cc <initBuzzerPin+0x6c>)
 8002776:	f423 1340 	bic.w	r3, r3, #3145728	; 0x300000
 800277a:	6093      	str	r3, [r2, #8]
	GPIOB->OSPEEDR |= (0x00000002 << (2*10));  //Low speed
 800277c:	4b13      	ldr	r3, [pc, #76]	; (80027cc <initBuzzerPin+0x6c>)
 800277e:	689b      	ldr	r3, [r3, #8]
 8002780:	4a12      	ldr	r2, [pc, #72]	; (80027cc <initBuzzerPin+0x6c>)
 8002782:	f443 1300 	orr.w	r3, r3, #2097152	; 0x200000
 8002786:	6093      	str	r3, [r2, #8]
	GPIOB->OTYPER &= ~(0x0001 << (10));
 8002788:	4b10      	ldr	r3, [pc, #64]	; (80027cc <initBuzzerPin+0x6c>)
 800278a:	889b      	ldrh	r3, [r3, #4]
 800278c:	b29b      	uxth	r3, r3
 800278e:	4a0f      	ldr	r2, [pc, #60]	; (80027cc <initBuzzerPin+0x6c>)
 8002790:	f423 6380 	bic.w	r3, r3, #1024	; 0x400
 8002794:	b29b      	uxth	r3, r3
 8002796:	8093      	strh	r3, [r2, #4]
	GPIOB->OTYPER |= 0x0000 << (10); //Push-pull
 8002798:	4a0c      	ldr	r2, [pc, #48]	; (80027cc <initBuzzerPin+0x6c>)
 800279a:	4b0c      	ldr	r3, [pc, #48]	; (80027cc <initBuzzerPin+0x6c>)
 800279c:	8892      	ldrh	r2, [r2, #4]
 800279e:	b292      	uxth	r2, r2
 80027a0:	809a      	strh	r2, [r3, #4]
	GPIOB->MODER &= ~(0x00000003 << (2*10));
 80027a2:	4b0a      	ldr	r3, [pc, #40]	; (80027cc <initBuzzerPin+0x6c>)
 80027a4:	681b      	ldr	r3, [r3, #0]
 80027a6:	4a09      	ldr	r2, [pc, #36]	; (80027cc <initBuzzerPin+0x6c>)
 80027a8:	f423 1340 	bic.w	r3, r3, #3145728	; 0x300000
 80027ac:	6013      	str	r3, [r2, #0]
	GPIOB->MODER |= 0x00000002 << (2*10); //Alternate function
 80027ae:	4b07      	ldr	r3, [pc, #28]	; (80027cc <initBuzzerPin+0x6c>)
 80027b0:	681b      	ldr	r3, [r3, #0]
 80027b2:	4a06      	ldr	r2, [pc, #24]	; (80027cc <initBuzzerPin+0x6c>)
 80027b4:	f443 1300 	orr.w	r3, r3, #2097152	; 0x200000
 80027b8:	6013      	str	r3, [r2, #0]

	GPIO_PinAFConfig(GPIOB, GPIO_PinSource10, GPIO_AF_1);
 80027ba:	2201      	movs	r2, #1
 80027bc:	210a      	movs	r1, #10
 80027be:	4803      	ldr	r0, [pc, #12]	; (80027cc <initBuzzerPin+0x6c>)
 80027c0:	f7fe fcde 	bl	8001180 <GPIO_PinAFConfig>
}
 80027c4:	bf00      	nop
 80027c6:	bd80      	pop	{r7, pc}
 80027c8:	40021000 	.word	0x40021000
 80027cc:	48000400 	.word	0x48000400

080027d0 <I2C_Write>:
/**
  * @brief  Writes a byte on I2C bus TODO: REF
  * @param  address: the I2C adress to writer on, reg: the register to write to, val: the byte to write
  * @retval None
  */
void I2C_Write(uint16_t address, uint8_t reg, uint8_t val) {
 80027d0:	b580      	push	{r7, lr}
 80027d2:	b084      	sub	sp, #16
 80027d4:	af02      	add	r7, sp, #8
 80027d6:	4603      	mov	r3, r0
 80027d8:	80fb      	strh	r3, [r7, #6]
 80027da:	460b      	mov	r3, r1
 80027dc:	717b      	strb	r3, [r7, #5]
 80027de:	4613      	mov	r3, r2
 80027e0:	713b      	strb	r3, [r7, #4]
    while (I2C_GetFlagStatus(I2C1, I2C_FLAG_BUSY) == SET); // Wait until free
 80027e2:	bf00      	nop
 80027e4:	f44f 4100 	mov.w	r1, #32768	; 0x8000
 80027e8:	4825      	ldr	r0, [pc, #148]	; (8002880 <I2C_Write+0xb0>)
 80027ea:	f7fe fd5b 	bl	80012a4 <I2C_GetFlagStatus>
 80027ee:	4603      	mov	r3, r0
 80027f0:	2b01      	cmp	r3, #1
 80027f2:	d0f7      	beq.n	80027e4 <I2C_Write+0x14>

    I2C_TransferHandling(I2C1, address, 1, I2C_Reload_Mode, I2C_Generate_Start_Write); // Initiate transfer
 80027f4:	88f9      	ldrh	r1, [r7, #6]
 80027f6:	f44f 5300 	mov.w	r3, #8192	; 0x2000
 80027fa:	9300      	str	r3, [sp, #0]
 80027fc:	f04f 7380 	mov.w	r3, #16777216	; 0x1000000
 8002800:	2201      	movs	r2, #1
 8002802:	481f      	ldr	r0, [pc, #124]	; (8002880 <I2C_Write+0xb0>)
 8002804:	f7fe fd06 	bl	8001214 <I2C_TransferHandling>

    while (I2C_GetFlagStatus(I2C1, I2C_FLAG_TXIS) == RESET); // Wait until free
 8002808:	bf00      	nop
 800280a:	2102      	movs	r1, #2
 800280c:	481c      	ldr	r0, [pc, #112]	; (8002880 <I2C_Write+0xb0>)
 800280e:	f7fe fd49 	bl	80012a4 <I2C_GetFlagStatus>
 8002812:	4603      	mov	r3, r0
 8002814:	2b00      	cmp	r3, #0
 8002816:	d0f8      	beq.n	800280a <I2C_Write+0x3a>

    I2C_SendData(I2C1, reg); // Send register address
 8002818:	797b      	ldrb	r3, [r7, #5]
 800281a:	4619      	mov	r1, r3
 800281c:	4818      	ldr	r0, [pc, #96]	; (8002880 <I2C_Write+0xb0>)
 800281e:	f7fe fd25 	bl	800126c <I2C_SendData>

    while (I2C_GetFlagStatus(I2C1, I2C_FLAG_TCR) == RESET); // Wait until free
 8002822:	bf00      	nop
 8002824:	2180      	movs	r1, #128	; 0x80
 8002826:	4816      	ldr	r0, [pc, #88]	; (8002880 <I2C_Write+0xb0>)
 8002828:	f7fe fd3c 	bl	80012a4 <I2C_GetFlagStatus>
 800282c:	4603      	mov	r3, r0
 800282e:	2b00      	cmp	r3, #0
 8002830:	d0f8      	beq.n	8002824 <I2C_Write+0x54>

    I2C_TransferHandling(I2C1, address, 1, I2C_AutoEnd_Mode, I2C_No_StartStop); // Resend address
 8002832:	88f9      	ldrh	r1, [r7, #6]
 8002834:	2300      	movs	r3, #0
 8002836:	9300      	str	r3, [sp, #0]
 8002838:	f04f 7300 	mov.w	r3, #33554432	; 0x2000000
 800283c:	2201      	movs	r2, #1
 800283e:	4810      	ldr	r0, [pc, #64]	; (8002880 <I2C_Write+0xb0>)
 8002840:	f7fe fce8 	bl	8001214 <I2C_TransferHandling>

    while (I2C_GetFlagStatus(I2C1, I2C_FLAG_TXIS) == RESET); // Wait until free
 8002844:	bf00      	nop
 8002846:	2102      	movs	r1, #2
 8002848:	480d      	ldr	r0, [pc, #52]	; (8002880 <I2C_Write+0xb0>)
 800284a:	f7fe fd2b 	bl	80012a4 <I2C_GetFlagStatus>
 800284e:	4603      	mov	r3, r0
 8002850:	2b00      	cmp	r3, #0
 8002852:	d0f8      	beq.n	8002846 <I2C_Write+0x76>

    I2C_SendData(I2C1, val); // Transfer data
 8002854:	793b      	ldrb	r3, [r7, #4]
 8002856:	4619      	mov	r1, r3
 8002858:	4809      	ldr	r0, [pc, #36]	; (8002880 <I2C_Write+0xb0>)
 800285a:	f7fe fd07 	bl	800126c <I2C_SendData>

    while (I2C_GetFlagStatus(I2C1, I2C_FLAG_STOPF) == RESET); // Wait for stop flag
 800285e:	bf00      	nop
 8002860:	2120      	movs	r1, #32
 8002862:	4807      	ldr	r0, [pc, #28]	; (8002880 <I2C_Write+0xb0>)
 8002864:	f7fe fd1e 	bl	80012a4 <I2C_GetFlagStatus>
 8002868:	4603      	mov	r3, r0
 800286a:	2b00      	cmp	r3, #0
 800286c:	d0f8      	beq.n	8002860 <I2C_Write+0x90>

    I2C_ClearFlag(I2C1, I2C_FLAG_STOPF); // Clear stop flag
 800286e:	2120      	movs	r1, #32
 8002870:	4803      	ldr	r0, [pc, #12]	; (8002880 <I2C_Write+0xb0>)
 8002872:	f7fe fd36 	bl	80012e2 <I2C_ClearFlag>
}
 8002876:	bf00      	nop
 8002878:	3708      	adds	r7, #8
 800287a:	46bd      	mov	sp, r7
 800287c:	bd80      	pop	{r7, pc}
 800287e:	bf00      	nop
 8002880:	40005400 	.word	0x40005400

08002884 <I2C_Read>:
/**
  * @brief  Reads data from the I2C bus TODO: REF
  * @param  address: the I2C adress to writer on, reg: the register to write to, vals: the bytes to read, n: the amout of bytes to read
  * @retval None
  */
uint8_t I2C_Read(uint16_t address, uint8_t reg, uint8_t* vals, uint8_t n) {
 8002884:	b590      	push	{r4, r7, lr}
 8002886:	b087      	sub	sp, #28
 8002888:	af02      	add	r7, sp, #8
 800288a:	603a      	str	r2, [r7, #0]
 800288c:	461a      	mov	r2, r3
 800288e:	4603      	mov	r3, r0
 8002890:	80fb      	strh	r3, [r7, #6]
 8002892:	460b      	mov	r3, r1
 8002894:	717b      	strb	r3, [r7, #5]
 8002896:	4613      	mov	r3, r2
 8002898:	713b      	strb	r3, [r7, #4]
    uint8_t val = 0;
 800289a:	2300      	movs	r3, #0
 800289c:	73fb      	strb	r3, [r7, #15]

    while (I2C_GetFlagStatus(I2C1, I2C_FLAG_BUSY) == SET); // Wait until free
 800289e:	bf00      	nop
 80028a0:	f44f 4100 	mov.w	r1, #32768	; 0x8000
 80028a4:	4830      	ldr	r0, [pc, #192]	; (8002968 <I2C_Read+0xe4>)
 80028a6:	f7fe fcfd 	bl	80012a4 <I2C_GetFlagStatus>
 80028aa:	4603      	mov	r3, r0
 80028ac:	2b01      	cmp	r3, #1
 80028ae:	d0f7      	beq.n	80028a0 <I2C_Read+0x1c>

    I2C_TransferHandling(I2C1, address, 1, I2C_SoftEnd_Mode, I2C_Generate_Start_Write); // Initiate transfer
 80028b0:	88f9      	ldrh	r1, [r7, #6]
 80028b2:	f44f 5300 	mov.w	r3, #8192	; 0x2000
 80028b6:	9300      	str	r3, [sp, #0]
 80028b8:	2300      	movs	r3, #0
 80028ba:	2201      	movs	r2, #1
 80028bc:	482a      	ldr	r0, [pc, #168]	; (8002968 <I2C_Read+0xe4>)
 80028be:	f7fe fca9 	bl	8001214 <I2C_TransferHandling>

    while (I2C_GetFlagStatus(I2C1, I2C_FLAG_TXIS) == RESET); // Wait until free
 80028c2:	bf00      	nop
 80028c4:	2102      	movs	r1, #2
 80028c6:	4828      	ldr	r0, [pc, #160]	; (8002968 <I2C_Read+0xe4>)
 80028c8:	f7fe fcec 	bl	80012a4 <I2C_GetFlagStatus>
 80028cc:	4603      	mov	r3, r0
 80028ce:	2b00      	cmp	r3, #0
 80028d0:	d0f8      	beq.n	80028c4 <I2C_Read+0x40>

    I2C_SendData(I2C1, reg); // Send register address
 80028d2:	797b      	ldrb	r3, [r7, #5]
 80028d4:	4619      	mov	r1, r3
 80028d6:	4824      	ldr	r0, [pc, #144]	; (8002968 <I2C_Read+0xe4>)
 80028d8:	f7fe fcc8 	bl	800126c <I2C_SendData>

    while (I2C_GetFlagStatus(I2C1, I2C_FLAG_TC) == RESET); // Wait until free
 80028dc:	bf00      	nop
 80028de:	2140      	movs	r1, #64	; 0x40
 80028e0:	4821      	ldr	r0, [pc, #132]	; (8002968 <I2C_Read+0xe4>)
 80028e2:	f7fe fcdf 	bl	80012a4 <I2C_GetFlagStatus>
 80028e6:	4603      	mov	r3, r0
 80028e8:	2b00      	cmp	r3, #0
 80028ea:	d0f8      	beq.n	80028de <I2C_Read+0x5a>

    I2C_TransferHandling(I2C1, address, n, I2C_AutoEnd_Mode, I2C_Generate_Start_Read); // Resend address
 80028ec:	793a      	ldrb	r2, [r7, #4]
 80028ee:	88f9      	ldrh	r1, [r7, #6]
 80028f0:	f44f 5310 	mov.w	r3, #9216	; 0x2400
 80028f4:	9300      	str	r3, [sp, #0]
 80028f6:	f04f 7300 	mov.w	r3, #33554432	; 0x2000000
 80028fa:	481b      	ldr	r0, [pc, #108]	; (8002968 <I2C_Read+0xe4>)
 80028fc:	f7fe fc8a 	bl	8001214 <I2C_TransferHandling>

    for (uint8_t i = 0 ; i < n ; i++) {
 8002900:	2300      	movs	r3, #0
 8002902:	73bb      	strb	r3, [r7, #14]
 8002904:	e01b      	b.n	800293e <I2C_Read+0xba>
        while (I2C_GetFlagStatus(I2C1, I2C_FLAG_RXNE) == RESET); // Wait until free
 8002906:	bf00      	nop
 8002908:	2104      	movs	r1, #4
 800290a:	4817      	ldr	r0, [pc, #92]	; (8002968 <I2C_Read+0xe4>)
 800290c:	f7fe fcca 	bl	80012a4 <I2C_GetFlagStatus>
 8002910:	4603      	mov	r3, r0
 8002912:	2b00      	cmp	r3, #0
 8002914:	d0f8      	beq.n	8002908 <I2C_Read+0x84>

        if (n > 1) { vals[i] = I2C_ReceiveData(I2C1); }
 8002916:	793b      	ldrb	r3, [r7, #4]
 8002918:	2b01      	cmp	r3, #1
 800291a:	d908      	bls.n	800292e <I2C_Read+0xaa>
 800291c:	7bbb      	ldrb	r3, [r7, #14]
 800291e:	683a      	ldr	r2, [r7, #0]
 8002920:	18d4      	adds	r4, r2, r3
 8002922:	4811      	ldr	r0, [pc, #68]	; (8002968 <I2C_Read+0xe4>)
 8002924:	f7fe fcb1 	bl	800128a <I2C_ReceiveData>
 8002928:	4603      	mov	r3, r0
 800292a:	7023      	strb	r3, [r4, #0]
 800292c:	e004      	b.n	8002938 <I2C_Read+0xb4>
        else { val = I2C_ReceiveData(I2C1); } // Transfer data
 800292e:	480e      	ldr	r0, [pc, #56]	; (8002968 <I2C_Read+0xe4>)
 8002930:	f7fe fcab 	bl	800128a <I2C_ReceiveData>
 8002934:	4603      	mov	r3, r0
 8002936:	73fb      	strb	r3, [r7, #15]
    for (uint8_t i = 0 ; i < n ; i++) {
 8002938:	7bbb      	ldrb	r3, [r7, #14]
 800293a:	3301      	adds	r3, #1
 800293c:	73bb      	strb	r3, [r7, #14]
 800293e:	7bba      	ldrb	r2, [r7, #14]
 8002940:	793b      	ldrb	r3, [r7, #4]
 8002942:	429a      	cmp	r2, r3
 8002944:	d3df      	bcc.n	8002906 <I2C_Read+0x82>
    }

    while (I2C_GetFlagStatus(I2C1, I2C_FLAG_STOPF) == RESET); // Wait for stop flag
 8002946:	bf00      	nop
 8002948:	2120      	movs	r1, #32
 800294a:	4807      	ldr	r0, [pc, #28]	; (8002968 <I2C_Read+0xe4>)
 800294c:	f7fe fcaa 	bl	80012a4 <I2C_GetFlagStatus>
 8002950:	4603      	mov	r3, r0
 8002952:	2b00      	cmp	r3, #0
 8002954:	d0f8      	beq.n	8002948 <I2C_Read+0xc4>

    I2C_ClearFlag(I2C1, I2C_FLAG_STOPF); // Clear stop flag
 8002956:	2120      	movs	r1, #32
 8002958:	4803      	ldr	r0, [pc, #12]	; (8002968 <I2C_Read+0xe4>)
 800295a:	f7fe fcc2 	bl	80012e2 <I2C_ClearFlag>

    return val;
 800295e:	7bfb      	ldrb	r3, [r7, #15]
}
 8002960:	4618      	mov	r0, r3
 8002962:	3714      	adds	r7, #20
 8002964:	46bd      	mov	sp, r7
 8002966:	bd90      	pop	{r4, r7, pc}
 8002968:	40005400 	.word	0x40005400

0800296c <I2C_init>:
  * @brief  Sets up the I2C bus TODO: REF
  * @param  None
  * @retval None
  */
void I2C_init()
{
 800296c:	b580      	push	{r7, lr}
 800296e:	af00      	add	r7, sp, #0

    /**************/
    /**** GPIO ****/
    /**************/
    RCC->AHBENR |= 0x00040000; // Enable clock for GPIO Bank B
 8002970:	4b55      	ldr	r3, [pc, #340]	; (8002ac8 <I2C_init+0x15c>)
 8002972:	695b      	ldr	r3, [r3, #20]
 8002974:	4a54      	ldr	r2, [pc, #336]	; (8002ac8 <I2C_init+0x15c>)
 8002976:	f443 2380 	orr.w	r3, r3, #262144	; 0x40000
 800297a:	6153      	str	r3, [r2, #20]

    GPIOB->AFR[8 >> 0x03] &= ~(0x0000000F << ((8 & 0x00000007) * 4)); // Clear alternate function for PB8
 800297c:	4b53      	ldr	r3, [pc, #332]	; (8002acc <I2C_init+0x160>)
 800297e:	6a5b      	ldr	r3, [r3, #36]	; 0x24
 8002980:	4a52      	ldr	r2, [pc, #328]	; (8002acc <I2C_init+0x160>)
 8002982:	f023 030f 	bic.w	r3, r3, #15
 8002986:	6253      	str	r3, [r2, #36]	; 0x24
    GPIOB->AFR[8 >> 0x03] |=  (0x00000004 << ((8 & 0x00000007) * 4)); // Set alternate 4 function for PB8
 8002988:	4b50      	ldr	r3, [pc, #320]	; (8002acc <I2C_init+0x160>)
 800298a:	6a5b      	ldr	r3, [r3, #36]	; 0x24
 800298c:	4a4f      	ldr	r2, [pc, #316]	; (8002acc <I2C_init+0x160>)
 800298e:	f043 0304 	orr.w	r3, r3, #4
 8002992:	6253      	str	r3, [r2, #36]	; 0x24
    GPIOB->AFR[9 >> 0x03] &= ~(0x0000000F << ((9 & 0x00000007) * 4)); // Clear alternate function for PB9
 8002994:	4b4d      	ldr	r3, [pc, #308]	; (8002acc <I2C_init+0x160>)
 8002996:	6a5b      	ldr	r3, [r3, #36]	; 0x24
 8002998:	4a4c      	ldr	r2, [pc, #304]	; (8002acc <I2C_init+0x160>)
 800299a:	f023 03f0 	bic.w	r3, r3, #240	; 0xf0
 800299e:	6253      	str	r3, [r2, #36]	; 0x24
    GPIOB->AFR[9 >> 0x03] |=  (0x00000004 << ((9 & 0x00000007) * 4)); // Set alternate 4 function for PB9
 80029a0:	4b4a      	ldr	r3, [pc, #296]	; (8002acc <I2C_init+0x160>)
 80029a2:	6a5b      	ldr	r3, [r3, #36]	; 0x24
 80029a4:	4a49      	ldr	r2, [pc, #292]	; (8002acc <I2C_init+0x160>)
 80029a6:	f043 0340 	orr.w	r3, r3, #64	; 0x40
 80029aa:	6253      	str	r3, [r2, #36]	; 0x24

    // Configure pins PB8 and PB9 for 10 MHz alternate function
    GPIOB->OSPEEDR &= ~(0x00000003 << (8 * 2) | 0x00000003 << (9 * 2));    // Clear speed register
 80029ac:	4b47      	ldr	r3, [pc, #284]	; (8002acc <I2C_init+0x160>)
 80029ae:	689b      	ldr	r3, [r3, #8]
 80029b0:	4a46      	ldr	r2, [pc, #280]	; (8002acc <I2C_init+0x160>)
 80029b2:	f423 2370 	bic.w	r3, r3, #983040	; 0xf0000
 80029b6:	6093      	str	r3, [r2, #8]
    GPIOB->OSPEEDR |=  (0x00000001 << (8 * 2) | 0x00000001 << (9 * 2));    // set speed register (0x01 - 10 MHz, 0x02 - 2 MHz, 0x03 - 50 MHz)
 80029b8:	4b44      	ldr	r3, [pc, #272]	; (8002acc <I2C_init+0x160>)
 80029ba:	689b      	ldr	r3, [r3, #8]
 80029bc:	4a43      	ldr	r2, [pc, #268]	; (8002acc <I2C_init+0x160>)
 80029be:	f443 23a0 	orr.w	r3, r3, #327680	; 0x50000
 80029c2:	6093      	str	r3, [r2, #8]
    GPIOB->OTYPER  &= ~(0x0001     << (8)     | 0x0001     << (9));        // Clear output type register
 80029c4:	4b41      	ldr	r3, [pc, #260]	; (8002acc <I2C_init+0x160>)
 80029c6:	889b      	ldrh	r3, [r3, #4]
 80029c8:	b29b      	uxth	r3, r3
 80029ca:	4a40      	ldr	r2, [pc, #256]	; (8002acc <I2C_init+0x160>)
 80029cc:	f423 7340 	bic.w	r3, r3, #768	; 0x300
 80029d0:	b29b      	uxth	r3, r3
 80029d2:	8093      	strh	r3, [r2, #4]
    GPIOB->OTYPER  |=  (0x0001     << (8)     | 0x0001     << (9));        // Set output type register (0x00 - Push pull, 0x01 - Open drain)
 80029d4:	4b3d      	ldr	r3, [pc, #244]	; (8002acc <I2C_init+0x160>)
 80029d6:	889b      	ldrh	r3, [r3, #4]
 80029d8:	b29b      	uxth	r3, r3
 80029da:	4a3c      	ldr	r2, [pc, #240]	; (8002acc <I2C_init+0x160>)
 80029dc:	f443 7340 	orr.w	r3, r3, #768	; 0x300
 80029e0:	b29b      	uxth	r3, r3
 80029e2:	8093      	strh	r3, [r2, #4]
    GPIOB->MODER   &= ~(0x00000003 << (8 * 2) | 0x00000003 << (9 * 2));    // Clear mode register
 80029e4:	4b39      	ldr	r3, [pc, #228]	; (8002acc <I2C_init+0x160>)
 80029e6:	681b      	ldr	r3, [r3, #0]
 80029e8:	4a38      	ldr	r2, [pc, #224]	; (8002acc <I2C_init+0x160>)
 80029ea:	f423 2370 	bic.w	r3, r3, #983040	; 0xf0000
 80029ee:	6013      	str	r3, [r2, #0]
    GPIOB->MODER   |=  (0x00000002 << (8 * 2) | 0x00000002 << (9 * 2));    // Set mode register (0x00 - Input, 0x01 - Output, 0x02 - Alternate Function, 0x03 - Analog in/out)
 80029f0:	4b36      	ldr	r3, [pc, #216]	; (8002acc <I2C_init+0x160>)
 80029f2:	681b      	ldr	r3, [r3, #0]
 80029f4:	4a35      	ldr	r2, [pc, #212]	; (8002acc <I2C_init+0x160>)
 80029f6:	f443 2320 	orr.w	r3, r3, #655360	; 0xa0000
 80029fa:	6013      	str	r3, [r2, #0]
    GPIOB->PUPDR   &= ~(0x00000003 << (8 * 2) | 0x00000003 << (9 * 2));    // Clear push/pull register
 80029fc:	4b33      	ldr	r3, [pc, #204]	; (8002acc <I2C_init+0x160>)
 80029fe:	68db      	ldr	r3, [r3, #12]
 8002a00:	4a32      	ldr	r2, [pc, #200]	; (8002acc <I2C_init+0x160>)
 8002a02:	f423 2370 	bic.w	r3, r3, #983040	; 0xf0000
 8002a06:	60d3      	str	r3, [r2, #12]
    GPIOB->PUPDR   |=  (0x00000001 << (8 * 2) | 0x00000001 << (9 * 2));    // Set push/pull register (0x00 - No pull, 0x01 - Pull-up, 0x02 - Pull-down)
 8002a08:	4b30      	ldr	r3, [pc, #192]	; (8002acc <I2C_init+0x160>)
 8002a0a:	68db      	ldr	r3, [r3, #12]
 8002a0c:	4a2f      	ldr	r2, [pc, #188]	; (8002acc <I2C_init+0x160>)
 8002a0e:	f443 23a0 	orr.w	r3, r3, #327680	; 0x50000
 8002a12:	60d3      	str	r3, [r2, #12]

    /*************/
    /**** I2C ****/
    /*************/
    RCC->APB1ENR |=  0x00200000; // Enable clock for I2C1
 8002a14:	4b2c      	ldr	r3, [pc, #176]	; (8002ac8 <I2C_init+0x15c>)
 8002a16:	69db      	ldr	r3, [r3, #28]
 8002a18:	4a2b      	ldr	r2, [pc, #172]	; (8002ac8 <I2C_init+0x15c>)
 8002a1a:	f443 1300 	orr.w	r3, r3, #2097152	; 0x200000
 8002a1e:	61d3      	str	r3, [r2, #28]

    I2C1->CR1 &= ~0x00000001;  // Disable I2C1 peripheral during config
 8002a20:	4b2b      	ldr	r3, [pc, #172]	; (8002ad0 <I2C_init+0x164>)
 8002a22:	681b      	ldr	r3, [r3, #0]
 8002a24:	4a2a      	ldr	r2, [pc, #168]	; (8002ad0 <I2C_init+0x164>)
 8002a26:	f023 0301 	bic.w	r3, r3, #1
 8002a2a:	6013      	str	r3, [r2, #0]
    I2C1->CR1 &= 0x00CFE0FF;   // Clear config
 8002a2c:	4b28      	ldr	r3, [pc, #160]	; (8002ad0 <I2C_init+0x164>)
 8002a2e:	681a      	ldr	r2, [r3, #0]
 8002a30:	4927      	ldr	r1, [pc, #156]	; (8002ad0 <I2C_init+0x164>)
 8002a32:	4b28      	ldr	r3, [pc, #160]	; (8002ad4 <I2C_init+0x168>)
 8002a34:	4013      	ands	r3, r2
 8002a36:	600b      	str	r3, [r1, #0]
    I2C1->CR1 |= 0x00000000;   // Set Analog filter (0x00000000 - Enabled, 0x00001000 - Disabled)
 8002a38:	4b25      	ldr	r3, [pc, #148]	; (8002ad0 <I2C_init+0x164>)
 8002a3a:	4a25      	ldr	r2, [pc, #148]	; (8002ad0 <I2C_init+0x164>)
 8002a3c:	681b      	ldr	r3, [r3, #0]
 8002a3e:	6013      	str	r3, [r2, #0]
    I2C1->CR1 |= 0x00 << 8;    // Set digital filter (0x00 - 0x0F)
 8002a40:	4b23      	ldr	r3, [pc, #140]	; (8002ad0 <I2C_init+0x164>)
 8002a42:	4a23      	ldr	r2, [pc, #140]	; (8002ad0 <I2C_init+0x164>)
 8002a44:	681b      	ldr	r3, [r3, #0]
 8002a46:	6013      	str	r3, [r2, #0]
    I2C1->TIMINGR = 0x10805E89 & 0xF0FFFFFF; // Set timing register to 0x10805E89. See reference manual for more
 8002a48:	4b21      	ldr	r3, [pc, #132]	; (8002ad0 <I2C_init+0x164>)
 8002a4a:	4a23      	ldr	r2, [pc, #140]	; (8002ad8 <I2C_init+0x16c>)
 8002a4c:	611a      	str	r2, [r3, #16]
    I2C1->CR1  |= 0x00000001;  // Enable I2C1 peripheral
 8002a4e:	4b20      	ldr	r3, [pc, #128]	; (8002ad0 <I2C_init+0x164>)
 8002a50:	681b      	ldr	r3, [r3, #0]
 8002a52:	4a1f      	ldr	r2, [pc, #124]	; (8002ad0 <I2C_init+0x164>)
 8002a54:	f043 0301 	orr.w	r3, r3, #1
 8002a58:	6013      	str	r3, [r2, #0]
    I2C1->OAR1  = 0x00000000;  // Clear own address register 1
 8002a5a:	4b1d      	ldr	r3, [pc, #116]	; (8002ad0 <I2C_init+0x164>)
 8002a5c:	2200      	movs	r2, #0
 8002a5e:	609a      	str	r2, [r3, #8]
    I2C1->OAR2  = 0x00000000;  // Clear own address register 2
 8002a60:	4b1b      	ldr	r3, [pc, #108]	; (8002ad0 <I2C_init+0x164>)
 8002a62:	2200      	movs	r2, #0
 8002a64:	60da      	str	r2, [r3, #12]
    I2C1->OAR1 |= 0x00000000;  // Configure for 7-bit address (0x00000000 - 7-bit, 0x00000400 - 10-bit)
 8002a66:	4b1a      	ldr	r3, [pc, #104]	; (8002ad0 <I2C_init+0x164>)
 8002a68:	4a19      	ldr	r2, [pc, #100]	; (8002ad0 <I2C_init+0x164>)
 8002a6a:	689b      	ldr	r3, [r3, #8]
 8002a6c:	6093      	str	r3, [r2, #8]
    I2C1->OAR1 |= 0xAB;        // Set own address to 0xAB
 8002a6e:	4b18      	ldr	r3, [pc, #96]	; (8002ad0 <I2C_init+0x164>)
 8002a70:	689b      	ldr	r3, [r3, #8]
 8002a72:	4a17      	ldr	r2, [pc, #92]	; (8002ad0 <I2C_init+0x164>)
 8002a74:	f043 03ab 	orr.w	r3, r3, #171	; 0xab
 8002a78:	6093      	str	r3, [r2, #8]
    I2C1->OAR1 |= 0x00008000;  // Enable own address acknowledgment
 8002a7a:	4b15      	ldr	r3, [pc, #84]	; (8002ad0 <I2C_init+0x164>)
 8002a7c:	689b      	ldr	r3, [r3, #8]
 8002a7e:	4a14      	ldr	r2, [pc, #80]	; (8002ad0 <I2C_init+0x164>)
 8002a80:	f443 4300 	orr.w	r3, r3, #32768	; 0x8000
 8002a84:	6093      	str	r3, [r2, #8]
    I2C1->CR1  |= 0x00000000;  // Set mode (0x00000000 - I2C, 0x00200000 - SMBus Device, 0x00100000 - SMBus Host)
 8002a86:	4b12      	ldr	r3, [pc, #72]	; (8002ad0 <I2C_init+0x164>)
 8002a88:	4a11      	ldr	r2, [pc, #68]	; (8002ad0 <I2C_init+0x164>)
 8002a8a:	681b      	ldr	r3, [r3, #0]
 8002a8c:	6013      	str	r3, [r2, #0]
    I2C1->CR2  &= 0x07FF7FFF;  // Clear config 2
 8002a8e:	4b10      	ldr	r3, [pc, #64]	; (8002ad0 <I2C_init+0x164>)
 8002a90:	685b      	ldr	r3, [r3, #4]
 8002a92:	4a0f      	ldr	r2, [pc, #60]	; (8002ad0 <I2C_init+0x164>)
 8002a94:	f023 4378 	bic.w	r3, r3, #4160749568	; 0xf8000000
 8002a98:	f423 4300 	bic.w	r3, r3, #32768	; 0x8000
 8002a9c:	6053      	str	r3, [r2, #4]
    I2C1->CR2  |= 0x00000000;  // Configure acknowledgment (0x00000000 - Enabled, 0x00008000 - Disabled)
 8002a9e:	4b0c      	ldr	r3, [pc, #48]	; (8002ad0 <I2C_init+0x164>)
 8002aa0:	4a0b      	ldr	r2, [pc, #44]	; (8002ad0 <I2C_init+0x164>)
 8002aa2:	685b      	ldr	r3, [r3, #4]
 8002aa4:	6053      	str	r3, [r2, #4]

	I2C_Write(0x98, 0x07, 0x01); //Turn on acc
 8002aa6:	2201      	movs	r2, #1
 8002aa8:	2107      	movs	r1, #7
 8002aaa:	2098      	movs	r0, #152	; 0x98
 8002aac:	f7ff fe90 	bl	80027d0 <I2C_Write>
	I2C_Write(0x98, 0x0A, 0x00); //Enable all tab axis
 8002ab0:	2200      	movs	r2, #0
 8002ab2:	210a      	movs	r1, #10
 8002ab4:	2098      	movs	r0, #152	; 0x98
 8002ab6:	f7ff fe8b 	bl	80027d0 <I2C_Write>
	I2C_Write(0x98, 0x09, 0x1F); //Set tabthreshold to max value 11111
 8002aba:	221f      	movs	r2, #31
 8002abc:	2109      	movs	r1, #9
 8002abe:	2098      	movs	r0, #152	; 0x98
 8002ac0:	f7ff fe86 	bl	80027d0 <I2C_Write>
}
 8002ac4:	bf00      	nop
 8002ac6:	bd80      	pop	{r7, pc}
 8002ac8:	40021000 	.word	0x40021000
 8002acc:	48000400 	.word	0x48000400
 8002ad0:	40005400 	.word	0x40005400
 8002ad4:	00cfe0ff 	.word	0x00cfe0ff
 8002ad8:	10805e89 	.word	0x10805e89

08002adc <analogConfigPorts>:
/**
  * @brief  Sets up the analog ports for the potentiometers TODO: REF
  * @param  None
  * @retval None
  */
void analogConfigPorts(){
 8002adc:	b480      	push	{r7}
 8002ade:	b085      	sub	sp, #20
 8002ae0:	af00      	add	r7, sp, #0
	RCC->AHBENR |= RCC_AHBPeriph_GPIOA;
 8002ae2:	4b4e      	ldr	r3, [pc, #312]	; (8002c1c <analogConfigPorts+0x140>)
 8002ae4:	695b      	ldr	r3, [r3, #20]
 8002ae6:	4a4d      	ldr	r2, [pc, #308]	; (8002c1c <analogConfigPorts+0x140>)
 8002ae8:	f443 3300 	orr.w	r3, r3, #131072	; 0x20000
 8002aec:	6153      	str	r3, [r2, #20]

	int pin = 0;
 8002aee:	2300      	movs	r3, #0
 8002af0:	607b      	str	r3, [r7, #4]
	GPIOA->MODER &= ~(0x00000003 << (2*pin));
 8002af2:	f04f 4390 	mov.w	r3, #1207959552	; 0x48000000
 8002af6:	681b      	ldr	r3, [r3, #0]
 8002af8:	687a      	ldr	r2, [r7, #4]
 8002afa:	0052      	lsls	r2, r2, #1
 8002afc:	2103      	movs	r1, #3
 8002afe:	fa01 f202 	lsl.w	r2, r1, r2
 8002b02:	43d2      	mvns	r2, r2
 8002b04:	4611      	mov	r1, r2
 8002b06:	f04f 4290 	mov.w	r2, #1207959552	; 0x48000000
 8002b0a:	400b      	ands	r3, r1
 8002b0c:	6013      	str	r3, [r2, #0]
	GPIOA->MODER |= 0x00000000 << (2*pin);
 8002b0e:	f04f 4390 	mov.w	r3, #1207959552	; 0x48000000
 8002b12:	f04f 4290 	mov.w	r2, #1207959552	; 0x48000000
 8002b16:	681b      	ldr	r3, [r3, #0]
 8002b18:	6013      	str	r3, [r2, #0]
	GPIOA->PUPDR &= ~(0x00000003 << (2*pin));
 8002b1a:	f04f 4390 	mov.w	r3, #1207959552	; 0x48000000
 8002b1e:	68db      	ldr	r3, [r3, #12]
 8002b20:	687a      	ldr	r2, [r7, #4]
 8002b22:	0052      	lsls	r2, r2, #1
 8002b24:	2103      	movs	r1, #3
 8002b26:	fa01 f202 	lsl.w	r2, r1, r2
 8002b2a:	43d2      	mvns	r2, r2
 8002b2c:	4611      	mov	r1, r2
 8002b2e:	f04f 4290 	mov.w	r2, #1207959552	; 0x48000000
 8002b32:	400b      	ands	r3, r1
 8002b34:	60d3      	str	r3, [r2, #12]
	GPIOA->PUPDR |= 0x00000003 << (2*pin);
 8002b36:	f04f 4390 	mov.w	r3, #1207959552	; 0x48000000
 8002b3a:	68db      	ldr	r3, [r3, #12]
 8002b3c:	687a      	ldr	r2, [r7, #4]
 8002b3e:	0052      	lsls	r2, r2, #1
 8002b40:	2103      	movs	r1, #3
 8002b42:	fa01 f202 	lsl.w	r2, r1, r2
 8002b46:	4611      	mov	r1, r2
 8002b48:	f04f 4290 	mov.w	r2, #1207959552	; 0x48000000
 8002b4c:	430b      	orrs	r3, r1
 8002b4e:	60d3      	str	r3, [r2, #12]

	RCC->CFGR2 &= ~RCC_CFGR2_ADCPRE12; // Clear ADC12 prescaler bits
 8002b50:	4b32      	ldr	r3, [pc, #200]	; (8002c1c <analogConfigPorts+0x140>)
 8002b52:	6adb      	ldr	r3, [r3, #44]	; 0x2c
 8002b54:	4a31      	ldr	r2, [pc, #196]	; (8002c1c <analogConfigPorts+0x140>)
 8002b56:	f423 73f8 	bic.w	r3, r3, #496	; 0x1f0
 8002b5a:	62d3      	str	r3, [r2, #44]	; 0x2c
	RCC->CFGR2 |= RCC_CFGR2_ADCPRE12_DIV6; // Set ADC12 prescaler to 6
 8002b5c:	4b2f      	ldr	r3, [pc, #188]	; (8002c1c <analogConfigPorts+0x140>)
 8002b5e:	6adb      	ldr	r3, [r3, #44]	; 0x2c
 8002b60:	4a2e      	ldr	r2, [pc, #184]	; (8002c1c <analogConfigPorts+0x140>)
 8002b62:	f443 7398 	orr.w	r3, r3, #304	; 0x130
 8002b66:	62d3      	str	r3, [r2, #44]	; 0x2c
	RCC->AHBENR |= RCC_AHBPeriph_ADC12; // Enable clock for ADC12
 8002b68:	4b2c      	ldr	r3, [pc, #176]	; (8002c1c <analogConfigPorts+0x140>)
 8002b6a:	695b      	ldr	r3, [r3, #20]
 8002b6c:	4a2b      	ldr	r2, [pc, #172]	; (8002c1c <analogConfigPorts+0x140>)
 8002b6e:	f043 5380 	orr.w	r3, r3, #268435456	; 0x10000000
 8002b72:	6153      	str	r3, [r2, #20]


	ADC1->CR = 0x00000000; // Clear CR register
 8002b74:	f04f 43a0 	mov.w	r3, #1342177280	; 0x50000000
 8002b78:	2200      	movs	r2, #0
 8002b7a:	609a      	str	r2, [r3, #8]
	ADC1->CFGR &= 0xFDFFC007; // Clear ADC1 config register
 8002b7c:	f04f 43a0 	mov.w	r3, #1342177280	; 0x50000000
 8002b80:	68da      	ldr	r2, [r3, #12]
 8002b82:	f04f 41a0 	mov.w	r1, #1342177280	; 0x50000000
 8002b86:	4b26      	ldr	r3, [pc, #152]	; (8002c20 <analogConfigPorts+0x144>)
 8002b88:	4013      	ands	r3, r2
 8002b8a:	60cb      	str	r3, [r1, #12]
	ADC1->SQR1 &= ~ADC_SQR1_L; // Clear regular sequence register 1
 8002b8c:	f04f 43a0 	mov.w	r3, #1342177280	; 0x50000000
 8002b90:	6b1b      	ldr	r3, [r3, #48]	; 0x30
 8002b92:	f04f 42a0 	mov.w	r2, #1342177280	; 0x50000000
 8002b96:	f023 030f 	bic.w	r3, r3, #15
 8002b9a:	6313      	str	r3, [r2, #48]	; 0x30

	ADC1->CR |= 0x10000000; // Enable internal ADC voltage regulator
 8002b9c:	f04f 43a0 	mov.w	r3, #1342177280	; 0x50000000
 8002ba0:	689b      	ldr	r3, [r3, #8]
 8002ba2:	f04f 42a0 	mov.w	r2, #1342177280	; 0x50000000
 8002ba6:	f043 5380 	orr.w	r3, r3, #268435456	; 0x10000000
 8002baa:	6093      	str	r3, [r2, #8]
	for (int i = 0 ; i < 1000 ; i++) {} // Wait for about 16 microseconds
 8002bac:	2300      	movs	r3, #0
 8002bae:	60fb      	str	r3, [r7, #12]
 8002bb0:	e002      	b.n	8002bb8 <analogConfigPorts+0xdc>
 8002bb2:	68fb      	ldr	r3, [r7, #12]
 8002bb4:	3301      	adds	r3, #1
 8002bb6:	60fb      	str	r3, [r7, #12]
 8002bb8:	68fb      	ldr	r3, [r7, #12]
 8002bba:	f5b3 7f7a 	cmp.w	r3, #1000	; 0x3e8
 8002bbe:	dbf8      	blt.n	8002bb2 <analogConfigPorts+0xd6>

	ADC1->CR |= 0x80000000; // Start ADC1 calibration
 8002bc0:	f04f 43a0 	mov.w	r3, #1342177280	; 0x50000000
 8002bc4:	689b      	ldr	r3, [r3, #8]
 8002bc6:	f04f 42a0 	mov.w	r2, #1342177280	; 0x50000000
 8002bca:	f043 4300 	orr.w	r3, r3, #2147483648	; 0x80000000
 8002bce:	6093      	str	r3, [r2, #8]
	while (!(ADC1->CR & 0x80000000)); // Wait for calibration to finish
 8002bd0:	bf00      	nop
 8002bd2:	f04f 43a0 	mov.w	r3, #1342177280	; 0x50000000
 8002bd6:	689b      	ldr	r3, [r3, #8]
 8002bd8:	2b00      	cmp	r3, #0
 8002bda:	dafa      	bge.n	8002bd2 <analogConfigPorts+0xf6>
	for (int i = 0 ; i < 100 ; i++) {} // Wait for a little while
 8002bdc:	2300      	movs	r3, #0
 8002bde:	60bb      	str	r3, [r7, #8]
 8002be0:	e002      	b.n	8002be8 <analogConfigPorts+0x10c>
 8002be2:	68bb      	ldr	r3, [r7, #8]
 8002be4:	3301      	adds	r3, #1
 8002be6:	60bb      	str	r3, [r7, #8]
 8002be8:	68bb      	ldr	r3, [r7, #8]
 8002bea:	2b63      	cmp	r3, #99	; 0x63
 8002bec:	ddf9      	ble.n	8002be2 <analogConfigPorts+0x106>

	ADC1->CR |= 0x00000001; // Enable ADC1 (0x01 - Enable, 0x02 - Disable)
 8002bee:	f04f 43a0 	mov.w	r3, #1342177280	; 0x50000000
 8002bf2:	689b      	ldr	r3, [r3, #8]
 8002bf4:	f04f 42a0 	mov.w	r2, #1342177280	; 0x50000000
 8002bf8:	f043 0301 	orr.w	r3, r3, #1
 8002bfc:	6093      	str	r3, [r2, #8]
	while (!(ADC1->ISR & 0x00000001)); // Wait until ready
 8002bfe:	bf00      	nop
 8002c00:	f04f 43a0 	mov.w	r3, #1342177280	; 0x50000000
 8002c04:	681b      	ldr	r3, [r3, #0]
 8002c06:	f003 0301 	and.w	r3, r3, #1
 8002c0a:	2b00      	cmp	r3, #0
 8002c0c:	d0f8      	beq.n	8002c00 <analogConfigPorts+0x124>
}
 8002c0e:	bf00      	nop
 8002c10:	bf00      	nop
 8002c12:	3714      	adds	r7, #20
 8002c14:	46bd      	mov	sp, r7
 8002c16:	f85d 7b04 	ldr.w	r7, [sp], #4
 8002c1a:	4770      	bx	lr
 8002c1c:	40021000 	.word	0x40021000
 8002c20:	fdffc007 	.word	0xfdffc007

08002c24 <readPotentiometer>:
/**
  * @brief  Reads the left potentiometer TODO: REF
  * @param  None
  * @retval A value between 0 and 4096 from the potentiometers
  */
uint16_t readPotentiometer(){
 8002c24:	b580      	push	{r7, lr}
 8002c26:	b082      	sub	sp, #8
 8002c28:	af00      	add	r7, sp, #0
	ADC_RegularChannelConfig(ADC1, ADC_Channel_1, 1, ADC_SampleTime_1Cycles5);
 8002c2a:	2300      	movs	r3, #0
 8002c2c:	2201      	movs	r2, #1
 8002c2e:	2101      	movs	r1, #1
 8002c30:	f04f 40a0 	mov.w	r0, #1342177280	; 0x50000000
 8002c34:	f7fe f88e 	bl	8000d54 <ADC_RegularChannelConfig>
	ADC_StartConversion(ADC1); // Start ADC read
 8002c38:	f04f 40a0 	mov.w	r0, #1342177280	; 0x50000000
 8002c3c:	f7fe f982 	bl	8000f44 <ADC_StartConversion>
	while (ADC_GetFlagStatus(ADC1, ADC_FLAG_EOC) == 0); // Wait for ADC read
 8002c40:	bf00      	nop
 8002c42:	2104      	movs	r1, #4
 8002c44:	f04f 40a0 	mov.w	r0, #1342177280	; 0x50000000
 8002c48:	f7fe f999 	bl	8000f7e <ADC_GetFlagStatus>
 8002c4c:	4603      	mov	r3, r0
 8002c4e:	2b00      	cmp	r3, #0
 8002c50:	d0f7      	beq.n	8002c42 <readPotentiometer+0x1e>
	uint16_t potVal = ADC_GetConversionValue(ADC1);
 8002c52:	f04f 40a0 	mov.w	r0, #1342177280	; 0x50000000
 8002c56:	f7fe f985 	bl	8000f64 <ADC_GetConversionValue>
 8002c5a:	4603      	mov	r3, r0
 8002c5c:	80fb      	strh	r3, [r7, #6]
	return potVal;
 8002c5e:	88fb      	ldrh	r3, [r7, #6]
}
 8002c60:	4618      	mov	r0, r3
 8002c62:	3708      	adds	r7, #8
 8002c64:	46bd      	mov	sp, r7
 8002c66:	bd80      	pop	{r7, pc}

08002c68 <initRGB>:
/**
  * @brief  Sets up the pins for RGB TODO: REF
  * @param  None
  * @retval None
  */
void initRGB(){
 8002c68:	b480      	push	{r7}
 8002c6a:	b083      	sub	sp, #12
 8002c6c:	af00      	add	r7, sp, #0
	//setup PA9 (Blue)
	uint8_t pin = 9;
 8002c6e:	2309      	movs	r3, #9
 8002c70:	71fb      	strb	r3, [r7, #7]
	GPIOA->OSPEEDR &= ~(0x00000003 << (2*pin));
 8002c72:	f04f 4390 	mov.w	r3, #1207959552	; 0x48000000
 8002c76:	689b      	ldr	r3, [r3, #8]
 8002c78:	79fa      	ldrb	r2, [r7, #7]
 8002c7a:	0052      	lsls	r2, r2, #1
 8002c7c:	2103      	movs	r1, #3
 8002c7e:	fa01 f202 	lsl.w	r2, r1, r2
 8002c82:	43d2      	mvns	r2, r2
 8002c84:	4611      	mov	r1, r2
 8002c86:	f04f 4290 	mov.w	r2, #1207959552	; 0x48000000
 8002c8a:	400b      	ands	r3, r1
 8002c8c:	6093      	str	r3, [r2, #8]
	GPIOA->OSPEEDR |= (0x00000002 << (2*pin));
 8002c8e:	f04f 4390 	mov.w	r3, #1207959552	; 0x48000000
 8002c92:	689b      	ldr	r3, [r3, #8]
 8002c94:	79fa      	ldrb	r2, [r7, #7]
 8002c96:	0052      	lsls	r2, r2, #1
 8002c98:	2102      	movs	r1, #2
 8002c9a:	fa01 f202 	lsl.w	r2, r1, r2
 8002c9e:	4611      	mov	r1, r2
 8002ca0:	f04f 4290 	mov.w	r2, #1207959552	; 0x48000000
 8002ca4:	430b      	orrs	r3, r1
 8002ca6:	6093      	str	r3, [r2, #8]
	GPIOA->OTYPER &= ~(0x0001 << (pin));
 8002ca8:	f04f 4390 	mov.w	r3, #1207959552	; 0x48000000
 8002cac:	889b      	ldrh	r3, [r3, #4]
 8002cae:	b29b      	uxth	r3, r3
 8002cb0:	b21a      	sxth	r2, r3
 8002cb2:	79fb      	ldrb	r3, [r7, #7]
 8002cb4:	2101      	movs	r1, #1
 8002cb6:	fa01 f303 	lsl.w	r3, r1, r3
 8002cba:	b21b      	sxth	r3, r3
 8002cbc:	43db      	mvns	r3, r3
 8002cbe:	b21b      	sxth	r3, r3
 8002cc0:	4013      	ands	r3, r2
 8002cc2:	b21a      	sxth	r2, r3
 8002cc4:	f04f 4390 	mov.w	r3, #1207959552	; 0x48000000
 8002cc8:	b292      	uxth	r2, r2
 8002cca:	809a      	strh	r2, [r3, #4]
	GPIOA->OTYPER |= 0x0000 << (pin);
 8002ccc:	f04f 4290 	mov.w	r2, #1207959552	; 0x48000000
 8002cd0:	f04f 4390 	mov.w	r3, #1207959552	; 0x48000000
 8002cd4:	8892      	ldrh	r2, [r2, #4]
 8002cd6:	b292      	uxth	r2, r2
 8002cd8:	809a      	strh	r2, [r3, #4]
	GPIOA->MODER &= ~(0x00000003 << (2*pin));
 8002cda:	f04f 4390 	mov.w	r3, #1207959552	; 0x48000000
 8002cde:	681b      	ldr	r3, [r3, #0]
 8002ce0:	79fa      	ldrb	r2, [r7, #7]
 8002ce2:	0052      	lsls	r2, r2, #1
 8002ce4:	2103      	movs	r1, #3
 8002ce6:	fa01 f202 	lsl.w	r2, r1, r2
 8002cea:	43d2      	mvns	r2, r2
 8002cec:	4611      	mov	r1, r2
 8002cee:	f04f 4290 	mov.w	r2, #1207959552	; 0x48000000
 8002cf2:	400b      	ands	r3, r1
 8002cf4:	6013      	str	r3, [r2, #0]
	GPIOA->MODER |= 0x00000001 << (2*pin);
 8002cf6:	f04f 4390 	mov.w	r3, #1207959552	; 0x48000000
 8002cfa:	681b      	ldr	r3, [r3, #0]
 8002cfc:	79fa      	ldrb	r2, [r7, #7]
 8002cfe:	0052      	lsls	r2, r2, #1
 8002d00:	2101      	movs	r1, #1
 8002d02:	fa01 f202 	lsl.w	r2, r1, r2
 8002d06:	4611      	mov	r1, r2
 8002d08:	f04f 4290 	mov.w	r2, #1207959552	; 0x48000000
 8002d0c:	430b      	orrs	r3, r1
 8002d0e:	6013      	str	r3, [r2, #0]

	//setup PC7 (Green)
	pin = 7;
 8002d10:	2307      	movs	r3, #7
 8002d12:	71fb      	strb	r3, [r7, #7]
	GPIOC->OSPEEDR &= ~(0x00000003 << (2*pin));
 8002d14:	4b46      	ldr	r3, [pc, #280]	; (8002e30 <initRGB+0x1c8>)
 8002d16:	689b      	ldr	r3, [r3, #8]
 8002d18:	79fa      	ldrb	r2, [r7, #7]
 8002d1a:	0052      	lsls	r2, r2, #1
 8002d1c:	2103      	movs	r1, #3
 8002d1e:	fa01 f202 	lsl.w	r2, r1, r2
 8002d22:	43d2      	mvns	r2, r2
 8002d24:	4611      	mov	r1, r2
 8002d26:	4a42      	ldr	r2, [pc, #264]	; (8002e30 <initRGB+0x1c8>)
 8002d28:	400b      	ands	r3, r1
 8002d2a:	6093      	str	r3, [r2, #8]
	GPIOC->OSPEEDR |= (0x00000002 << (2*pin));
 8002d2c:	4b40      	ldr	r3, [pc, #256]	; (8002e30 <initRGB+0x1c8>)
 8002d2e:	689b      	ldr	r3, [r3, #8]
 8002d30:	79fa      	ldrb	r2, [r7, #7]
 8002d32:	0052      	lsls	r2, r2, #1
 8002d34:	2102      	movs	r1, #2
 8002d36:	fa01 f202 	lsl.w	r2, r1, r2
 8002d3a:	4611      	mov	r1, r2
 8002d3c:	4a3c      	ldr	r2, [pc, #240]	; (8002e30 <initRGB+0x1c8>)
 8002d3e:	430b      	orrs	r3, r1
 8002d40:	6093      	str	r3, [r2, #8]
	GPIOC->OTYPER &= ~(0x0001 << (pin));
 8002d42:	4b3b      	ldr	r3, [pc, #236]	; (8002e30 <initRGB+0x1c8>)
 8002d44:	889b      	ldrh	r3, [r3, #4]
 8002d46:	b29b      	uxth	r3, r3
 8002d48:	b21a      	sxth	r2, r3
 8002d4a:	79fb      	ldrb	r3, [r7, #7]
 8002d4c:	2101      	movs	r1, #1
 8002d4e:	fa01 f303 	lsl.w	r3, r1, r3
 8002d52:	b21b      	sxth	r3, r3
 8002d54:	43db      	mvns	r3, r3
 8002d56:	b21b      	sxth	r3, r3
 8002d58:	4013      	ands	r3, r2
 8002d5a:	b21a      	sxth	r2, r3
 8002d5c:	4b34      	ldr	r3, [pc, #208]	; (8002e30 <initRGB+0x1c8>)
 8002d5e:	b292      	uxth	r2, r2
 8002d60:	809a      	strh	r2, [r3, #4]
	GPIOC->OTYPER |= 0x0000 << (pin);
 8002d62:	4a33      	ldr	r2, [pc, #204]	; (8002e30 <initRGB+0x1c8>)
 8002d64:	4b32      	ldr	r3, [pc, #200]	; (8002e30 <initRGB+0x1c8>)
 8002d66:	8892      	ldrh	r2, [r2, #4]
 8002d68:	b292      	uxth	r2, r2
 8002d6a:	809a      	strh	r2, [r3, #4]
	GPIOC->MODER &= ~(0x00000003 << (2*pin));
 8002d6c:	4b30      	ldr	r3, [pc, #192]	; (8002e30 <initRGB+0x1c8>)
 8002d6e:	681b      	ldr	r3, [r3, #0]
 8002d70:	79fa      	ldrb	r2, [r7, #7]
 8002d72:	0052      	lsls	r2, r2, #1
 8002d74:	2103      	movs	r1, #3
 8002d76:	fa01 f202 	lsl.w	r2, r1, r2
 8002d7a:	43d2      	mvns	r2, r2
 8002d7c:	4611      	mov	r1, r2
 8002d7e:	4a2c      	ldr	r2, [pc, #176]	; (8002e30 <initRGB+0x1c8>)
 8002d80:	400b      	ands	r3, r1
 8002d82:	6013      	str	r3, [r2, #0]
	GPIOC->MODER |= 0x00000001 << (2*pin);
 8002d84:	4b2a      	ldr	r3, [pc, #168]	; (8002e30 <initRGB+0x1c8>)
 8002d86:	681b      	ldr	r3, [r3, #0]
 8002d88:	79fa      	ldrb	r2, [r7, #7]
 8002d8a:	0052      	lsls	r2, r2, #1
 8002d8c:	2101      	movs	r1, #1
 8002d8e:	fa01 f202 	lsl.w	r2, r1, r2
 8002d92:	4611      	mov	r1, r2
 8002d94:	4a26      	ldr	r2, [pc, #152]	; (8002e30 <initRGB+0x1c8>)
 8002d96:	430b      	orrs	r3, r1
 8002d98:	6013      	str	r3, [r2, #0]

	//setup PB4 (Red)
	pin = 4;
 8002d9a:	2304      	movs	r3, #4
 8002d9c:	71fb      	strb	r3, [r7, #7]
	GPIOB->OSPEEDR &= ~(0x00000003 << (2*pin));
 8002d9e:	4b25      	ldr	r3, [pc, #148]	; (8002e34 <initRGB+0x1cc>)
 8002da0:	689b      	ldr	r3, [r3, #8]
 8002da2:	79fa      	ldrb	r2, [r7, #7]
 8002da4:	0052      	lsls	r2, r2, #1
 8002da6:	2103      	movs	r1, #3
 8002da8:	fa01 f202 	lsl.w	r2, r1, r2
 8002dac:	43d2      	mvns	r2, r2
 8002dae:	4611      	mov	r1, r2
 8002db0:	4a20      	ldr	r2, [pc, #128]	; (8002e34 <initRGB+0x1cc>)
 8002db2:	400b      	ands	r3, r1
 8002db4:	6093      	str	r3, [r2, #8]
	GPIOB->OSPEEDR |= (0x00000002 << (2*pin));
 8002db6:	4b1f      	ldr	r3, [pc, #124]	; (8002e34 <initRGB+0x1cc>)
 8002db8:	689b      	ldr	r3, [r3, #8]
 8002dba:	79fa      	ldrb	r2, [r7, #7]
 8002dbc:	0052      	lsls	r2, r2, #1
 8002dbe:	2102      	movs	r1, #2
 8002dc0:	fa01 f202 	lsl.w	r2, r1, r2
 8002dc4:	4611      	mov	r1, r2
 8002dc6:	4a1b      	ldr	r2, [pc, #108]	; (8002e34 <initRGB+0x1cc>)
 8002dc8:	430b      	orrs	r3, r1
 8002dca:	6093      	str	r3, [r2, #8]
	GPIOB->OTYPER &= ~(0x0001 << (pin));
 8002dcc:	4b19      	ldr	r3, [pc, #100]	; (8002e34 <initRGB+0x1cc>)
 8002dce:	889b      	ldrh	r3, [r3, #4]
 8002dd0:	b29b      	uxth	r3, r3
 8002dd2:	b21a      	sxth	r2, r3
 8002dd4:	79fb      	ldrb	r3, [r7, #7]
 8002dd6:	2101      	movs	r1, #1
 8002dd8:	fa01 f303 	lsl.w	r3, r1, r3
 8002ddc:	b21b      	sxth	r3, r3
 8002dde:	43db      	mvns	r3, r3
 8002de0:	b21b      	sxth	r3, r3
 8002de2:	4013      	ands	r3, r2
 8002de4:	b21a      	sxth	r2, r3
 8002de6:	4b13      	ldr	r3, [pc, #76]	; (8002e34 <initRGB+0x1cc>)
 8002de8:	b292      	uxth	r2, r2
 8002dea:	809a      	strh	r2, [r3, #4]
	GPIOB->OTYPER |= 0x0000 << (pin);
 8002dec:	4a11      	ldr	r2, [pc, #68]	; (8002e34 <initRGB+0x1cc>)
 8002dee:	4b11      	ldr	r3, [pc, #68]	; (8002e34 <initRGB+0x1cc>)
 8002df0:	8892      	ldrh	r2, [r2, #4]
 8002df2:	b292      	uxth	r2, r2
 8002df4:	809a      	strh	r2, [r3, #4]
	GPIOB->MODER &= ~(0x00000003 << (2*pin));
 8002df6:	4b0f      	ldr	r3, [pc, #60]	; (8002e34 <initRGB+0x1cc>)
 8002df8:	681b      	ldr	r3, [r3, #0]
 8002dfa:	79fa      	ldrb	r2, [r7, #7]
 8002dfc:	0052      	lsls	r2, r2, #1
 8002dfe:	2103      	movs	r1, #3
 8002e00:	fa01 f202 	lsl.w	r2, r1, r2
 8002e04:	43d2      	mvns	r2, r2
 8002e06:	4611      	mov	r1, r2
 8002e08:	4a0a      	ldr	r2, [pc, #40]	; (8002e34 <initRGB+0x1cc>)
 8002e0a:	400b      	ands	r3, r1
 8002e0c:	6013      	str	r3, [r2, #0]
	GPIOB->MODER |= 0x00000001 << (2*pin);
 8002e0e:	4b09      	ldr	r3, [pc, #36]	; (8002e34 <initRGB+0x1cc>)
 8002e10:	681b      	ldr	r3, [r3, #0]
 8002e12:	79fa      	ldrb	r2, [r7, #7]
 8002e14:	0052      	lsls	r2, r2, #1
 8002e16:	2101      	movs	r1, #1
 8002e18:	fa01 f202 	lsl.w	r2, r1, r2
 8002e1c:	4611      	mov	r1, r2
 8002e1e:	4a05      	ldr	r2, [pc, #20]	; (8002e34 <initRGB+0x1cc>)
 8002e20:	430b      	orrs	r3, r1
 8002e22:	6013      	str	r3, [r2, #0]
}
 8002e24:	bf00      	nop
 8002e26:	370c      	adds	r7, #12
 8002e28:	46bd      	mov	sp, r7
 8002e2a:	f85d 7b04 	ldr.w	r7, [sp], #4
 8002e2e:	4770      	bx	lr
 8002e30:	48000800 	.word	0x48000800
 8002e34:	48000400 	.word	0x48000400

08002e38 <RGBColor>:
/**
  * @brief Sets the color of the LED based on an array [R, G, B] TODO: REF
  * @param  color: array with 3 elements for R,G and B
  * @retval None
  */
void RGBColor(uint8_t color[]){
 8002e38:	b480      	push	{r7}
 8002e3a:	b083      	sub	sp, #12
 8002e3c:	af00      	add	r7, sp, #0
 8002e3e:	6078      	str	r0, [r7, #4]
	//Resets LED
	GPIOB->ODR |= (0x0001 << 4);
 8002e40:	4b1f      	ldr	r3, [pc, #124]	; (8002ec0 <RGBColor+0x88>)
 8002e42:	8a9b      	ldrh	r3, [r3, #20]
 8002e44:	b29b      	uxth	r3, r3
 8002e46:	4a1e      	ldr	r2, [pc, #120]	; (8002ec0 <RGBColor+0x88>)
 8002e48:	f043 0310 	orr.w	r3, r3, #16
 8002e4c:	b29b      	uxth	r3, r3
 8002e4e:	8293      	strh	r3, [r2, #20]
	GPIOC->ODR |= (0x0001 << 7);
 8002e50:	4b1c      	ldr	r3, [pc, #112]	; (8002ec4 <RGBColor+0x8c>)
 8002e52:	8a9b      	ldrh	r3, [r3, #20]
 8002e54:	b29b      	uxth	r3, r3
 8002e56:	4a1b      	ldr	r2, [pc, #108]	; (8002ec4 <RGBColor+0x8c>)
 8002e58:	f043 0380 	orr.w	r3, r3, #128	; 0x80
 8002e5c:	b29b      	uxth	r3, r3
 8002e5e:	8293      	strh	r3, [r2, #20]
	GPIOA->ODR |= (0x0001 << 9);
 8002e60:	f04f 4390 	mov.w	r3, #1207959552	; 0x48000000
 8002e64:	8a9b      	ldrh	r3, [r3, #20]
 8002e66:	b29b      	uxth	r3, r3
 8002e68:	f04f 4290 	mov.w	r2, #1207959552	; 0x48000000
 8002e6c:	f443 7300 	orr.w	r3, r3, #512	; 0x200
 8002e70:	b29b      	uxth	r3, r3
 8002e72:	8293      	strh	r3, [r2, #20]

	if(color[0] == 1){ //Red PB4
 8002e74:	687b      	ldr	r3, [r7, #4]
 8002e76:	781b      	ldrb	r3, [r3, #0]
 8002e78:	2b01      	cmp	r3, #1
 8002e7a:	d104      	bne.n	8002e86 <RGBColor+0x4e>
		GPIOB->ODR &= (0x0000 << 4);
 8002e7c:	4b10      	ldr	r3, [pc, #64]	; (8002ec0 <RGBColor+0x88>)
 8002e7e:	8a9b      	ldrh	r3, [r3, #20]
 8002e80:	4b0f      	ldr	r3, [pc, #60]	; (8002ec0 <RGBColor+0x88>)
 8002e82:	2200      	movs	r2, #0
 8002e84:	829a      	strh	r2, [r3, #20]
	}
	if(color[1] == 1){ //Green C7
 8002e86:	687b      	ldr	r3, [r7, #4]
 8002e88:	3301      	adds	r3, #1
 8002e8a:	781b      	ldrb	r3, [r3, #0]
 8002e8c:	2b01      	cmp	r3, #1
 8002e8e:	d104      	bne.n	8002e9a <RGBColor+0x62>
		GPIOC->ODR &= (0x0000 << 7);
 8002e90:	4b0c      	ldr	r3, [pc, #48]	; (8002ec4 <RGBColor+0x8c>)
 8002e92:	8a9b      	ldrh	r3, [r3, #20]
 8002e94:	4b0b      	ldr	r3, [pc, #44]	; (8002ec4 <RGBColor+0x8c>)
 8002e96:	2200      	movs	r2, #0
 8002e98:	829a      	strh	r2, [r3, #20]
	}
	if(color[2] == 1){ //Blue A9
 8002e9a:	687b      	ldr	r3, [r7, #4]
 8002e9c:	3302      	adds	r3, #2
 8002e9e:	781b      	ldrb	r3, [r3, #0]
 8002ea0:	2b01      	cmp	r3, #1
 8002ea2:	d106      	bne.n	8002eb2 <RGBColor+0x7a>
		GPIOA->ODR &= (0x000 << 9);
 8002ea4:	f04f 4390 	mov.w	r3, #1207959552	; 0x48000000
 8002ea8:	8a9b      	ldrh	r3, [r3, #20]
 8002eaa:	f04f 4390 	mov.w	r3, #1207959552	; 0x48000000
 8002eae:	2200      	movs	r2, #0
 8002eb0:	829a      	strh	r2, [r3, #20]
	}
}
 8002eb2:	bf00      	nop
 8002eb4:	370c      	adds	r7, #12
 8002eb6:	46bd      	mov	sp, r7
 8002eb8:	f85d 7b04 	ldr.w	r7, [sp], #4
 8002ebc:	4770      	bx	lr
 8002ebe:	bf00      	nop
 8002ec0:	48000400 	.word	0x48000400
 8002ec4:	48000800 	.word	0x48000800

08002ec8 <writeToFlash>:
/**
  * @brief  writes some data to a given address TODO: REF
  * @param  data: the 2 bytes to the write, address: the address to write to
  * @retval None
  */
void writeToFlash(uint16_t data, uint32_t address){
 8002ec8:	b580      	push	{r7, lr}
 8002eca:	b082      	sub	sp, #8
 8002ecc:	af00      	add	r7, sp, #0
 8002ece:	4603      	mov	r3, r0
 8002ed0:	6039      	str	r1, [r7, #0]
 8002ed2:	80fb      	strh	r3, [r7, #6]
	FLASH_Unlock();
 8002ed4:	f7fe f86c 	bl	8000fb0 <FLASH_Unlock>
	FLASH_ClearFlag( FLASH_FLAG_EOP | FLASH_FLAG_PGERR | FLASH_FLAG_WRPERR );
 8002ed8:	2034      	movs	r0, #52	; 0x34
 8002eda:	f7fe f8f3 	bl	80010c4 <FLASH_ClearFlag>
	FLASH_ErasePage(address);
 8002ede:	6838      	ldr	r0, [r7, #0]
 8002ee0:	f7fe f890 	bl	8001004 <FLASH_ErasePage>
	FLASH_ProgramHalfWord(address, data);
 8002ee4:	88fb      	ldrh	r3, [r7, #6]
 8002ee6:	4619      	mov	r1, r3
 8002ee8:	6838      	ldr	r0, [r7, #0]
 8002eea:	f7fe f8bd 	bl	8001068 <FLASH_ProgramHalfWord>
	FLASH_Lock();
 8002eee:	f7fe f879 	bl	8000fe4 <FLASH_Lock>
}
 8002ef2:	bf00      	nop
 8002ef4:	3708      	adds	r7, #8
 8002ef6:	46bd      	mov	sp, r7
 8002ef8:	bd80      	pop	{r7, pc}

08002efa <readFromFlash>:
/**
  * @brief  Reads data from flash memory TODO: REF
  * @param  address: the address to write to
  * @retval 2 bytes from memory
  */
uint16_t readFromFlash(uint32_t address){
 8002efa:	b480      	push	{r7}
 8002efc:	b083      	sub	sp, #12
 8002efe:	af00      	add	r7, sp, #0
 8002f00:	6078      	str	r0, [r7, #4]
	return *(uint16_t *)address;
 8002f02:	687b      	ldr	r3, [r7, #4]
 8002f04:	881b      	ldrh	r3, [r3, #0]
}
 8002f06:	4618      	mov	r0, r3
 8002f08:	370c      	adds	r7, #12
 8002f0a:	46bd      	mov	sp, r7
 8002f0c:	f85d 7b04 	ldr.w	r7, [sp], #4
 8002f10:	4770      	bx	lr
 8002f12:	0000      	movs	r0, r0
 8002f14:	0000      	movs	r0, r0
	...

08002f18 <setFreq>:
/**
  * @brief  Sets the frequenc of the buzzer TODO: REF
  * @param  freq: the frequency the buzzer should play [Hz]
  * @retval None
  */
void setFreq(uint16_t freq) {
 8002f18:	b580      	push	{r7, lr}
 8002f1a:	b084      	sub	sp, #16
 8002f1c:	af00      	add	r7, sp, #0
 8002f1e:	4603      	mov	r3, r0
 8002f20:	80fb      	strh	r3, [r7, #6]
	uint32_t reload = 64e6 / freq / (9 + 1) - 1;
 8002f22:	88fb      	ldrh	r3, [r7, #6]
 8002f24:	4618      	mov	r0, r3
 8002f26:	f7fd fafd 	bl	8000524 <__aeabi_i2d>
 8002f2a:	4602      	mov	r2, r0
 8002f2c:	460b      	mov	r3, r1
 8002f2e:	a11c      	add	r1, pc, #112	; (adr r1, 8002fa0 <setFreq+0x88>)
 8002f30:	e9d1 0100 	ldrd	r0, r1, [r1]
 8002f34:	f7fd fc8a 	bl	800084c <__aeabi_ddiv>
 8002f38:	4602      	mov	r2, r0
 8002f3a:	460b      	mov	r3, r1
 8002f3c:	4610      	mov	r0, r2
 8002f3e:	4619      	mov	r1, r3
 8002f40:	f04f 0200 	mov.w	r2, #0
 8002f44:	4b14      	ldr	r3, [pc, #80]	; (8002f98 <setFreq+0x80>)
 8002f46:	f7fd fc81 	bl	800084c <__aeabi_ddiv>
 8002f4a:	4602      	mov	r2, r0
 8002f4c:	460b      	mov	r3, r1
 8002f4e:	4610      	mov	r0, r2
 8002f50:	4619      	mov	r1, r3
 8002f52:	f04f 0200 	mov.w	r2, #0
 8002f56:	4b11      	ldr	r3, [pc, #68]	; (8002f9c <setFreq+0x84>)
 8002f58:	f7fd f996 	bl	8000288 <__aeabi_dsub>
 8002f5c:	4602      	mov	r2, r0
 8002f5e:	460b      	mov	r3, r1
 8002f60:	4610      	mov	r0, r2
 8002f62:	4619      	mov	r1, r3
 8002f64:	f7fd fd5a 	bl	8000a1c <__aeabi_d2uiz>
 8002f68:	4603      	mov	r3, r0
 8002f6a:	60fb      	str	r3, [r7, #12]
	TIM2->ARR = reload; // Set auto reload value
 8002f6c:	f04f 4280 	mov.w	r2, #1073741824	; 0x40000000
 8002f70:	68fb      	ldr	r3, [r7, #12]
 8002f72:	62d3      	str	r3, [r2, #44]	; 0x2c
	TIM2->CCR3 = reload/2; // Set compare register
 8002f74:	f04f 4280 	mov.w	r2, #1073741824	; 0x40000000
 8002f78:	68fb      	ldr	r3, [r7, #12]
 8002f7a:	085b      	lsrs	r3, r3, #1
 8002f7c:	63d3      	str	r3, [r2, #60]	; 0x3c
	TIM2->EGR |= 0x01;
 8002f7e:	f04f 4380 	mov.w	r3, #1073741824	; 0x40000000
 8002f82:	695b      	ldr	r3, [r3, #20]
 8002f84:	f04f 4280 	mov.w	r2, #1073741824	; 0x40000000
 8002f88:	f043 0301 	orr.w	r3, r3, #1
 8002f8c:	6153      	str	r3, [r2, #20]
}
 8002f8e:	bf00      	nop
 8002f90:	3710      	adds	r7, #16
 8002f92:	46bd      	mov	sp, r7
 8002f94:	bd80      	pop	{r7, pc}
 8002f96:	bf00      	nop
 8002f98:	40240000 	.word	0x40240000
 8002f9c:	3ff00000 	.word	0x3ff00000
 8002fa0:	00000000 	.word	0x00000000
 8002fa4:	418e8480 	.word	0x418e8480

08002fa8 <toggleBuzzer>:
/**
  * @brief  (de)activates the buzzer TODO: REF
  * @param  on: 1 = turn on, everything else = turn off
  * @retval None
  */
void toggleBuzzer(uint8_t on){
 8002fa8:	b480      	push	{r7}
 8002faa:	b083      	sub	sp, #12
 8002fac:	af00      	add	r7, sp, #0
 8002fae:	4603      	mov	r3, r0
 8002fb0:	71fb      	strb	r3, [r7, #7]
	if(on == 1){
 8002fb2:	79fb      	ldrb	r3, [r7, #7]
 8002fb4:	2b01      	cmp	r3, #1
 8002fb6:	d10a      	bne.n	8002fce <toggleBuzzer+0x26>
		TIM2->CR1 |= 0x0001; //enable
 8002fb8:	f04f 4380 	mov.w	r3, #1073741824	; 0x40000000
 8002fbc:	881b      	ldrh	r3, [r3, #0]
 8002fbe:	b29b      	uxth	r3, r3
 8002fc0:	f04f 4280 	mov.w	r2, #1073741824	; 0x40000000
 8002fc4:	f043 0301 	orr.w	r3, r3, #1
 8002fc8:	b29b      	uxth	r3, r3
 8002fca:	8013      	strh	r3, [r2, #0]
	}else{
		TIM2->CR1 &= ~(0x0001); //disable
	}
}
 8002fcc:	e009      	b.n	8002fe2 <toggleBuzzer+0x3a>
		TIM2->CR1 &= ~(0x0001); //disable
 8002fce:	f04f 4380 	mov.w	r3, #1073741824	; 0x40000000
 8002fd2:	881b      	ldrh	r3, [r3, #0]
 8002fd4:	b29b      	uxth	r3, r3
 8002fd6:	f04f 4280 	mov.w	r2, #1073741824	; 0x40000000
 8002fda:	f023 0301 	bic.w	r3, r3, #1
 8002fde:	b29b      	uxth	r3, r3
 8002fe0:	8013      	strh	r3, [r2, #0]
}
 8002fe2:	bf00      	nop
 8002fe4:	370c      	adds	r7, #12
 8002fe6:	46bd      	mov	sp, r7
 8002fe8:	f85d 7b04 	ldr.w	r7, [sp], #4
 8002fec:	4770      	bx	lr

08002fee <xValIsValid>:
/**
  * @brief  ensure powerups and enemies dont spawn over the moon
  * @param  xVal: the position of the objects, objectWidth: the width of the object
  * @retval 1 = valid, 0 = non-valid
  */
uint8_t xValIsValid(uint8_t xVal, uint8_t objectWidth){
 8002fee:	b480      	push	{r7}
 8002ff0:	b083      	sub	sp, #12
 8002ff2:	af00      	add	r7, sp, #0
 8002ff4:	4603      	mov	r3, r0
 8002ff6:	460a      	mov	r2, r1
 8002ff8:	71fb      	strb	r3, [r7, #7]
 8002ffa:	4613      	mov	r3, r2
 8002ffc:	71bb      	strb	r3, [r7, #6]
	if ((xVal>=2 && xVal<=63-objectWidth) || (xVal>=77 && xVal<=screenWidth)){
 8002ffe:	79fb      	ldrb	r3, [r7, #7]
 8003000:	2b01      	cmp	r3, #1
 8003002:	d905      	bls.n	8003010 <xValIsValid+0x22>
 8003004:	79fa      	ldrb	r2, [r7, #7]
 8003006:	79bb      	ldrb	r3, [r7, #6]
 8003008:	f1c3 033f 	rsb	r3, r3, #63	; 0x3f
 800300c:	429a      	cmp	r2, r3
 800300e:	dd05      	ble.n	800301c <xValIsValid+0x2e>
 8003010:	79fb      	ldrb	r3, [r7, #7]
 8003012:	2b4c      	cmp	r3, #76	; 0x4c
 8003014:	d904      	bls.n	8003020 <xValIsValid+0x32>
 8003016:	79fb      	ldrb	r3, [r7, #7]
 8003018:	2b9c      	cmp	r3, #156	; 0x9c
 800301a:	d801      	bhi.n	8003020 <xValIsValid+0x32>
		return 1;
 800301c:	2301      	movs	r3, #1
 800301e:	e000      	b.n	8003022 <xValIsValid+0x34>
	} else {
		return 0;
 8003020:	2300      	movs	r3, #0
	}
}
 8003022:	4618      	mov	r0, r3
 8003024:	370c      	adds	r7, #12
 8003026:	46bd      	mov	sp, r7
 8003028:	f85d 7b04 	ldr.w	r7, [sp], #4
 800302c:	4770      	bx	lr
	...

08003030 <spawnEnemy>:
/**
  * @brief  Checks if it should spawn a new enemy, and if so spawns one
  * @param  gameState: the current state of the game
  * @retval None
  */
void spawnEnemy(gameState_t* gameState){
 8003030:	b590      	push	{r4, r7, lr}
 8003032:	b089      	sub	sp, #36	; 0x24
 8003034:	af00      	add	r7, sp, #0
 8003036:	6078      	str	r0, [r7, #4]
	//Checks if a enemy should spawn
	if(runtime >= gameState->nextEnemySpawn){
 8003038:	687b      	ldr	r3, [r7, #4]
 800303a:	689a      	ldr	r2, [r3, #8]
 800303c:	4b58      	ldr	r3, [pc, #352]	; (80031a0 <spawnEnemy+0x170>)
 800303e:	681b      	ldr	r3, [r3, #0]
 8003040:	429a      	cmp	r2, r3
 8003042:	f200 80a9 	bhi.w	8003198 <spawnEnemy+0x168>
		uint16_t enemyPos = (rand() % 149) + 1; //x-position between 1 and 149
 8003046:	f003 fb7d 	bl	8006744 <rand>
 800304a:	4603      	mov	r3, r0
 800304c:	4a55      	ldr	r2, [pc, #340]	; (80031a4 <spawnEnemy+0x174>)
 800304e:	fb82 1203 	smull	r1, r2, r2, r3
 8003052:	10d1      	asrs	r1, r2, #3
 8003054:	17da      	asrs	r2, r3, #31
 8003056:	1a8a      	subs	r2, r1, r2
 8003058:	2195      	movs	r1, #149	; 0x95
 800305a:	fb01 f202 	mul.w	r2, r1, r2
 800305e:	1a9a      	subs	r2, r3, r2
 8003060:	b293      	uxth	r3, r2
 8003062:	3301      	adds	r3, #1
 8003064:	83fb      	strh	r3, [r7, #30]

		//Recalculates if position is non-valid
		while(!xValIsValid(enemyPos, 7)){
 8003066:	e00f      	b.n	8003088 <spawnEnemy+0x58>
			enemyPos  = (rand() % 149) + 1;
 8003068:	f003 fb6c 	bl	8006744 <rand>
 800306c:	4603      	mov	r3, r0
 800306e:	4a4d      	ldr	r2, [pc, #308]	; (80031a4 <spawnEnemy+0x174>)
 8003070:	fb82 1203 	smull	r1, r2, r2, r3
 8003074:	10d1      	asrs	r1, r2, #3
 8003076:	17da      	asrs	r2, r3, #31
 8003078:	1a8a      	subs	r2, r1, r2
 800307a:	2195      	movs	r1, #149	; 0x95
 800307c:	fb01 f202 	mul.w	r2, r1, r2
 8003080:	1a9a      	subs	r2, r3, r2
 8003082:	b293      	uxth	r3, r2
 8003084:	3301      	adds	r3, #1
 8003086:	83fb      	strh	r3, [r7, #30]
		while(!xValIsValid(enemyPos, 7)){
 8003088:	8bfb      	ldrh	r3, [r7, #30]
 800308a:	b2db      	uxtb	r3, r3
 800308c:	2107      	movs	r1, #7
 800308e:	4618      	mov	r0, r3
 8003090:	f7ff ffad 	bl	8002fee <xValIsValid>
 8003094:	4603      	mov	r3, r0
 8003096:	2b00      	cmp	r3, #0
 8003098:	d0e6      	beq.n	8003068 <spawnEnemy+0x38>
		}

		//Generates a new enemy and appends to the linked list of enemies
		enemy_t* enemy = malloc(sizeof(enemy_t));
 800309a:	2014      	movs	r0, #20
 800309c:	f003 f9be 	bl	800641c <malloc>
 80030a0:	4603      	mov	r3, r0
 80030a2:	61bb      	str	r3, [r7, #24]
		position_t* pos = malloc(sizeof(position_t));
 80030a4:	2008      	movs	r0, #8
 80030a6:	f003 f9b9 	bl	800641c <malloc>
 80030aa:	4603      	mov	r3, r0
 80030ac:	617b      	str	r3, [r7, #20]
		pos->x = intToFp(enemyPos);
 80030ae:	8bfb      	ldrh	r3, [r7, #30]
 80030b0:	4618      	mov	r0, r3
 80030b2:	f000 f96c 	bl	800338e <intToFp>
 80030b6:	4602      	mov	r2, r0
 80030b8:	697b      	ldr	r3, [r7, #20]
 80030ba:	601a      	str	r2, [r3, #0]
		pos->y = intToFp(3*yScale);
 80030bc:	2006      	movs	r0, #6
 80030be:	f000 f966 	bl	800338e <intToFp>
 80030c2:	4602      	mov	r2, r0
 80030c4:	697b      	ldr	r3, [r7, #20]
 80030c6:	605a      	str	r2, [r3, #4]
		enemy->position = pos;
 80030c8:	69bb      	ldr	r3, [r7, #24]
 80030ca:	697a      	ldr	r2, [r7, #20]
 80030cc:	601a      	str	r2, [r3, #0]

		uint32_t levelMultiplier = fpMultiply(intToFp(gameState->score/100) + intToFp(gameState->difficulty), 0x00004000) + intToFp(1); //(score/100 + difficulty) * 0.25 + 1
 80030ce:	687b      	ldr	r3, [r7, #4]
 80030d0:	8e5b      	ldrh	r3, [r3, #50]	; 0x32
 80030d2:	4a35      	ldr	r2, [pc, #212]	; (80031a8 <spawnEnemy+0x178>)
 80030d4:	fba2 2303 	umull	r2, r3, r2, r3
 80030d8:	095b      	lsrs	r3, r3, #5
 80030da:	b29b      	uxth	r3, r3
 80030dc:	4618      	mov	r0, r3
 80030de:	f000 f956 	bl	800338e <intToFp>
 80030e2:	4604      	mov	r4, r0
 80030e4:	687b      	ldr	r3, [r7, #4]
 80030e6:	f893 3039 	ldrb.w	r3, [r3, #57]	; 0x39
 80030ea:	b29b      	uxth	r3, r3
 80030ec:	4618      	mov	r0, r3
 80030ee:	f000 f94e 	bl	800338e <intToFp>
 80030f2:	4603      	mov	r3, r0
 80030f4:	4423      	add	r3, r4
 80030f6:	f44f 4180 	mov.w	r1, #16384	; 0x4000
 80030fa:	4618      	mov	r0, r3
 80030fc:	f000 f97d 	bl	80033fa <fpMultiply>
 8003100:	4604      	mov	r4, r0
 8003102:	2001      	movs	r0, #1
 8003104:	f000 f943 	bl	800338e <intToFp>
 8003108:	4603      	mov	r3, r0
 800310a:	4423      	add	r3, r4
 800310c:	613b      	str	r3, [r7, #16]
		vector_t* vEnemy = malloc(sizeof(vector_t));
 800310e:	2008      	movs	r0, #8
 8003110:	f003 f984 	bl	800641c <malloc>
 8003114:	4603      	mov	r3, r0
 8003116:	60fb      	str	r3, [r7, #12]
		vEnemy->x = intToFp(0);
 8003118:	2000      	movs	r0, #0
 800311a:	f000 f938 	bl	800338e <intToFp>
 800311e:	4602      	mov	r2, r0
 8003120:	68fb      	ldr	r3, [r7, #12]
 8003122:	601a      	str	r2, [r3, #0]
		vEnemy->y = fpMultiply((0x00004000 * yScale), levelMultiplier); //0.25 * multiplier
 8003124:	6939      	ldr	r1, [r7, #16]
 8003126:	f44f 4000 	mov.w	r0, #32768	; 0x8000
 800312a:	f000 f966 	bl	80033fa <fpMultiply>
 800312e:	4602      	mov	r2, r0
 8003130:	68fb      	ldr	r3, [r7, #12]
 8003132:	605a      	str	r2, [r3, #4]
		enemy->velocity  = vEnemy;
 8003134:	69bb      	ldr	r3, [r7, #24]
 8003136:	68fa      	ldr	r2, [r7, #12]
 8003138:	609a      	str	r2, [r3, #8]

		position_t* newPos = malloc(sizeof(position_t));
 800313a:	2008      	movs	r0, #8
 800313c:	f003 f96e 	bl	800641c <malloc>
 8003140:	4603      	mov	r3, r0
 8003142:	60bb      	str	r3, [r7, #8]
		newPos->x = pos->x;
 8003144:	697b      	ldr	r3, [r7, #20]
 8003146:	681a      	ldr	r2, [r3, #0]
 8003148:	68bb      	ldr	r3, [r7, #8]
 800314a:	601a      	str	r2, [r3, #0]
		newPos->y = pos->y;
 800314c:	697b      	ldr	r3, [r7, #20]
 800314e:	685a      	ldr	r2, [r3, #4]
 8003150:	68bb      	ldr	r3, [r7, #8]
 8003152:	605a      	str	r2, [r3, #4]
		enemy->nextPosition = newPos;
 8003154:	69bb      	ldr	r3, [r7, #24]
 8003156:	68ba      	ldr	r2, [r7, #8]
 8003158:	605a      	str	r2, [r3, #4]

		enemy->lastShotTime = runtime;
 800315a:	4b11      	ldr	r3, [pc, #68]	; (80031a0 <spawnEnemy+0x170>)
 800315c:	681a      	ldr	r2, [r3, #0]
 800315e:	69bb      	ldr	r3, [r7, #24]
 8003160:	611a      	str	r2, [r3, #16]
		enemy->firingRate = 100; //A second every seconds
 8003162:	69bb      	ldr	r3, [r7, #24]
 8003164:	2264      	movs	r2, #100	; 0x64
 8003166:	731a      	strb	r2, [r3, #12]

		gameState->nextEnemySpawn = runtime + (rand()%200) + 100; //spawns the next enemy after between 100 and 300 centiseconds
 8003168:	f003 faec 	bl	8006744 <rand>
 800316c:	4603      	mov	r3, r0
 800316e:	4a0e      	ldr	r2, [pc, #56]	; (80031a8 <spawnEnemy+0x178>)
 8003170:	fb82 1203 	smull	r1, r2, r2, r3
 8003174:	1191      	asrs	r1, r2, #6
 8003176:	17da      	asrs	r2, r3, #31
 8003178:	1a8a      	subs	r2, r1, r2
 800317a:	21c8      	movs	r1, #200	; 0xc8
 800317c:	fb01 f202 	mul.w	r2, r1, r2
 8003180:	1a9a      	subs	r2, r3, r2
 8003182:	4b07      	ldr	r3, [pc, #28]	; (80031a0 <spawnEnemy+0x170>)
 8003184:	681b      	ldr	r3, [r3, #0]
 8003186:	4413      	add	r3, r2
 8003188:	f103 0264 	add.w	r2, r3, #100	; 0x64
 800318c:	687b      	ldr	r3, [r7, #4]
 800318e:	609a      	str	r2, [r3, #8]
		appendEnemy(gameState, enemy);
 8003190:	69b9      	ldr	r1, [r7, #24]
 8003192:	6878      	ldr	r0, [r7, #4]
 8003194:	f001 fcb6 	bl	8004b04 <appendEnemy>
	}
}
 8003198:	bf00      	nop
 800319a:	3724      	adds	r7, #36	; 0x24
 800319c:	46bd      	mov	sp, r7
 800319e:	bd90      	pop	{r4, r7, pc}
 80031a0:	200001c8 	.word	0x200001c8
 80031a4:	0dbeb61f 	.word	0x0dbeb61f
 80031a8:	51eb851f 	.word	0x51eb851f

080031ac <updateEnemy>:
/**
  * @brief  Loops over all the enemies and updates their position based on their velocities
  * @param  gameState: the current state of the game
  * @retval None
  */
void updateEnemy(gameState_t* gameState){
 80031ac:	b480      	push	{r7}
 80031ae:	b085      	sub	sp, #20
 80031b0:	af00      	add	r7, sp, #0
 80031b2:	6078      	str	r0, [r7, #4]
	enemyNode_t* thisNode = gameState->enemyLL;
 80031b4:	687b      	ldr	r3, [r7, #4]
 80031b6:	685b      	ldr	r3, [r3, #4]
 80031b8:	60fb      	str	r3, [r7, #12]
	while(thisNode != NULL){
 80031ba:	e01c      	b.n	80031f6 <updateEnemy+0x4a>
		thisNode->enemy->nextPosition->x = thisNode->enemy->position->x + thisNode->enemy->velocity->x;
 80031bc:	68fb      	ldr	r3, [r7, #12]
 80031be:	681b      	ldr	r3, [r3, #0]
 80031c0:	681b      	ldr	r3, [r3, #0]
 80031c2:	6819      	ldr	r1, [r3, #0]
 80031c4:	68fb      	ldr	r3, [r7, #12]
 80031c6:	681b      	ldr	r3, [r3, #0]
 80031c8:	689b      	ldr	r3, [r3, #8]
 80031ca:	681a      	ldr	r2, [r3, #0]
 80031cc:	68fb      	ldr	r3, [r7, #12]
 80031ce:	681b      	ldr	r3, [r3, #0]
 80031d0:	685b      	ldr	r3, [r3, #4]
 80031d2:	440a      	add	r2, r1
 80031d4:	601a      	str	r2, [r3, #0]
		thisNode->enemy->nextPosition->y = thisNode->enemy->position->y + thisNode->enemy->velocity->y;
 80031d6:	68fb      	ldr	r3, [r7, #12]
 80031d8:	681b      	ldr	r3, [r3, #0]
 80031da:	681b      	ldr	r3, [r3, #0]
 80031dc:	6859      	ldr	r1, [r3, #4]
 80031de:	68fb      	ldr	r3, [r7, #12]
 80031e0:	681b      	ldr	r3, [r3, #0]
 80031e2:	689b      	ldr	r3, [r3, #8]
 80031e4:	685a      	ldr	r2, [r3, #4]
 80031e6:	68fb      	ldr	r3, [r7, #12]
 80031e8:	681b      	ldr	r3, [r3, #0]
 80031ea:	685b      	ldr	r3, [r3, #4]
 80031ec:	440a      	add	r2, r1
 80031ee:	605a      	str	r2, [r3, #4]
		thisNode = thisNode->nextEnemyNode;
 80031f0:	68fb      	ldr	r3, [r7, #12]
 80031f2:	685b      	ldr	r3, [r3, #4]
 80031f4:	60fb      	str	r3, [r7, #12]
	while(thisNode != NULL){
 80031f6:	68fb      	ldr	r3, [r7, #12]
 80031f8:	2b00      	cmp	r3, #0
 80031fa:	d1df      	bne.n	80031bc <updateEnemy+0x10>
	}
}
 80031fc:	bf00      	nop
 80031fe:	bf00      	nop
 8003200:	3714      	adds	r7, #20
 8003202:	46bd      	mov	sp, r7
 8003204:	f85d 7b04 	ldr.w	r7, [sp], #4
 8003208:	4770      	bx	lr
	...

0800320c <shootEnemy>:
/**
  * @brief  Loops over all the enemies and shoots a bullet based on firingRate
  * @param  gameState: the current state of the game
  * @retval None
  */
void shootEnemy(gameState_t* gameState){
 800320c:	b5b0      	push	{r4, r5, r7, lr}
 800320e:	b092      	sub	sp, #72	; 0x48
 8003210:	af04      	add	r7, sp, #16
 8003212:	6078      	str	r0, [r7, #4]
	enemyNode_t* thisNode = gameState->enemyLL;
 8003214:	687b      	ldr	r3, [r7, #4]
 8003216:	685b      	ldr	r3, [r3, #4]
 8003218:	637b      	str	r3, [r7, #52]	; 0x34
	while(thisNode != NULL){
 800321a:	e05a      	b.n	80032d2 <shootEnemy+0xc6>
		//If enough time has passed shoot
		if(thisNode->enemy->lastShotTime + thisNode->enemy->firingRate < runtime){
 800321c:	6b7b      	ldr	r3, [r7, #52]	; 0x34
 800321e:	681b      	ldr	r3, [r3, #0]
 8003220:	691b      	ldr	r3, [r3, #16]
 8003222:	6b7a      	ldr	r2, [r7, #52]	; 0x34
 8003224:	6812      	ldr	r2, [r2, #0]
 8003226:	7b12      	ldrb	r2, [r2, #12]
 8003228:	441a      	add	r2, r3
 800322a:	4b2e      	ldr	r3, [pc, #184]	; (80032e4 <shootEnemy+0xd8>)
 800322c:	681b      	ldr	r3, [r3, #0]
 800322e:	429a      	cmp	r2, r3
 8003230:	d24c      	bcs.n	80032cc <shootEnemy+0xc0>
			vector_t bulletVector = {intToFp(0), intToFp(2)};
 8003232:	2000      	movs	r0, #0
 8003234:	f000 f8ab 	bl	800338e <intToFp>
 8003238:	4603      	mov	r3, r0
 800323a:	62fb      	str	r3, [r7, #44]	; 0x2c
 800323c:	2002      	movs	r0, #2
 800323e:	f000 f8a6 	bl	800338e <intToFp>
 8003242:	4603      	mov	r3, r0
 8003244:	633b      	str	r3, [r7, #48]	; 0x30
			position_t bulletPos = {thisNode->enemy->position->x, thisNode->enemy->position->y + intToFp(2 * yScale)};
 8003246:	6b7b      	ldr	r3, [r7, #52]	; 0x34
 8003248:	681b      	ldr	r3, [r3, #0]
 800324a:	681b      	ldr	r3, [r3, #0]
 800324c:	681b      	ldr	r3, [r3, #0]
 800324e:	627b      	str	r3, [r7, #36]	; 0x24
 8003250:	6b7b      	ldr	r3, [r7, #52]	; 0x34
 8003252:	681b      	ldr	r3, [r3, #0]
 8003254:	681b      	ldr	r3, [r3, #0]
 8003256:	685c      	ldr	r4, [r3, #4]
 8003258:	2004      	movs	r0, #4
 800325a:	f000 f898 	bl	800338e <intToFp>
 800325e:	4603      	mov	r3, r0
 8003260:	4423      	add	r3, r4
 8003262:	62bb      	str	r3, [r7, #40]	; 0x28
			bullet_t bullet = {bulletPos, bulletPos, bulletVector};
 8003264:	f107 0308 	add.w	r3, r7, #8
 8003268:	2200      	movs	r2, #0
 800326a:	601a      	str	r2, [r3, #0]
 800326c:	605a      	str	r2, [r3, #4]
 800326e:	609a      	str	r2, [r3, #8]
 8003270:	60da      	str	r2, [r3, #12]
 8003272:	611a      	str	r2, [r3, #16]
 8003274:	615a      	str	r2, [r3, #20]
 8003276:	619a      	str	r2, [r3, #24]
 8003278:	f107 0308 	add.w	r3, r7, #8
 800327c:	f107 0224 	add.w	r2, r7, #36	; 0x24
 8003280:	e892 0003 	ldmia.w	r2, {r0, r1}
 8003284:	e883 0003 	stmia.w	r3, {r0, r1}
 8003288:	f107 0310 	add.w	r3, r7, #16
 800328c:	f107 0224 	add.w	r2, r7, #36	; 0x24
 8003290:	e892 0003 	ldmia.w	r2, {r0, r1}
 8003294:	e883 0003 	stmia.w	r3, {r0, r1}
 8003298:	f107 0318 	add.w	r3, r7, #24
 800329c:	f107 022c 	add.w	r2, r7, #44	; 0x2c
 80032a0:	e892 0003 	ldmia.w	r2, {r0, r1}
 80032a4:	e883 0003 	stmia.w	r3, {r0, r1}
			appendBullet(&(gameState->bulletLL), bullet);
 80032a8:	687d      	ldr	r5, [r7, #4]
 80032aa:	466c      	mov	r4, sp
 80032ac:	f107 0314 	add.w	r3, r7, #20
 80032b0:	cb0f      	ldmia	r3, {r0, r1, r2, r3}
 80032b2:	e884 000f 	stmia.w	r4, {r0, r1, r2, r3}
 80032b6:	f107 0308 	add.w	r3, r7, #8
 80032ba:	cb0e      	ldmia	r3, {r1, r2, r3}
 80032bc:	4628      	mov	r0, r5
 80032be:	f001 fbe9 	bl	8004a94 <appendBullet>
			thisNode->enemy->lastShotTime = runtime;
 80032c2:	6b7b      	ldr	r3, [r7, #52]	; 0x34
 80032c4:	681b      	ldr	r3, [r3, #0]
 80032c6:	4a07      	ldr	r2, [pc, #28]	; (80032e4 <shootEnemy+0xd8>)
 80032c8:	6812      	ldr	r2, [r2, #0]
 80032ca:	611a      	str	r2, [r3, #16]
		}
		thisNode = thisNode->nextEnemyNode;
 80032cc:	6b7b      	ldr	r3, [r7, #52]	; 0x34
 80032ce:	685b      	ldr	r3, [r3, #4]
 80032d0:	637b      	str	r3, [r7, #52]	; 0x34
	while(thisNode != NULL){
 80032d2:	6b7b      	ldr	r3, [r7, #52]	; 0x34
 80032d4:	2b00      	cmp	r3, #0
 80032d6:	d1a1      	bne.n	800321c <shootEnemy+0x10>
	}
}
 80032d8:	bf00      	nop
 80032da:	bf00      	nop
 80032dc:	3738      	adds	r7, #56	; 0x38
 80032de:	46bd      	mov	sp, r7
 80032e0:	bdb0      	pop	{r4, r5, r7, pc}
 80032e2:	bf00      	nop
 80032e4:	200001c8 	.word	0x200001c8

080032e8 <detectCityHit>:
/**
  * @brief  Detects if an enemy has hit the bottom of the screen
  * @param  gameState: the current state of the game
  * @retval None
  */
void detectCityHit(gameState_t* gameState){
 80032e8:	b580      	push	{r7, lr}
 80032ea:	b086      	sub	sp, #24
 80032ec:	af00      	add	r7, sp, #0
 80032ee:	6078      	str	r0, [r7, #4]
	enemyNode_t* thisNode = gameState->enemyLL;
 80032f0:	687b      	ldr	r3, [r7, #4]
 80032f2:	685b      	ldr	r3, [r3, #4]
 80032f4:	617b      	str	r3, [r7, #20]
	while(thisNode != NULL){
 80032f6:	e042      	b.n	800337e <detectCityHit+0x96>
		if(fpToInt(thisNode->enemy->position->y) >= 40 * yScale){
 80032f8:	697b      	ldr	r3, [r7, #20]
 80032fa:	681b      	ldr	r3, [r3, #0]
 80032fc:	681b      	ldr	r3, [r3, #0]
 80032fe:	685b      	ldr	r3, [r3, #4]
 8003300:	4618      	mov	r0, r3
 8003302:	f000 f859 	bl	80033b8 <fpToInt>
 8003306:	4603      	mov	r3, r0
 8003308:	2b4f      	cmp	r3, #79	; 0x4f
 800330a:	dd35      	ble.n	8003378 <detectCityHit+0x90>
			gameState->cityLives--;
 800330c:	687b      	ldr	r3, [r7, #4]
 800330e:	f893 3030 	ldrb.w	r3, [r3, #48]	; 0x30
 8003312:	3b01      	subs	r3, #1
 8003314:	b2da      	uxtb	r2, r3
 8003316:	687b      	ldr	r3, [r7, #4]
 8003318:	f883 2030 	strb.w	r2, [r3, #48]	; 0x30

			if(gameState->cityLives == 2){
 800331c:	687b      	ldr	r3, [r7, #4]
 800331e:	f893 3030 	ldrb.w	r3, [r3, #48]	; 0x30
 8003322:	2b02      	cmp	r3, #2
 8003324:	d10f      	bne.n	8003346 <detectCityHit+0x5e>
				gotoxy(1, 42);
 8003326:	212a      	movs	r1, #42	; 0x2a
 8003328:	2001      	movs	r0, #1
 800332a:	f7fe fcbf 	bl	8001cac <gotoxy>
				for(int i = 0; i<screenWidth;i++){
 800332e:	2300      	movs	r3, #0
 8003330:	613b      	str	r3, [r7, #16]
 8003332:	e005      	b.n	8003340 <detectCityHit+0x58>
					printf(" ");
 8003334:	2020      	movs	r0, #32
 8003336:	f003 f94b 	bl	80065d0 <putchar>
				for(int i = 0; i<screenWidth;i++){
 800333a:	693b      	ldr	r3, [r7, #16]
 800333c:	3301      	adds	r3, #1
 800333e:	613b      	str	r3, [r7, #16]
 8003340:	693b      	ldr	r3, [r7, #16]
 8003342:	2b9b      	cmp	r3, #155	; 0x9b
 8003344:	ddf6      	ble.n	8003334 <detectCityHit+0x4c>
				}
			}
			if(gameState->cityLives == 1){
 8003346:	687b      	ldr	r3, [r7, #4]
 8003348:	f893 3030 	ldrb.w	r3, [r3, #48]	; 0x30
 800334c:	2b01      	cmp	r3, #1
 800334e:	d10f      	bne.n	8003370 <detectCityHit+0x88>
				gotoxy(1, 43);
 8003350:	212b      	movs	r1, #43	; 0x2b
 8003352:	2001      	movs	r0, #1
 8003354:	f7fe fcaa 	bl	8001cac <gotoxy>
				for(int i = 0; i<screenWidth;i++){
 8003358:	2300      	movs	r3, #0
 800335a:	60fb      	str	r3, [r7, #12]
 800335c:	e005      	b.n	800336a <detectCityHit+0x82>
					printf(" ");
 800335e:	2020      	movs	r0, #32
 8003360:	f003 f936 	bl	80065d0 <putchar>
				for(int i = 0; i<screenWidth;i++){
 8003364:	68fb      	ldr	r3, [r7, #12]
 8003366:	3301      	adds	r3, #1
 8003368:	60fb      	str	r3, [r7, #12]
 800336a:	68fb      	ldr	r3, [r7, #12]
 800336c:	2b9b      	cmp	r3, #155	; 0x9b
 800336e:	ddf6      	ble.n	800335e <detectCityHit+0x76>
				}
			}
			deleteEnemyNode(gameState, thisNode);
 8003370:	6979      	ldr	r1, [r7, #20]
 8003372:	6878      	ldr	r0, [r7, #4]
 8003374:	f001 fbf4 	bl	8004b60 <deleteEnemyNode>
		}
		thisNode = thisNode->nextEnemyNode;
 8003378:	697b      	ldr	r3, [r7, #20]
 800337a:	685b      	ldr	r3, [r3, #4]
 800337c:	617b      	str	r3, [r7, #20]
	while(thisNode != NULL){
 800337e:	697b      	ldr	r3, [r7, #20]
 8003380:	2b00      	cmp	r3, #0
 8003382:	d1b9      	bne.n	80032f8 <detectCityHit+0x10>
	}
}
 8003384:	bf00      	nop
 8003386:	bf00      	nop
 8003388:	3718      	adds	r7, #24
 800338a:	46bd      	mov	sp, r7
 800338c:	bd80      	pop	{r7, pc}

0800338e <intToFp>:
/**
  * @brief  Converts uint_t to fixed point 16.16 format type uint32_t
  * @param  n: an unsigned 16 bit integer
  * @retval a 16.16 32-bit fixed point number in 2' complement
  */
uint32_t intToFp(uint16_t n){
 800338e:	b480      	push	{r7}
 8003390:	b085      	sub	sp, #20
 8003392:	af00      	add	r7, sp, #0
 8003394:	4603      	mov	r3, r0
 8003396:	80fb      	strh	r3, [r7, #6]
	uint32_t output = 0;
 8003398:	2300      	movs	r3, #0
 800339a:	60fb      	str	r3, [r7, #12]
	output+=n;
 800339c:	88fb      	ldrh	r3, [r7, #6]
 800339e:	68fa      	ldr	r2, [r7, #12]
 80033a0:	4413      	add	r3, r2
 80033a2:	60fb      	str	r3, [r7, #12]
	output<<=16;
 80033a4:	68fb      	ldr	r3, [r7, #12]
 80033a6:	041b      	lsls	r3, r3, #16
 80033a8:	60fb      	str	r3, [r7, #12]
	return output;
 80033aa:	68fb      	ldr	r3, [r7, #12]
}
 80033ac:	4618      	mov	r0, r3
 80033ae:	3714      	adds	r7, #20
 80033b0:	46bd      	mov	sp, r7
 80033b2:	f85d 7b04 	ldr.w	r7, [sp], #4
 80033b6:	4770      	bx	lr

080033b8 <fpToInt>:
/**
  * @brief  Converts fixed point 16.16 format to normal integer and rounds correctly
  * @param  fp: a 16.16 32-bit fixed point number in 2' complement
  * @retval an integer
  */
int fpToInt(uint32_t fp){
 80033b8:	b480      	push	{r7}
 80033ba:	b085      	sub	sp, #20
 80033bc:	af00      	add	r7, sp, #0
 80033be:	6078      	str	r0, [r7, #4]
	uint32_t in = fp;
 80033c0:	687b      	ldr	r3, [r7, #4]
 80033c2:	60bb      	str	r3, [r7, #8]
	int output=0;
 80033c4:	2300      	movs	r3, #0
 80033c6:	60fb      	str	r3, [r7, #12]
	fp+=32768; //32768 in 16.16 format is 0,5
 80033c8:	687b      	ldr	r3, [r7, #4]
 80033ca:	f503 4300 	add.w	r3, r3, #32768	; 0x8000
 80033ce:	607b      	str	r3, [r7, #4]
	fp>>=16;
 80033d0:	687b      	ldr	r3, [r7, #4]
 80033d2:	0c1b      	lsrs	r3, r3, #16
 80033d4:	607b      	str	r3, [r7, #4]
	output+=fp;
 80033d6:	68fa      	ldr	r2, [r7, #12]
 80033d8:	687b      	ldr	r3, [r7, #4]
 80033da:	4413      	add	r3, r2
 80033dc:	60fb      	str	r3, [r7, #12]
	if((in & 0x80000000)!=0) {
 80033de:	68bb      	ldr	r3, [r7, #8]
 80033e0:	2b00      	cmp	r3, #0
 80033e2:	da03      	bge.n	80033ec <fpToInt+0x34>
		output-=65536;
 80033e4:	68fb      	ldr	r3, [r7, #12]
 80033e6:	f5a3 3380 	sub.w	r3, r3, #65536	; 0x10000
 80033ea:	60fb      	str	r3, [r7, #12]
	}
	return output;
 80033ec:	68fb      	ldr	r3, [r7, #12]

}
 80033ee:	4618      	mov	r0, r3
 80033f0:	3714      	adds	r7, #20
 80033f2:	46bd      	mov	sp, r7
 80033f4:	f85d 7b04 	ldr.w	r7, [sp], #4
 80033f8:	4770      	bx	lr

080033fa <fpMultiply>:
/**
  * @brief  Multiplies 2 fixed-point values
  * @param  n: first number, m: second number
  * @retval a 16.16 32-bit fixed point number in 2' complement
  */
uint32_t fpMultiply(uint32_t n, uint32_t m){  //32 32 32
 80033fa:	b480      	push	{r7}
 80033fc:	b085      	sub	sp, #20
 80033fe:	af00      	add	r7, sp, #0
 8003400:	6078      	str	r0, [r7, #4]
 8003402:	6039      	str	r1, [r7, #0]
	n>>=8;
 8003404:	687b      	ldr	r3, [r7, #4]
 8003406:	0a1b      	lsrs	r3, r3, #8
 8003408:	607b      	str	r3, [r7, #4]
	m>>=8;
 800340a:	683b      	ldr	r3, [r7, #0]
 800340c:	0a1b      	lsrs	r3, r3, #8
 800340e:	603b      	str	r3, [r7, #0]
	uint32_t output = n*m;
 8003410:	687b      	ldr	r3, [r7, #4]
 8003412:	683a      	ldr	r2, [r7, #0]
 8003414:	fb02 f303 	mul.w	r3, r2, r3
 8003418:	60fb      	str	r3, [r7, #12]

	if ((n & 0x00800000) != 0) {
 800341a:	687b      	ldr	r3, [r7, #4]
 800341c:	f403 0300 	and.w	r3, r3, #8388608	; 0x800000
 8003420:	2b00      	cmp	r3, #0
 8003422:	d004      	beq.n	800342e <fpMultiply+0x34>
		output-=(2*0x00800000*m);
 8003424:	683b      	ldr	r3, [r7, #0]
 8003426:	061b      	lsls	r3, r3, #24
 8003428:	68fa      	ldr	r2, [r7, #12]
 800342a:	1ad3      	subs	r3, r2, r3
 800342c:	60fb      	str	r3, [r7, #12]
	}
	return output;
 800342e:	68fb      	ldr	r3, [r7, #12]
}
 8003430:	4618      	mov	r0, r3
 8003432:	3714      	adds	r7, #20
 8003434:	46bd      	mov	sp, r7
 8003436:	f85d 7b04 	ldr.w	r7, [sp], #4
 800343a:	4770      	bx	lr

0800343c <fpDivide>:
/**
  * @brief  Divides 2 fixed-point values
  * @param  n: first number, m: second number
  * @retval a 16.16 32-bit fixed point number in 2' complement
  */
uint32_t fpDivide(uint32_t n, uint32_t m){
 800343c:	b5b0      	push	{r4, r5, r7, lr}
 800343e:	b086      	sub	sp, #24
 8003440:	af00      	add	r7, sp, #0
 8003442:	6078      	str	r0, [r7, #4]
 8003444:	6039      	str	r1, [r7, #0]
    uint64_t numerator = (long long)n << 16;
 8003446:	6879      	ldr	r1, [r7, #4]
 8003448:	4608      	mov	r0, r1
 800344a:	f04f 0100 	mov.w	r1, #0
 800344e:	0c03      	lsrs	r3, r0, #16
 8003450:	0402      	lsls	r2, r0, #16
 8003452:	e9c7 2304 	strd	r2, r3, [r7, #16]
    uint32_t result = (uint32_t)((numerator + (m / 2)) / m);
 8003456:	683b      	ldr	r3, [r7, #0]
 8003458:	085b      	lsrs	r3, r3, #1
 800345a:	4618      	mov	r0, r3
 800345c:	f04f 0100 	mov.w	r1, #0
 8003460:	e9d7 2304 	ldrd	r2, r3, [r7, #16]
 8003464:	1884      	adds	r4, r0, r2
 8003466:	eb41 0503 	adc.w	r5, r1, r3
 800346a:	683b      	ldr	r3, [r7, #0]
 800346c:	461a      	mov	r2, r3
 800346e:	f04f 0300 	mov.w	r3, #0
 8003472:	4620      	mov	r0, r4
 8003474:	4629      	mov	r1, r5
 8003476:	f7fd faf1 	bl	8000a5c <__aeabi_uldivmod>
 800347a:	4602      	mov	r2, r0
 800347c:	460b      	mov	r3, r1
 800347e:	4613      	mov	r3, r2
 8003480:	60fb      	str	r3, [r7, #12]
    return result;
 8003482:	68fb      	ldr	r3, [r7, #12]
}
 8003484:	4618      	mov	r0, r3
 8003486:	3718      	adds	r7, #24
 8003488:	46bd      	mov	sp, r7
 800348a:	bdb0      	pop	{r4, r5, r7, pc}

0800348c <scaleVector>:
/**
  * @brief  Scale a vector with a given factor
  * @param  vectorIn: The vector to be scaled, fpScalar: The amount to scale
  * @retval The scaled vector
  */
vector_t scaleVector(vector_t vectorIn, uint32_t fpScalar){
 800348c:	b580      	push	{r7, lr}
 800348e:	b086      	sub	sp, #24
 8003490:	af00      	add	r7, sp, #0
 8003492:	60f8      	str	r0, [r7, #12]
 8003494:	1d38      	adds	r0, r7, #4
 8003496:	e880 0006 	stmia.w	r0, {r1, r2}
 800349a:	603b      	str	r3, [r7, #0]
	vector_t vectorOut;
	vectorOut.x=fpMultiply(vectorIn.x,fpScalar);
 800349c:	687b      	ldr	r3, [r7, #4]
 800349e:	6839      	ldr	r1, [r7, #0]
 80034a0:	4618      	mov	r0, r3
 80034a2:	f7ff ffaa 	bl	80033fa <fpMultiply>
 80034a6:	4603      	mov	r3, r0
 80034a8:	613b      	str	r3, [r7, #16]
	vectorOut.y=fpMultiply(vectorIn.y,fpScalar);
 80034aa:	68bb      	ldr	r3, [r7, #8]
 80034ac:	6839      	ldr	r1, [r7, #0]
 80034ae:	4618      	mov	r0, r3
 80034b0:	f7ff ffa3 	bl	80033fa <fpMultiply>
 80034b4:	4603      	mov	r3, r0
 80034b6:	617b      	str	r3, [r7, #20]
	return vectorOut;
 80034b8:	68fb      	ldr	r3, [r7, #12]
 80034ba:	461a      	mov	r2, r3
 80034bc:	f107 0310 	add.w	r3, r7, #16
 80034c0:	e893 0003 	ldmia.w	r3, {r0, r1}
 80034c4:	e882 0003 	stmia.w	r2, {r0, r1}
}
 80034c8:	68f8      	ldr	r0, [r7, #12]
 80034ca:	3718      	adds	r7, #24
 80034cc:	46bd      	mov	sp, r7
 80034ce:	bd80      	pop	{r7, pc}

080034d0 <fpAbs>:
/**
  * @brief Gives the absolute value of a fixed point value
  * @param  n: the 16.16 element to get the abs of
  * @retval A positive 16.16 number
  */
uint32_t fpAbs(uint32_t n){
 80034d0:	b480      	push	{r7}
 80034d2:	b085      	sub	sp, #20
 80034d4:	af00      	add	r7, sp, #0
 80034d6:	6078      	str	r0, [r7, #4]
	uint32_t output = n;
 80034d8:	687b      	ldr	r3, [r7, #4]
 80034da:	60fb      	str	r3, [r7, #12]
	if ((n & 0x80000000) != 0) {
 80034dc:	687b      	ldr	r3, [r7, #4]
 80034de:	2b00      	cmp	r3, #0
 80034e0:	da02      	bge.n	80034e8 <fpAbs+0x18>
			output=(~output)+1;
 80034e2:	68fb      	ldr	r3, [r7, #12]
 80034e4:	425b      	negs	r3, r3
 80034e6:	60fb      	str	r3, [r7, #12]
		}
	return output;
 80034e8:	68fb      	ldr	r3, [r7, #12]
}
 80034ea:	4618      	mov	r0, r3
 80034ec:	3714      	adds	r7, #20
 80034ee:	46bd      	mov	sp, r7
 80034f0:	f85d 7b04 	ldr.w	r7, [sp], #4
 80034f4:	4770      	bx	lr

080034f6 <drawbackground>:
/**
  * @brief Draws the stary background of the screen
  * @param  None
  * @retval None
  */
void drawbackground(){
 80034f6:	b580      	push	{r7, lr}
 80034f8:	af00      	add	r7, sp, #0
	gotoxy(55,35);
 80034fa:	2123      	movs	r1, #35	; 0x23
 80034fc:	2037      	movs	r0, #55	; 0x37
 80034fe:	f7fe fbd5 	bl	8001cac <gotoxy>
	printf("*");
 8003502:	202a      	movs	r0, #42	; 0x2a
 8003504:	f003 f864 	bl	80065d0 <putchar>
	gotoxy(63,27);
 8003508:	211b      	movs	r1, #27
 800350a:	203f      	movs	r0, #63	; 0x3f
 800350c:	f7fe fbce 	bl	8001cac <gotoxy>
	printf("*");
 8003510:	202a      	movs	r0, #42	; 0x2a
 8003512:	f003 f85d 	bl	80065d0 <putchar>
	gotoxy(10,15);
 8003516:	210f      	movs	r1, #15
 8003518:	200a      	movs	r0, #10
 800351a:	f7fe fbc7 	bl	8001cac <gotoxy>
	printf("*");
 800351e:	202a      	movs	r0, #42	; 0x2a
 8003520:	f003 f856 	bl	80065d0 <putchar>
	gotoxy(20,40);
 8003524:	2128      	movs	r1, #40	; 0x28
 8003526:	2014      	movs	r0, #20
 8003528:	f7fe fbc0 	bl	8001cac <gotoxy>
	printf("%c",43);
 800352c:	202b      	movs	r0, #43	; 0x2b
 800352e:	f003 f84f 	bl	80065d0 <putchar>

	gotoxy(155,37);
 8003532:	2125      	movs	r1, #37	; 0x25
 8003534:	209b      	movs	r0, #155	; 0x9b
 8003536:	f7fe fbb9 	bl	8001cac <gotoxy>
	printf("*");
 800353a:	202a      	movs	r0, #42	; 0x2a
 800353c:	f003 f848 	bl	80065d0 <putchar>
	gotoxy(110,28);
 8003540:	211c      	movs	r1, #28
 8003542:	206e      	movs	r0, #110	; 0x6e
 8003544:	f7fe fbb2 	bl	8001cac <gotoxy>
	printf("*");
 8003548:	202a      	movs	r0, #42	; 0x2a
 800354a:	f003 f841 	bl	80065d0 <putchar>
	gotoxy(95,13);
 800354e:	210d      	movs	r1, #13
 8003550:	205f      	movs	r0, #95	; 0x5f
 8003552:	f7fe fbab 	bl	8001cac <gotoxy>
	printf("*");
 8003556:	202a      	movs	r0, #42	; 0x2a
 8003558:	f003 f83a 	bl	80065d0 <putchar>
	gotoxy(130,19);
 800355c:	2113      	movs	r1, #19
 800355e:	2082      	movs	r0, #130	; 0x82
 8003560:	f7fe fba4 	bl	8001cac <gotoxy>
	printf("%c",43);
 8003564:	202b      	movs	r0, #43	; 0x2b
 8003566:	f003 f833 	bl	80065d0 <putchar>

	gotoxy(5,27);
 800356a:	211b      	movs	r1, #27
 800356c:	2005      	movs	r0, #5
 800356e:	f7fe fb9d 	bl	8001cac <gotoxy>
	printf("*");
 8003572:	202a      	movs	r0, #42	; 0x2a
 8003574:	f003 f82c 	bl	80065d0 <putchar>
	gotoxy(6,5);
 8003578:	2105      	movs	r1, #5
 800357a:	2006      	movs	r0, #6
 800357c:	f7fe fb96 	bl	8001cac <gotoxy>
	printf("*");
 8003580:	202a      	movs	r0, #42	; 0x2a
 8003582:	f003 f825 	bl	80065d0 <putchar>
	gotoxy(13,13);
 8003586:	210d      	movs	r1, #13
 8003588:	200d      	movs	r0, #13
 800358a:	f7fe fb8f 	bl	8001cac <gotoxy>
	printf("*");
 800358e:	202a      	movs	r0, #42	; 0x2a
 8003590:	f003 f81e 	bl	80065d0 <putchar>
	gotoxy(60,7);
 8003594:	2107      	movs	r1, #7
 8003596:	203c      	movs	r0, #60	; 0x3c
 8003598:	f7fe fb88 	bl	8001cac <gotoxy>
	printf("%c",43);
 800359c:	202b      	movs	r0, #43	; 0x2b
 800359e:	f003 f817 	bl	80065d0 <putchar>

	gotoxy(140,3);
 80035a2:	2103      	movs	r1, #3
 80035a4:	208c      	movs	r0, #140	; 0x8c
 80035a6:	f7fe fb81 	bl	8001cac <gotoxy>
	printf("*");
 80035aa:	202a      	movs	r0, #42	; 0x2a
 80035ac:	f003 f810 	bl	80065d0 <putchar>
	gotoxy(120,5);
 80035b0:	2105      	movs	r1, #5
 80035b2:	2078      	movs	r0, #120	; 0x78
 80035b4:	f7fe fb7a 	bl	8001cac <gotoxy>
	printf("*");
 80035b8:	202a      	movs	r0, #42	; 0x2a
 80035ba:	f003 f809 	bl	80065d0 <putchar>
	gotoxy(110,7);
 80035be:	2107      	movs	r1, #7
 80035c0:	206e      	movs	r0, #110	; 0x6e
 80035c2:	f7fe fb73 	bl	8001cac <gotoxy>
	printf("*");
 80035c6:	202a      	movs	r0, #42	; 0x2a
 80035c8:	f003 f802 	bl	80065d0 <putchar>
	gotoxy(70,30);
 80035cc:	211e      	movs	r1, #30
 80035ce:	2046      	movs	r0, #70	; 0x46
 80035d0:	f7fe fb6c 	bl	8001cac <gotoxy>
	printf("%c",43);
 80035d4:	202b      	movs	r0, #43	; 0x2b
 80035d6:	f002 fffb 	bl	80065d0 <putchar>

	gotoxy(135,33);
 80035da:	2121      	movs	r1, #33	; 0x21
 80035dc:	2087      	movs	r0, #135	; 0x87
 80035de:	f7fe fb65 	bl	8001cac <gotoxy>
	printf("*");
 80035e2:	202a      	movs	r0, #42	; 0x2a
 80035e4:	f002 fff4 	bl	80065d0 <putchar>
	gotoxy(123,36);
 80035e8:	2124      	movs	r1, #36	; 0x24
 80035ea:	207b      	movs	r0, #123	; 0x7b
 80035ec:	f7fe fb5e 	bl	8001cac <gotoxy>
	printf("*");
 80035f0:	202a      	movs	r0, #42	; 0x2a
 80035f2:	f002 ffed 	bl	80065d0 <putchar>
	gotoxy(138,40);
 80035f6:	2128      	movs	r1, #40	; 0x28
 80035f8:	208a      	movs	r0, #138	; 0x8a
 80035fa:	f7fe fb57 	bl	8001cac <gotoxy>
	printf("*");
 80035fe:	202a      	movs	r0, #42	; 0x2a
 8003600:	f002 ffe6 	bl	80065d0 <putchar>
	gotoxy(127,25);
 8003604:	2119      	movs	r1, #25
 8003606:	207f      	movs	r0, #127	; 0x7f
 8003608:	f7fe fb50 	bl	8001cac <gotoxy>
	printf("%c",43);
 800360c:	202b      	movs	r0, #43	; 0x2b
 800360e:	f002 ffdf 	bl	80065d0 <putchar>

	gotoxy(105,32);
 8003612:	2120      	movs	r1, #32
 8003614:	2069      	movs	r0, #105	; 0x69
 8003616:	f7fe fb49 	bl	8001cac <gotoxy>
	printf("%c",42);
 800361a:	202a      	movs	r0, #42	; 0x2a
 800361c:	f002 ffd8 	bl	80065d0 <putchar>
	gotoxy(106,33);
 8003620:	2121      	movs	r1, #33	; 0x21
 8003622:	206a      	movs	r0, #106	; 0x6a
 8003624:	f7fe fb42 	bl	8001cac <gotoxy>
	printf("%c",92);
 8003628:	205c      	movs	r0, #92	; 0x5c
 800362a:	f002 ffd1 	bl	80065d0 <putchar>
	gotoxy(107,34);
 800362e:	2122      	movs	r1, #34	; 0x22
 8003630:	206b      	movs	r0, #107	; 0x6b
 8003632:	f7fe fb3b 	bl	8001cac <gotoxy>
	printf("%c",92);
 8003636:	205c      	movs	r0, #92	; 0x5c
 8003638:	f002 ffca 	bl	80065d0 <putchar>

	gotoxy(23,15);
 800363c:	210f      	movs	r1, #15
 800363e:	2017      	movs	r0, #23
 8003640:	f7fe fb34 	bl	8001cac <gotoxy>
	printf("*");
 8003644:	202a      	movs	r0, #42	; 0x2a
 8003646:	f002 ffc3 	bl	80065d0 <putchar>
	gotoxy(37,21);
 800364a:	2115      	movs	r1, #21
 800364c:	2025      	movs	r0, #37	; 0x25
 800364e:	f7fe fb2d 	bl	8001cac <gotoxy>
	printf("*");
 8003652:	202a      	movs	r0, #42	; 0x2a
 8003654:	f002 ffbc 	bl	80065d0 <putchar>
	gotoxy(26,24);
 8003658:	2118      	movs	r1, #24
 800365a:	201a      	movs	r0, #26
 800365c:	f7fe fb26 	bl	8001cac <gotoxy>
	printf("*");
 8003660:	202a      	movs	r0, #42	; 0x2a
 8003662:	f002 ffb5 	bl	80065d0 <putchar>
	gotoxy(30,29);
 8003666:	211d      	movs	r1, #29
 8003668:	201e      	movs	r0, #30
 800366a:	f7fe fb1f 	bl	8001cac <gotoxy>
	printf("%c",43);
 800366e:	202b      	movs	r0, #43	; 0x2b
 8003670:	f002 ffae 	bl	80065d0 <putchar>

	gotoxy(25,6);
 8003674:	2106      	movs	r1, #6
 8003676:	2019      	movs	r0, #25
 8003678:	f7fe fb18 	bl	8001cac <gotoxy>
	printf("*");
 800367c:	202a      	movs	r0, #42	; 0x2a
 800367e:	f002 ffa7 	bl	80065d0 <putchar>
	gotoxy(39,7);
 8003682:	2107      	movs	r1, #7
 8003684:	2027      	movs	r0, #39	; 0x27
 8003686:	f7fe fb11 	bl	8001cac <gotoxy>
	printf("*");
 800368a:	202a      	movs	r0, #42	; 0x2a
 800368c:	f002 ffa0 	bl	80065d0 <putchar>
	gotoxy(41,3);
 8003690:	2103      	movs	r1, #3
 8003692:	2029      	movs	r0, #41	; 0x29
 8003694:	f7fe fb0a 	bl	8001cac <gotoxy>
	printf("*");
 8003698:	202a      	movs	r0, #42	; 0x2a
 800369a:	f002 ff99 	bl	80065d0 <putchar>
	gotoxy(75,10);
 800369e:	210a      	movs	r1, #10
 80036a0:	204b      	movs	r0, #75	; 0x4b
 80036a2:	f7fe fb03 	bl	8001cac <gotoxy>
	printf("%c",43);
 80036a6:	202b      	movs	r0, #43	; 0x2b
 80036a8:	f002 ff92 	bl	80065d0 <putchar>

	gotoxy(100,20);
 80036ac:	2114      	movs	r1, #20
 80036ae:	2064      	movs	r0, #100	; 0x64
 80036b0:	f7fe fafc 	bl	8001cac <gotoxy>
	printf("%c",197);
 80036b4:	20c5      	movs	r0, #197	; 0xc5
 80036b6:	f002 ff8b 	bl	80065d0 <putchar>
	gotoxy(135,12);
 80036ba:	210c      	movs	r1, #12
 80036bc:	2087      	movs	r0, #135	; 0x87
 80036be:	f7fe faf5 	bl	8001cac <gotoxy>
	printf("%c",197);
 80036c2:	20c5      	movs	r0, #197	; 0xc5
 80036c4:	f002 ff84 	bl	80065d0 <putchar>
	gotoxy(30,5);
 80036c8:	2105      	movs	r1, #5
 80036ca:	201e      	movs	r0, #30
 80036cc:	f7fe faee 	bl	8001cac <gotoxy>
	printf("%c",197);
 80036d0:	20c5      	movs	r0, #197	; 0xc5
 80036d2:	f002 ff7d 	bl	80065d0 <putchar>
}
 80036d6:	bf00      	nop
 80036d8:	bd80      	pop	{r7, pc}

080036da <drawMoon>:
/**
  * @brief Draws the moon
  * @param  x: x-coordinate, y: y-coordinate
  * @retval None
  */
void drawMoon(uint8_t X, uint8_t Y){
 80036da:	b580      	push	{r7, lr}
 80036dc:	b082      	sub	sp, #8
 80036de:	af00      	add	r7, sp, #0
 80036e0:	4603      	mov	r3, r0
 80036e2:	460a      	mov	r2, r1
 80036e4:	71fb      	strb	r3, [r7, #7]
 80036e6:	4613      	mov	r3, r2
 80036e8:	71bb      	strb	r3, [r7, #6]
	Y /= yScale;
 80036ea:	79bb      	ldrb	r3, [r7, #6]
 80036ec:	085b      	lsrs	r3, r3, #1
 80036ee:	71bb      	strb	r3, [r7, #6]
	gotoxy(X-1,Y+3);
 80036f0:	79fb      	ldrb	r3, [r7, #7]
 80036f2:	1e5a      	subs	r2, r3, #1
 80036f4:	79bb      	ldrb	r3, [r7, #6]
 80036f6:	3303      	adds	r3, #3
 80036f8:	4619      	mov	r1, r3
 80036fa:	4610      	mov	r0, r2
 80036fc:	f7fe fad6 	bl	8001cac <gotoxy>
	printf("_");
 8003700:	205f      	movs	r0, #95	; 0x5f
 8003702:	f002 ff65 	bl	80065d0 <putchar>
	gotoxy(X,Y+3);
 8003706:	79fa      	ldrb	r2, [r7, #7]
 8003708:	79bb      	ldrb	r3, [r7, #6]
 800370a:	3303      	adds	r3, #3
 800370c:	4619      	mov	r1, r3
 800370e:	4610      	mov	r0, r2
 8003710:	f7fe facc 	bl	8001cac <gotoxy>
	printf("_");
 8003714:	205f      	movs	r0, #95	; 0x5f
 8003716:	f002 ff5b 	bl	80065d0 <putchar>
	gotoxy(X+1,Y+3);
 800371a:	79fb      	ldrb	r3, [r7, #7]
 800371c:	1c5a      	adds	r2, r3, #1
 800371e:	79bb      	ldrb	r3, [r7, #6]
 8003720:	3303      	adds	r3, #3
 8003722:	4619      	mov	r1, r3
 8003724:	4610      	mov	r0, r2
 8003726:	f7fe fac1 	bl	8001cac <gotoxy>
	printf("_");
 800372a:	205f      	movs	r0, #95	; 0x5f
 800372c:	f002 ff50 	bl	80065d0 <putchar>
	gotoxy(X-2,Y+3);
 8003730:	79fb      	ldrb	r3, [r7, #7]
 8003732:	1e9a      	subs	r2, r3, #2
 8003734:	79bb      	ldrb	r3, [r7, #6]
 8003736:	3303      	adds	r3, #3
 8003738:	4619      	mov	r1, r3
 800373a:	4610      	mov	r0, r2
 800373c:	f7fe fab6 	bl	8001cac <gotoxy>
	printf("(");
 8003740:	2028      	movs	r0, #40	; 0x28
 8003742:	f002 ff45 	bl	80065d0 <putchar>
	gotoxy(X+2,Y+3);
 8003746:	79fb      	ldrb	r3, [r7, #7]
 8003748:	1c9a      	adds	r2, r3, #2
 800374a:	79bb      	ldrb	r3, [r7, #6]
 800374c:	3303      	adds	r3, #3
 800374e:	4619      	mov	r1, r3
 8003750:	4610      	mov	r0, r2
 8003752:	f7fe faab 	bl	8001cac <gotoxy>
	printf(")");
 8003756:	2029      	movs	r0, #41	; 0x29
 8003758:	f002 ff3a 	bl	80065d0 <putchar>

	gotoxy(X+3,Y+2);
 800375c:	79fb      	ldrb	r3, [r7, #7]
 800375e:	1cda      	adds	r2, r3, #3
 8003760:	79bb      	ldrb	r3, [r7, #6]
 8003762:	3302      	adds	r3, #2
 8003764:	4619      	mov	r1, r3
 8003766:	4610      	mov	r0, r2
 8003768:	f7fe faa0 	bl	8001cac <gotoxy>
	printf("_");
 800376c:	205f      	movs	r0, #95	; 0x5f
 800376e:	f002 ff2f 	bl	80065d0 <putchar>
	gotoxy(X-3,Y+2);
 8003772:	79fb      	ldrb	r3, [r7, #7]
 8003774:	1eda      	subs	r2, r3, #3
 8003776:	79bb      	ldrb	r3, [r7, #6]
 8003778:	3302      	adds	r3, #2
 800377a:	4619      	mov	r1, r3
 800377c:	4610      	mov	r0, r2
 800377e:	f7fe fa95 	bl	8001cac <gotoxy>
	printf("_");
 8003782:	205f      	movs	r0, #95	; 0x5f
 8003784:	f002 ff24 	bl	80065d0 <putchar>
	gotoxy(X+4,Y+2);
 8003788:	79fb      	ldrb	r3, [r7, #7]
 800378a:	1d1a      	adds	r2, r3, #4
 800378c:	79bb      	ldrb	r3, [r7, #6]
 800378e:	3302      	adds	r3, #2
 8003790:	4619      	mov	r1, r3
 8003792:	4610      	mov	r0, r2
 8003794:	f7fe fa8a 	bl	8001cac <gotoxy>
	printf("(");
 8003798:	2028      	movs	r0, #40	; 0x28
 800379a:	f002 ff19 	bl	80065d0 <putchar>
	gotoxy(X-4,Y+2);
 800379e:	79fb      	ldrb	r3, [r7, #7]
 80037a0:	1f1a      	subs	r2, r3, #4
 80037a2:	79bb      	ldrb	r3, [r7, #6]
 80037a4:	3302      	adds	r3, #2
 80037a6:	4619      	mov	r1, r3
 80037a8:	4610      	mov	r0, r2
 80037aa:	f7fe fa7f 	bl	8001cac <gotoxy>
	printf(")");
 80037ae:	2029      	movs	r0, #41	; 0x29
 80037b0:	f002 ff0e 	bl	80065d0 <putchar>

	gotoxy(X-5,Y+1);
 80037b4:	79fb      	ldrb	r3, [r7, #7]
 80037b6:	1f5a      	subs	r2, r3, #5
 80037b8:	79bb      	ldrb	r3, [r7, #6]
 80037ba:	3301      	adds	r3, #1
 80037bc:	4619      	mov	r1, r3
 80037be:	4610      	mov	r0, r2
 80037c0:	f7fe fa74 	bl	8001cac <gotoxy>
	printf("(");
 80037c4:	2028      	movs	r0, #40	; 0x28
 80037c6:	f002 ff03 	bl	80065d0 <putchar>
	gotoxy(X+5,Y+1);
 80037ca:	79fb      	ldrb	r3, [r7, #7]
 80037cc:	1d5a      	adds	r2, r3, #5
 80037ce:	79bb      	ldrb	r3, [r7, #6]
 80037d0:	3301      	adds	r3, #1
 80037d2:	4619      	mov	r1, r3
 80037d4:	4610      	mov	r0, r2
 80037d6:	f7fe fa69 	bl	8001cac <gotoxy>
	printf("(");
 80037da:	2028      	movs	r0, #40	; 0x28
 80037dc:	f002 fef8 	bl	80065d0 <putchar>
	gotoxy(X-6,Y);
 80037e0:	79fb      	ldrb	r3, [r7, #7]
 80037e2:	3b06      	subs	r3, #6
 80037e4:	79ba      	ldrb	r2, [r7, #6]
 80037e6:	4611      	mov	r1, r2
 80037e8:	4618      	mov	r0, r3
 80037ea:	f7fe fa5f 	bl	8001cac <gotoxy>
	printf("(");
 80037ee:	2028      	movs	r0, #40	; 0x28
 80037f0:	f002 feee 	bl	80065d0 <putchar>
	gotoxy(X+6,Y);
 80037f4:	79fb      	ldrb	r3, [r7, #7]
 80037f6:	3306      	adds	r3, #6
 80037f8:	79ba      	ldrb	r2, [r7, #6]
 80037fa:	4611      	mov	r1, r2
 80037fc:	4618      	mov	r0, r3
 80037fe:	f7fe fa55 	bl	8001cac <gotoxy>
	printf(")");
 8003802:	2029      	movs	r0, #41	; 0x29
 8003804:	f002 fee4 	bl	80065d0 <putchar>

	gotoxy(X-5,Y-1);
 8003808:	79fb      	ldrb	r3, [r7, #7]
 800380a:	1f5a      	subs	r2, r3, #5
 800380c:	79bb      	ldrb	r3, [r7, #6]
 800380e:	3b01      	subs	r3, #1
 8003810:	4619      	mov	r1, r3
 8003812:	4610      	mov	r0, r2
 8003814:	f7fe fa4a 	bl	8001cac <gotoxy>
	printf("(");
 8003818:	2028      	movs	r0, #40	; 0x28
 800381a:	f002 fed9 	bl	80065d0 <putchar>
	gotoxy(X+5,Y-1);
 800381e:	79fb      	ldrb	r3, [r7, #7]
 8003820:	1d5a      	adds	r2, r3, #5
 8003822:	79bb      	ldrb	r3, [r7, #6]
 8003824:	3b01      	subs	r3, #1
 8003826:	4619      	mov	r1, r3
 8003828:	4610      	mov	r0, r2
 800382a:	f7fe fa3f 	bl	8001cac <gotoxy>
	printf(")");
 800382e:	2029      	movs	r0, #41	; 0x29
 8003830:	f002 fece 	bl	80065d0 <putchar>
	gotoxy(X-4,Y-2);
 8003834:	79fb      	ldrb	r3, [r7, #7]
 8003836:	1f1a      	subs	r2, r3, #4
 8003838:	79bb      	ldrb	r3, [r7, #6]
 800383a:	3b02      	subs	r3, #2
 800383c:	4619      	mov	r1, r3
 800383e:	4610      	mov	r0, r2
 8003840:	f7fe fa34 	bl	8001cac <gotoxy>
	printf("(");
 8003844:	2028      	movs	r0, #40	; 0x28
 8003846:	f002 fec3 	bl	80065d0 <putchar>
	gotoxy(X+4,Y-2);
 800384a:	79fb      	ldrb	r3, [r7, #7]
 800384c:	1d1a      	adds	r2, r3, #4
 800384e:	79bb      	ldrb	r3, [r7, #6]
 8003850:	3b02      	subs	r3, #2
 8003852:	4619      	mov	r1, r3
 8003854:	4610      	mov	r0, r2
 8003856:	f7fe fa29 	bl	8001cac <gotoxy>
	printf(")");
 800385a:	2029      	movs	r0, #41	; 0x29
 800385c:	f002 feb8 	bl	80065d0 <putchar>

	gotoxy(X-3,Y-3);
 8003860:	79fb      	ldrb	r3, [r7, #7]
 8003862:	1eda      	subs	r2, r3, #3
 8003864:	79bb      	ldrb	r3, [r7, #6]
 8003866:	3b03      	subs	r3, #3
 8003868:	4619      	mov	r1, r3
 800386a:	4610      	mov	r0, r2
 800386c:	f7fe fa1e 	bl	8001cac <gotoxy>
	printf("_");
 8003870:	205f      	movs	r0, #95	; 0x5f
 8003872:	f002 fead 	bl	80065d0 <putchar>
	gotoxy(X+3,Y-3);
 8003876:	79fb      	ldrb	r3, [r7, #7]
 8003878:	1cda      	adds	r2, r3, #3
 800387a:	79bb      	ldrb	r3, [r7, #6]
 800387c:	3b03      	subs	r3, #3
 800387e:	4619      	mov	r1, r3
 8003880:	4610      	mov	r0, r2
 8003882:	f7fe fa13 	bl	8001cac <gotoxy>
	printf("_");
 8003886:	205f      	movs	r0, #95	; 0x5f
 8003888:	f002 fea2 	bl	80065d0 <putchar>
	gotoxy(X-2,Y-3);
 800388c:	79fb      	ldrb	r3, [r7, #7]
 800388e:	1e9a      	subs	r2, r3, #2
 8003890:	79bb      	ldrb	r3, [r7, #6]
 8003892:	3b03      	subs	r3, #3
 8003894:	4619      	mov	r1, r3
 8003896:	4610      	mov	r0, r2
 8003898:	f7fe fa08 	bl	8001cac <gotoxy>
	printf("(");
 800389c:	2028      	movs	r0, #40	; 0x28
 800389e:	f002 fe97 	bl	80065d0 <putchar>
	gotoxy(X+2,Y-3);
 80038a2:	79fb      	ldrb	r3, [r7, #7]
 80038a4:	1c9a      	adds	r2, r3, #2
 80038a6:	79bb      	ldrb	r3, [r7, #6]
 80038a8:	3b03      	subs	r3, #3
 80038aa:	4619      	mov	r1, r3
 80038ac:	4610      	mov	r0, r2
 80038ae:	f7fe f9fd 	bl	8001cac <gotoxy>
	printf(")");
 80038b2:	2029      	movs	r0, #41	; 0x29
 80038b4:	f002 fe8c 	bl	80065d0 <putchar>

	gotoxy(X-1,Y-4);
 80038b8:	79fb      	ldrb	r3, [r7, #7]
 80038ba:	1e5a      	subs	r2, r3, #1
 80038bc:	79bb      	ldrb	r3, [r7, #6]
 80038be:	3b04      	subs	r3, #4
 80038c0:	4619      	mov	r1, r3
 80038c2:	4610      	mov	r0, r2
 80038c4:	f7fe f9f2 	bl	8001cac <gotoxy>
	printf("_");
 80038c8:	205f      	movs	r0, #95	; 0x5f
 80038ca:	f002 fe81 	bl	80065d0 <putchar>
	gotoxy(X,Y-4);
 80038ce:	79fa      	ldrb	r2, [r7, #7]
 80038d0:	79bb      	ldrb	r3, [r7, #6]
 80038d2:	3b04      	subs	r3, #4
 80038d4:	4619      	mov	r1, r3
 80038d6:	4610      	mov	r0, r2
 80038d8:	f7fe f9e8 	bl	8001cac <gotoxy>
	printf("_");
 80038dc:	205f      	movs	r0, #95	; 0x5f
 80038de:	f002 fe77 	bl	80065d0 <putchar>
	gotoxy(X+1,Y-4);
 80038e2:	79fb      	ldrb	r3, [r7, #7]
 80038e4:	1c5a      	adds	r2, r3, #1
 80038e6:	79bb      	ldrb	r3, [r7, #6]
 80038e8:	3b04      	subs	r3, #4
 80038ea:	4619      	mov	r1, r3
 80038ec:	4610      	mov	r0, r2
 80038ee:	f7fe f9dd 	bl	8001cac <gotoxy>
	printf("_");
 80038f2:	205f      	movs	r0, #95	; 0x5f
 80038f4:	f002 fe6c 	bl	80065d0 <putchar>

	gotoxy(X-2,Y);
 80038f8:	79fb      	ldrb	r3, [r7, #7]
 80038fa:	3b02      	subs	r3, #2
 80038fc:	79ba      	ldrb	r2, [r7, #6]
 80038fe:	4611      	mov	r1, r2
 8003900:	4618      	mov	r0, r3
 8003902:	f7fe f9d3 	bl	8001cac <gotoxy>
	printf("O");
 8003906:	204f      	movs	r0, #79	; 0x4f
 8003908:	f002 fe62 	bl	80065d0 <putchar>
	gotoxy(X+1,Y+2);
 800390c:	79fb      	ldrb	r3, [r7, #7]
 800390e:	1c5a      	adds	r2, r3, #1
 8003910:	79bb      	ldrb	r3, [r7, #6]
 8003912:	3302      	adds	r3, #2
 8003914:	4619      	mov	r1, r3
 8003916:	4610      	mov	r0, r2
 8003918:	f7fe f9c8 	bl	8001cac <gotoxy>
	printf("o");
 800391c:	206f      	movs	r0, #111	; 0x6f
 800391e:	f002 fe57 	bl	80065d0 <putchar>
	gotoxy(X+3,Y-1);
 8003922:	79fb      	ldrb	r3, [r7, #7]
 8003924:	1cda      	adds	r2, r3, #3
 8003926:	79bb      	ldrb	r3, [r7, #6]
 8003928:	3b01      	subs	r3, #1
 800392a:	4619      	mov	r1, r3
 800392c:	4610      	mov	r0, r2
 800392e:	f7fe f9bd 	bl	8001cac <gotoxy>
	printf("O");
 8003932:	204f      	movs	r0, #79	; 0x4f
 8003934:	f002 fe4c 	bl	80065d0 <putchar>
}
 8003938:	bf00      	nop
 800393a:	3708      	adds	r7, #8
 800393c:	46bd      	mov	sp, r7
 800393e:	bd80      	pop	{r7, pc}

08003940 <drawhearth>:
/**
  * @brief Draws the hearts indicating the number of lives
  * @param  gameState: the current state of the game
  * @retval None
  */
void drawhearth(gameState_t* gameState){
 8003940:	b580      	push	{r7, lr}
 8003942:	b082      	sub	sp, #8
 8003944:	af00      	add	r7, sp, #0
 8003946:	6078      	str	r0, [r7, #4]
	gotoxy(15,1);
 8003948:	2101      	movs	r1, #1
 800394a:	200f      	movs	r0, #15
 800394c:	f7fe f9ae 	bl	8001cac <gotoxy>
	printf("           ");
 8003950:	483b      	ldr	r0, [pc, #236]	; (8003a40 <drawhearth+0x100>)
 8003952:	f002 fe25 	bl	80065a0 <iprintf>
	gotoxy(15,2);
 8003956:	2102      	movs	r1, #2
 8003958:	200f      	movs	r0, #15
 800395a:	f7fe f9a7 	bl	8001cac <gotoxy>
	printf("           ");
 800395e:	4838      	ldr	r0, [pc, #224]	; (8003a40 <drawhearth+0x100>)
 8003960:	f002 fe1e 	bl	80065a0 <iprintf>
	fgcolor(1);
 8003964:	2001      	movs	r0, #1
 8003966:	f7fe f975 	bl	8001c54 <fgcolor>

	if(gameState->cityLives >= 1){
 800396a:	687b      	ldr	r3, [r7, #4]
 800396c:	f893 3030 	ldrb.w	r3, [r3, #48]	; 0x30
 8003970:	2b00      	cmp	r3, #0
 8003972:	d01b      	beq.n	80039ac <drawhearth+0x6c>
		gotoxy(15,1);
 8003974:	2101      	movs	r1, #1
 8003976:	200f      	movs	r0, #15
 8003978:	f7fe f998 	bl	8001cac <gotoxy>
		printf("%c",219);
 800397c:	20db      	movs	r0, #219	; 0xdb
 800397e:	f002 fe27 	bl	80065d0 <putchar>
		gotoxy(17,1);
 8003982:	2101      	movs	r1, #1
 8003984:	2011      	movs	r0, #17
 8003986:	f7fe f991 	bl	8001cac <gotoxy>
		printf("%c",219);
 800398a:	20db      	movs	r0, #219	; 0xdb
 800398c:	f002 fe20 	bl	80065d0 <putchar>
		gotoxy(16,2);
 8003990:	2102      	movs	r1, #2
 8003992:	2010      	movs	r0, #16
 8003994:	f7fe f98a 	bl	8001cac <gotoxy>
		printf("%c",223);
 8003998:	20df      	movs	r0, #223	; 0xdf
 800399a:	f002 fe19 	bl	80065d0 <putchar>
		gotoxy(16,1);
 800399e:	2101      	movs	r1, #1
 80039a0:	2010      	movs	r0, #16
 80039a2:	f7fe f983 	bl	8001cac <gotoxy>
		printf("%c",220);
 80039a6:	20dc      	movs	r0, #220	; 0xdc
 80039a8:	f002 fe12 	bl	80065d0 <putchar>
	}
	if(gameState->cityLives >= 2){
 80039ac:	687b      	ldr	r3, [r7, #4]
 80039ae:	f893 3030 	ldrb.w	r3, [r3, #48]	; 0x30
 80039b2:	2b01      	cmp	r3, #1
 80039b4:	d91b      	bls.n	80039ee <drawhearth+0xae>
		gotoxy(19,1);
 80039b6:	2101      	movs	r1, #1
 80039b8:	2013      	movs	r0, #19
 80039ba:	f7fe f977 	bl	8001cac <gotoxy>
		printf("%c",219);
 80039be:	20db      	movs	r0, #219	; 0xdb
 80039c0:	f002 fe06 	bl	80065d0 <putchar>
		gotoxy(21,1);
 80039c4:	2101      	movs	r1, #1
 80039c6:	2015      	movs	r0, #21
 80039c8:	f7fe f970 	bl	8001cac <gotoxy>
		printf("%c",219);
 80039cc:	20db      	movs	r0, #219	; 0xdb
 80039ce:	f002 fdff 	bl	80065d0 <putchar>
		gotoxy(20,2);
 80039d2:	2102      	movs	r1, #2
 80039d4:	2014      	movs	r0, #20
 80039d6:	f7fe f969 	bl	8001cac <gotoxy>
		printf("%c",223);
 80039da:	20df      	movs	r0, #223	; 0xdf
 80039dc:	f002 fdf8 	bl	80065d0 <putchar>
		gotoxy(20,1);
 80039e0:	2101      	movs	r1, #1
 80039e2:	2014      	movs	r0, #20
 80039e4:	f7fe f962 	bl	8001cac <gotoxy>
		printf("%c",220);
 80039e8:	20dc      	movs	r0, #220	; 0xdc
 80039ea:	f002 fdf1 	bl	80065d0 <putchar>

	}
	if(gameState->cityLives >= 3){
 80039ee:	687b      	ldr	r3, [r7, #4]
 80039f0:	f893 3030 	ldrb.w	r3, [r3, #48]	; 0x30
 80039f4:	2b02      	cmp	r3, #2
 80039f6:	d91b      	bls.n	8003a30 <drawhearth+0xf0>
		gotoxy(23,1);
 80039f8:	2101      	movs	r1, #1
 80039fa:	2017      	movs	r0, #23
 80039fc:	f7fe f956 	bl	8001cac <gotoxy>
		printf("%c",219);
 8003a00:	20db      	movs	r0, #219	; 0xdb
 8003a02:	f002 fde5 	bl	80065d0 <putchar>
		gotoxy(25,1);
 8003a06:	2101      	movs	r1, #1
 8003a08:	2019      	movs	r0, #25
 8003a0a:	f7fe f94f 	bl	8001cac <gotoxy>
		printf("%c",219);
 8003a0e:	20db      	movs	r0, #219	; 0xdb
 8003a10:	f002 fdde 	bl	80065d0 <putchar>
		gotoxy(24,2);
 8003a14:	2102      	movs	r1, #2
 8003a16:	2018      	movs	r0, #24
 8003a18:	f7fe f948 	bl	8001cac <gotoxy>
		printf("%c",223);
 8003a1c:	20df      	movs	r0, #223	; 0xdf
 8003a1e:	f002 fdd7 	bl	80065d0 <putchar>
		gotoxy(24,1);
 8003a22:	2101      	movs	r1, #1
 8003a24:	2018      	movs	r0, #24
 8003a26:	f7fe f941 	bl	8001cac <gotoxy>
		printf("%c",220);
 8003a2a:	20dc      	movs	r0, #220	; 0xdc
 8003a2c:	f002 fdd0 	bl	80065d0 <putchar>
	}
	fgcolor(15);
 8003a30:	200f      	movs	r0, #15
 8003a32:	f7fe f90f 	bl	8001c54 <fgcolor>
}
 8003a36:	bf00      	nop
 8003a38:	3708      	adds	r7, #8
 8003a3a:	46bd      	mov	sp, r7
 8003a3c:	bd80      	pop	{r7, pc}
 8003a3e:	bf00      	nop
 8003a40:	08007848 	.word	0x08007848

08003a44 <drawEnemy>:
/**
  * @brief Loops over all the enemies and draws them to the screen
  * @param  gameState: the current state of the game
  * @retval None
  */
void drawEnemy(gameState_t* gameState){
 8003a44:	b590      	push	{r4, r7, lr}
 8003a46:	b089      	sub	sp, #36	; 0x24
 8003a48:	af04      	add	r7, sp, #16
 8003a4a:	6078      	str	r0, [r7, #4]
	enemyNode_t* thisNode = gameState->enemyLL;
 8003a4c:	687b      	ldr	r3, [r7, #4]
 8003a4e:	685b      	ldr	r3, [r3, #4]
 8003a50:	60fb      	str	r3, [r7, #12]

	while(thisNode != NULL){
 8003a52:	e087      	b.n	8003b64 <drawEnemy+0x120>
		gotoxy(fpToInt(thisNode->enemy->position->x), fpToInt(thisNode->enemy->position->y)/yScale);
 8003a54:	68fb      	ldr	r3, [r7, #12]
 8003a56:	681b      	ldr	r3, [r3, #0]
 8003a58:	681b      	ldr	r3, [r3, #0]
 8003a5a:	681b      	ldr	r3, [r3, #0]
 8003a5c:	4618      	mov	r0, r3
 8003a5e:	f7ff fcab 	bl	80033b8 <fpToInt>
 8003a62:	4604      	mov	r4, r0
 8003a64:	68fb      	ldr	r3, [r7, #12]
 8003a66:	681b      	ldr	r3, [r3, #0]
 8003a68:	681b      	ldr	r3, [r3, #0]
 8003a6a:	685b      	ldr	r3, [r3, #4]
 8003a6c:	4618      	mov	r0, r3
 8003a6e:	f7ff fca3 	bl	80033b8 <fpToInt>
 8003a72:	4603      	mov	r3, r0
 8003a74:	0fda      	lsrs	r2, r3, #31
 8003a76:	4413      	add	r3, r2
 8003a78:	105b      	asrs	r3, r3, #1
 8003a7a:	4619      	mov	r1, r3
 8003a7c:	4620      	mov	r0, r4
 8003a7e:	f7fe f915 	bl	8001cac <gotoxy>
		printf("       ");
 8003a82:	483d      	ldr	r0, [pc, #244]	; (8003b78 <drawEnemy+0x134>)
 8003a84:	f002 fd8c 	bl	80065a0 <iprintf>
		gotoxy(fpToInt(thisNode->enemy->position->x), (fpToInt(thisNode->enemy->position->y) + 1 * yScale)/yScale);
 8003a88:	68fb      	ldr	r3, [r7, #12]
 8003a8a:	681b      	ldr	r3, [r3, #0]
 8003a8c:	681b      	ldr	r3, [r3, #0]
 8003a8e:	681b      	ldr	r3, [r3, #0]
 8003a90:	4618      	mov	r0, r3
 8003a92:	f7ff fc91 	bl	80033b8 <fpToInt>
 8003a96:	4604      	mov	r4, r0
 8003a98:	68fb      	ldr	r3, [r7, #12]
 8003a9a:	681b      	ldr	r3, [r3, #0]
 8003a9c:	681b      	ldr	r3, [r3, #0]
 8003a9e:	685b      	ldr	r3, [r3, #4]
 8003aa0:	4618      	mov	r0, r3
 8003aa2:	f7ff fc89 	bl	80033b8 <fpToInt>
 8003aa6:	4603      	mov	r3, r0
 8003aa8:	3302      	adds	r3, #2
 8003aaa:	0fda      	lsrs	r2, r3, #31
 8003aac:	4413      	add	r3, r2
 8003aae:	105b      	asrs	r3, r3, #1
 8003ab0:	4619      	mov	r1, r3
 8003ab2:	4620      	mov	r0, r4
 8003ab4:	f7fe f8fa 	bl	8001cac <gotoxy>
		printf("       ");
 8003ab8:	482f      	ldr	r0, [pc, #188]	; (8003b78 <drawEnemy+0x134>)
 8003aba:	f002 fd71 	bl	80065a0 <iprintf>

		gotoxy(fpToInt(thisNode->enemy->nextPosition->x), fpToInt(thisNode->enemy->nextPosition->y)/yScale);
 8003abe:	68fb      	ldr	r3, [r7, #12]
 8003ac0:	681b      	ldr	r3, [r3, #0]
 8003ac2:	685b      	ldr	r3, [r3, #4]
 8003ac4:	681b      	ldr	r3, [r3, #0]
 8003ac6:	4618      	mov	r0, r3
 8003ac8:	f7ff fc76 	bl	80033b8 <fpToInt>
 8003acc:	4604      	mov	r4, r0
 8003ace:	68fb      	ldr	r3, [r7, #12]
 8003ad0:	681b      	ldr	r3, [r3, #0]
 8003ad2:	685b      	ldr	r3, [r3, #4]
 8003ad4:	685b      	ldr	r3, [r3, #4]
 8003ad6:	4618      	mov	r0, r3
 8003ad8:	f7ff fc6e 	bl	80033b8 <fpToInt>
 8003adc:	4603      	mov	r3, r0
 8003ade:	0fda      	lsrs	r2, r3, #31
 8003ae0:	4413      	add	r3, r2
 8003ae2:	105b      	asrs	r3, r3, #1
 8003ae4:	4619      	mov	r1, r3
 8003ae6:	4620      	mov	r0, r4
 8003ae8:	f7fe f8e0 	bl	8001cac <gotoxy>
		printf("  o o  ");
 8003aec:	4823      	ldr	r0, [pc, #140]	; (8003b7c <drawEnemy+0x138>)
 8003aee:	f002 fd57 	bl	80065a0 <iprintf>
		gotoxy(fpToInt(thisNode->enemy->nextPosition->x), (fpToInt(thisNode->enemy->nextPosition->y) + 1 * yScale)/yScale);
 8003af2:	68fb      	ldr	r3, [r7, #12]
 8003af4:	681b      	ldr	r3, [r3, #0]
 8003af6:	685b      	ldr	r3, [r3, #4]
 8003af8:	681b      	ldr	r3, [r3, #0]
 8003afa:	4618      	mov	r0, r3
 8003afc:	f7ff fc5c 	bl	80033b8 <fpToInt>
 8003b00:	4604      	mov	r4, r0
 8003b02:	68fb      	ldr	r3, [r7, #12]
 8003b04:	681b      	ldr	r3, [r3, #0]
 8003b06:	685b      	ldr	r3, [r3, #4]
 8003b08:	685b      	ldr	r3, [r3, #4]
 8003b0a:	4618      	mov	r0, r3
 8003b0c:	f7ff fc54 	bl	80033b8 <fpToInt>
 8003b10:	4603      	mov	r3, r0
 8003b12:	3302      	adds	r3, #2
 8003b14:	0fda      	lsrs	r2, r3, #31
 8003b16:	4413      	add	r3, r2
 8003b18:	105b      	asrs	r3, r3, #1
 8003b1a:	4619      	mov	r1, r3
 8003b1c:	4620      	mov	r0, r4
 8003b1e:	f7fe f8c5 	bl	8001cac <gotoxy>
		printf("%c%c%c%c%c%c%c", 201, 205, 205, 205, 205, 205, 187);
 8003b22:	23bb      	movs	r3, #187	; 0xbb
 8003b24:	9303      	str	r3, [sp, #12]
 8003b26:	23cd      	movs	r3, #205	; 0xcd
 8003b28:	9302      	str	r3, [sp, #8]
 8003b2a:	23cd      	movs	r3, #205	; 0xcd
 8003b2c:	9301      	str	r3, [sp, #4]
 8003b2e:	23cd      	movs	r3, #205	; 0xcd
 8003b30:	9300      	str	r3, [sp, #0]
 8003b32:	23cd      	movs	r3, #205	; 0xcd
 8003b34:	22cd      	movs	r2, #205	; 0xcd
 8003b36:	21c9      	movs	r1, #201	; 0xc9
 8003b38:	4811      	ldr	r0, [pc, #68]	; (8003b80 <drawEnemy+0x13c>)
 8003b3a:	f002 fd31 	bl	80065a0 <iprintf>

		thisNode->enemy->position->x = thisNode->enemy->nextPosition->x;
 8003b3e:	68fb      	ldr	r3, [r7, #12]
 8003b40:	681b      	ldr	r3, [r3, #0]
 8003b42:	685a      	ldr	r2, [r3, #4]
 8003b44:	68fb      	ldr	r3, [r7, #12]
 8003b46:	681b      	ldr	r3, [r3, #0]
 8003b48:	681b      	ldr	r3, [r3, #0]
 8003b4a:	6812      	ldr	r2, [r2, #0]
 8003b4c:	601a      	str	r2, [r3, #0]
		thisNode->enemy->position->y = thisNode->enemy->nextPosition->y;
 8003b4e:	68fb      	ldr	r3, [r7, #12]
 8003b50:	681b      	ldr	r3, [r3, #0]
 8003b52:	685a      	ldr	r2, [r3, #4]
 8003b54:	68fb      	ldr	r3, [r7, #12]
 8003b56:	681b      	ldr	r3, [r3, #0]
 8003b58:	681b      	ldr	r3, [r3, #0]
 8003b5a:	6852      	ldr	r2, [r2, #4]
 8003b5c:	605a      	str	r2, [r3, #4]
		thisNode = thisNode->nextEnemyNode;
 8003b5e:	68fb      	ldr	r3, [r7, #12]
 8003b60:	685b      	ldr	r3, [r3, #4]
 8003b62:	60fb      	str	r3, [r7, #12]
	while(thisNode != NULL){
 8003b64:	68fb      	ldr	r3, [r7, #12]
 8003b66:	2b00      	cmp	r3, #0
 8003b68:	f47f af74 	bne.w	8003a54 <drawEnemy+0x10>
	}
}
 8003b6c:	bf00      	nop
 8003b6e:	bf00      	nop
 8003b70:	3714      	adds	r7, #20
 8003b72:	46bd      	mov	sp, r7
 8003b74:	bd90      	pop	{r4, r7, pc}
 8003b76:	bf00      	nop
 8003b78:	08007854 	.word	0x08007854
 8003b7c:	0800785c 	.word	0x0800785c
 8003b80:	08007864 	.word	0x08007864

08003b84 <drawCity>:
/**
  * @brief Draw the city at the bottom of the screen
  * @param  None
  * @retval None
  */
void drawCity(){
 8003b84:	b580      	push	{r7, lr}
 8003b86:	af00      	add	r7, sp, #0
	gotoxy(14,44);
 8003b88:	212c      	movs	r1, #44	; 0x2c
 8003b8a:	200e      	movs	r0, #14
 8003b8c:	f7fe f88e 	bl	8001cac <gotoxy>
	printf("%c",219);
 8003b90:	20db      	movs	r0, #219	; 0xdb
 8003b92:	f002 fd1d 	bl	80065d0 <putchar>

	gotoxy(16,44);
 8003b96:	212c      	movs	r1, #44	; 0x2c
 8003b98:	2010      	movs	r0, #16
 8003b9a:	f7fe f887 	bl	8001cac <gotoxy>
	printf("%c",219);
 8003b9e:	20db      	movs	r0, #219	; 0xdb
 8003ba0:	f002 fd16 	bl	80065d0 <putchar>

	gotoxy(17,44);
 8003ba4:	212c      	movs	r1, #44	; 0x2c
 8003ba6:	2011      	movs	r0, #17
 8003ba8:	f7fe f880 	bl	8001cac <gotoxy>
	printf("%c",219);
 8003bac:	20db      	movs	r0, #219	; 0xdb
 8003bae:	f002 fd0f 	bl	80065d0 <putchar>
	gotoxy(17,43);
 8003bb2:	212b      	movs	r1, #43	; 0x2b
 8003bb4:	2011      	movs	r0, #17
 8003bb6:	f7fe f879 	bl	8001cac <gotoxy>
	printf("%c",219);
 8003bba:	20db      	movs	r0, #219	; 0xdb
 8003bbc:	f002 fd08 	bl	80065d0 <putchar>

	gotoxy(19,44);
 8003bc0:	212c      	movs	r1, #44	; 0x2c
 8003bc2:	2013      	movs	r0, #19
 8003bc4:	f7fe f872 	bl	8001cac <gotoxy>
	printf("%c",220);
 8003bc8:	20dc      	movs	r0, #220	; 0xdc
 8003bca:	f002 fd01 	bl	80065d0 <putchar>

	gotoxy(21,44);
 8003bce:	212c      	movs	r1, #44	; 0x2c
 8003bd0:	2015      	movs	r0, #21
 8003bd2:	f7fe f86b 	bl	8001cac <gotoxy>
	printf("%c",219);
 8003bd6:	20db      	movs	r0, #219	; 0xdb
 8003bd8:	f002 fcfa 	bl	80065d0 <putchar>

	gotoxy(23,44);
 8003bdc:	212c      	movs	r1, #44	; 0x2c
 8003bde:	2017      	movs	r0, #23
 8003be0:	f7fe f864 	bl	8001cac <gotoxy>
	printf("%c",219);
 8003be4:	20db      	movs	r0, #219	; 0xdb
 8003be6:	f002 fcf3 	bl	80065d0 <putchar>
	gotoxy(23,43);
 8003bea:	212b      	movs	r1, #43	; 0x2b
 8003bec:	2017      	movs	r0, #23
 8003bee:	f7fe f85d 	bl	8001cac <gotoxy>
	printf("%c",220);
 8003bf2:	20dc      	movs	r0, #220	; 0xdc
 8003bf4:	f002 fcec 	bl	80065d0 <putchar>

	gotoxy(25,44);
 8003bf8:	212c      	movs	r1, #44	; 0x2c
 8003bfa:	2019      	movs	r0, #25
 8003bfc:	f7fe f856 	bl	8001cac <gotoxy>
	printf("%c",219);
 8003c00:	20db      	movs	r0, #219	; 0xdb
 8003c02:	f002 fce5 	bl	80065d0 <putchar>
	gotoxy(25,43);
 8003c06:	212b      	movs	r1, #43	; 0x2b
 8003c08:	2019      	movs	r0, #25
 8003c0a:	f7fe f84f 	bl	8001cac <gotoxy>
	printf("%c",219);
 8003c0e:	20db      	movs	r0, #219	; 0xdb
 8003c10:	f002 fcde 	bl	80065d0 <putchar>
	gotoxy(25,42);
 8003c14:	212a      	movs	r1, #42	; 0x2a
 8003c16:	2019      	movs	r0, #25
 8003c18:	f7fe f848 	bl	8001cac <gotoxy>
	printf("%c",219);
 8003c1c:	20db      	movs	r0, #219	; 0xdb
 8003c1e:	f002 fcd7 	bl	80065d0 <putchar>

	gotoxy(27,44);
 8003c22:	212c      	movs	r1, #44	; 0x2c
 8003c24:	201b      	movs	r0, #27
 8003c26:	f7fe f841 	bl	8001cac <gotoxy>
	printf("%c",219);
 8003c2a:	20db      	movs	r0, #219	; 0xdb
 8003c2c:	f002 fcd0 	bl	80065d0 <putchar>
	gotoxy(27,43);
 8003c30:	212b      	movs	r1, #43	; 0x2b
 8003c32:	201b      	movs	r0, #27
 8003c34:	f7fe f83a 	bl	8001cac <gotoxy>
	printf("%c",220);
 8003c38:	20dc      	movs	r0, #220	; 0xdc
 8003c3a:	f002 fcc9 	bl	80065d0 <putchar>

	gotoxy(28,44);
 8003c3e:	212c      	movs	r1, #44	; 0x2c
 8003c40:	201c      	movs	r0, #28
 8003c42:	f7fe f833 	bl	8001cac <gotoxy>
	printf("%c",219);
 8003c46:	20db      	movs	r0, #219	; 0xdb
 8003c48:	f002 fcc2 	bl	80065d0 <putchar>

	gotoxy(36,44);
 8003c4c:	212c      	movs	r1, #44	; 0x2c
 8003c4e:	2024      	movs	r0, #36	; 0x24
 8003c50:	f7fe f82c 	bl	8001cac <gotoxy>
	printf("%c",219);
 8003c54:	20db      	movs	r0, #219	; 0xdb
 8003c56:	f002 fcbb 	bl	80065d0 <putchar>
	gotoxy(36,43);
 8003c5a:	212b      	movs	r1, #43	; 0x2b
 8003c5c:	2024      	movs	r0, #36	; 0x24
 8003c5e:	f7fe f825 	bl	8001cac <gotoxy>
	printf("%c",219);
 8003c62:	20db      	movs	r0, #219	; 0xdb
 8003c64:	f002 fcb4 	bl	80065d0 <putchar>

	gotoxy(37,44);
 8003c68:	212c      	movs	r1, #44	; 0x2c
 8003c6a:	2025      	movs	r0, #37	; 0x25
 8003c6c:	f7fe f81e 	bl	8001cac <gotoxy>
	printf("%c",219);
 8003c70:	20db      	movs	r0, #219	; 0xdb
 8003c72:	f002 fcad 	bl	80065d0 <putchar>

	gotoxy(38,44);
 8003c76:	212c      	movs	r1, #44	; 0x2c
 8003c78:	2026      	movs	r0, #38	; 0x26
 8003c7a:	f7fe f817 	bl	8001cac <gotoxy>
	printf("%c",220);
 8003c7e:	20dc      	movs	r0, #220	; 0xdc
 8003c80:	f002 fca6 	bl	80065d0 <putchar>

	gotoxy(40,44);
 8003c84:	212c      	movs	r1, #44	; 0x2c
 8003c86:	2028      	movs	r0, #40	; 0x28
 8003c88:	f7fe f810 	bl	8001cac <gotoxy>
	printf("%c",219);
 8003c8c:	20db      	movs	r0, #219	; 0xdb
 8003c8e:	f002 fc9f 	bl	80065d0 <putchar>
	gotoxy(40,43);
 8003c92:	212b      	movs	r1, #43	; 0x2b
 8003c94:	2028      	movs	r0, #40	; 0x28
 8003c96:	f7fe f809 	bl	8001cac <gotoxy>
	printf("%c",219);
 8003c9a:	20db      	movs	r0, #219	; 0xdb
 8003c9c:	f002 fc98 	bl	80065d0 <putchar>

	gotoxy(41,43);
 8003ca0:	212b      	movs	r1, #43	; 0x2b
 8003ca2:	2029      	movs	r0, #41	; 0x29
 8003ca4:	f7fe f802 	bl	8001cac <gotoxy>
	printf("%c",205);
 8003ca8:	20cd      	movs	r0, #205	; 0xcd
 8003caa:	f002 fc91 	bl	80065d0 <putchar>

	gotoxy(42,44);
 8003cae:	212c      	movs	r1, #44	; 0x2c
 8003cb0:	202a      	movs	r0, #42	; 0x2a
 8003cb2:	f7fd fffb 	bl	8001cac <gotoxy>
	printf("%c",219);
 8003cb6:	20db      	movs	r0, #219	; 0xdb
 8003cb8:	f002 fc8a 	bl	80065d0 <putchar>
	gotoxy(42,43);
 8003cbc:	212b      	movs	r1, #43	; 0x2b
 8003cbe:	202a      	movs	r0, #42	; 0x2a
 8003cc0:	f7fd fff4 	bl	8001cac <gotoxy>
	printf("%c",219);
 8003cc4:	20db      	movs	r0, #219	; 0xdb
 8003cc6:	f002 fc83 	bl	80065d0 <putchar>

	gotoxy(45,44);
 8003cca:	212c      	movs	r1, #44	; 0x2c
 8003ccc:	202d      	movs	r0, #45	; 0x2d
 8003cce:	f7fd ffed 	bl	8001cac <gotoxy>
	printf("%c",186);
 8003cd2:	20ba      	movs	r0, #186	; 0xba
 8003cd4:	f002 fc7c 	bl	80065d0 <putchar>

	gotoxy(47,44);
 8003cd8:	212c      	movs	r1, #44	; 0x2c
 8003cda:	202f      	movs	r0, #47	; 0x2f
 8003cdc:	f7fd ffe6 	bl	8001cac <gotoxy>
	printf("%c",220);
 8003ce0:	20dc      	movs	r0, #220	; 0xdc
 8003ce2:	f002 fc75 	bl	80065d0 <putchar>

	gotoxy(55,44);
 8003ce6:	212c      	movs	r1, #44	; 0x2c
 8003ce8:	2037      	movs	r0, #55	; 0x37
 8003cea:	f7fd ffdf 	bl	8001cac <gotoxy>
	printf("%c",219);
 8003cee:	20db      	movs	r0, #219	; 0xdb
 8003cf0:	f002 fc6e 	bl	80065d0 <putchar>
	gotoxy(55,43);
 8003cf4:	212b      	movs	r1, #43	; 0x2b
 8003cf6:	2037      	movs	r0, #55	; 0x37
 8003cf8:	f7fd ffd8 	bl	8001cac <gotoxy>
	printf("%c",220);
 8003cfc:	20dc      	movs	r0, #220	; 0xdc
 8003cfe:	f002 fc67 	bl	80065d0 <putchar>

	gotoxy(58,44);
 8003d02:	212c      	movs	r1, #44	; 0x2c
 8003d04:	203a      	movs	r0, #58	; 0x3a
 8003d06:	f7fd ffd1 	bl	8001cac <gotoxy>
	printf("%c",219);
 8003d0a:	20db      	movs	r0, #219	; 0xdb
 8003d0c:	f002 fc60 	bl	80065d0 <putchar>
	gotoxy(58,43);
 8003d10:	212b      	movs	r1, #43	; 0x2b
 8003d12:	203a      	movs	r0, #58	; 0x3a
 8003d14:	f7fd ffca 	bl	8001cac <gotoxy>
	printf("%c",219);
 8003d18:	20db      	movs	r0, #219	; 0xdb
 8003d1a:	f002 fc59 	bl	80065d0 <putchar>
	gotoxy(58,42);
 8003d1e:	212a      	movs	r1, #42	; 0x2a
 8003d20:	203a      	movs	r0, #58	; 0x3a
 8003d22:	f7fd ffc3 	bl	8001cac <gotoxy>
	printf("%c",220);
 8003d26:	20dc      	movs	r0, #220	; 0xdc
 8003d28:	f002 fc52 	bl	80065d0 <putchar>

	gotoxy(59,44);
 8003d2c:	212c      	movs	r1, #44	; 0x2c
 8003d2e:	203b      	movs	r0, #59	; 0x3b
 8003d30:	f7fd ffbc 	bl	8001cac <gotoxy>
	printf("%c",219);
 8003d34:	20db      	movs	r0, #219	; 0xdb
 8003d36:	f002 fc4b 	bl	80065d0 <putchar>
	gotoxy(59,43);
 8003d3a:	212b      	movs	r1, #43	; 0x2b
 8003d3c:	203b      	movs	r0, #59	; 0x3b
 8003d3e:	f7fd ffb5 	bl	8001cac <gotoxy>
	printf("%c",220);
 8003d42:	20dc      	movs	r0, #220	; 0xdc
 8003d44:	f002 fc44 	bl	80065d0 <putchar>

	gotoxy(60,44);
 8003d48:	212c      	movs	r1, #44	; 0x2c
 8003d4a:	203c      	movs	r0, #60	; 0x3c
 8003d4c:	f7fd ffae 	bl	8001cac <gotoxy>
	printf("%c",219);
 8003d50:	20db      	movs	r0, #219	; 0xdb
 8003d52:	f002 fc3d 	bl	80065d0 <putchar>

	gotoxy(61,44);
 8003d56:	212c      	movs	r1, #44	; 0x2c
 8003d58:	203d      	movs	r0, #61	; 0x3d
 8003d5a:	f7fd ffa7 	bl	8001cac <gotoxy>
	printf("%c",219);
 8003d5e:	20db      	movs	r0, #219	; 0xdb
 8003d60:	f002 fc36 	bl	80065d0 <putchar>
	gotoxy(61,43);
 8003d64:	212b      	movs	r1, #43	; 0x2b
 8003d66:	203d      	movs	r0, #61	; 0x3d
 8003d68:	f7fd ffa0 	bl	8001cac <gotoxy>
	printf("%c",219);
 8003d6c:	20db      	movs	r0, #219	; 0xdb
 8003d6e:	f002 fc2f 	bl	80065d0 <putchar>

	gotoxy(63,44);
 8003d72:	212c      	movs	r1, #44	; 0x2c
 8003d74:	203f      	movs	r0, #63	; 0x3f
 8003d76:	f7fd ff99 	bl	8001cac <gotoxy>
	printf("%c",219);
 8003d7a:	20db      	movs	r0, #219	; 0xdb
 8003d7c:	f002 fc28 	bl	80065d0 <putchar>

	gotoxy(64,44);
 8003d80:	212c      	movs	r1, #44	; 0x2c
 8003d82:	2040      	movs	r0, #64	; 0x40
 8003d84:	f7fd ff92 	bl	8001cac <gotoxy>
	printf("%c",220);
 8003d88:	20dc      	movs	r0, #220	; 0xdc
 8003d8a:	f002 fc21 	bl	80065d0 <putchar>

	gotoxy(65,44);
 8003d8e:	212c      	movs	r1, #44	; 0x2c
 8003d90:	2041      	movs	r0, #65	; 0x41
 8003d92:	f7fd ff8b 	bl	8001cac <gotoxy>
	printf("%c",219);
 8003d96:	20db      	movs	r0, #219	; 0xdb
 8003d98:	f002 fc1a 	bl	80065d0 <putchar>

	gotoxy(67,44);
 8003d9c:	212c      	movs	r1, #44	; 0x2c
 8003d9e:	2043      	movs	r0, #67	; 0x43
 8003da0:	f7fd ff84 	bl	8001cac <gotoxy>
	printf("%c",219);
 8003da4:	20db      	movs	r0, #219	; 0xdb
 8003da6:	f002 fc13 	bl	80065d0 <putchar>
	gotoxy(67,43);
 8003daa:	212b      	movs	r1, #43	; 0x2b
 8003dac:	2043      	movs	r0, #67	; 0x43
 8003dae:	f7fd ff7d 	bl	8001cac <gotoxy>
	printf("%c",219);
 8003db2:	20db      	movs	r0, #219	; 0xdb
 8003db4:	f002 fc0c 	bl	80065d0 <putchar>
	gotoxy(67,42);
 8003db8:	212a      	movs	r1, #42	; 0x2a
 8003dba:	2043      	movs	r0, #67	; 0x43
 8003dbc:	f7fd ff76 	bl	8001cac <gotoxy>
	printf("%c",219);
 8003dc0:	20db      	movs	r0, #219	; 0xdb
 8003dc2:	f002 fc05 	bl	80065d0 <putchar>

	gotoxy(69,44);
 8003dc6:	212c      	movs	r1, #44	; 0x2c
 8003dc8:	2045      	movs	r0, #69	; 0x45
 8003dca:	f7fd ff6f 	bl	8001cac <gotoxy>
	printf("%c",219);
 8003dce:	20db      	movs	r0, #219	; 0xdb
 8003dd0:	f002 fbfe 	bl	80065d0 <putchar>
	gotoxy(69,43);
 8003dd4:	212b      	movs	r1, #43	; 0x2b
 8003dd6:	2045      	movs	r0, #69	; 0x45
 8003dd8:	f7fd ff68 	bl	8001cac <gotoxy>
	printf("%c",219);
 8003ddc:	20db      	movs	r0, #219	; 0xdb
 8003dde:	f002 fbf7 	bl	80065d0 <putchar>
	gotoxy(69,42);
 8003de2:	212a      	movs	r1, #42	; 0x2a
 8003de4:	2045      	movs	r0, #69	; 0x45
 8003de6:	f7fd ff61 	bl	8001cac <gotoxy>
	printf("%c",219);
 8003dea:	20db      	movs	r0, #219	; 0xdb
 8003dec:	f002 fbf0 	bl	80065d0 <putchar>

	gotoxy(71,44);
 8003df0:	212c      	movs	r1, #44	; 0x2c
 8003df2:	2047      	movs	r0, #71	; 0x47
 8003df4:	f7fd ff5a 	bl	8001cac <gotoxy>
	printf("%c",219);
 8003df8:	20db      	movs	r0, #219	; 0xdb
 8003dfa:	f002 fbe9 	bl	80065d0 <putchar>
	gotoxy(71,43);
 8003dfe:	212b      	movs	r1, #43	; 0x2b
 8003e00:	2047      	movs	r0, #71	; 0x47
 8003e02:	f7fd ff53 	bl	8001cac <gotoxy>
	printf("%c",219);
 8003e06:	20db      	movs	r0, #219	; 0xdb
 8003e08:	f002 fbe2 	bl	80065d0 <putchar>
	gotoxy(71,42);
 8003e0c:	212a      	movs	r1, #42	; 0x2a
 8003e0e:	2047      	movs	r0, #71	; 0x47
 8003e10:	f7fd ff4c 	bl	8001cac <gotoxy>
	printf("%c",219);
 8003e14:	20db      	movs	r0, #219	; 0xdb
 8003e16:	f002 fbdb 	bl	80065d0 <putchar>

	gotoxy(73,44);
 8003e1a:	212c      	movs	r1, #44	; 0x2c
 8003e1c:	2049      	movs	r0, #73	; 0x49
 8003e1e:	f7fd ff45 	bl	8001cac <gotoxy>
	printf("%c",219);
 8003e22:	20db      	movs	r0, #219	; 0xdb
 8003e24:	f002 fbd4 	bl	80065d0 <putchar>
	gotoxy(73,43);
 8003e28:	212b      	movs	r1, #43	; 0x2b
 8003e2a:	2049      	movs	r0, #73	; 0x49
 8003e2c:	f7fd ff3e 	bl	8001cac <gotoxy>
	printf("%c",219);
 8003e30:	20db      	movs	r0, #219	; 0xdb
 8003e32:	f002 fbcd 	bl	80065d0 <putchar>

	gotoxy(74,44);
 8003e36:	212c      	movs	r1, #44	; 0x2c
 8003e38:	204a      	movs	r0, #74	; 0x4a
 8003e3a:	f7fd ff37 	bl	8001cac <gotoxy>
	printf("%c",219);
 8003e3e:	20db      	movs	r0, #219	; 0xdb
 8003e40:	f002 fbc6 	bl	80065d0 <putchar>

	gotoxy(76,44);
 8003e44:	212c      	movs	r1, #44	; 0x2c
 8003e46:	204c      	movs	r0, #76	; 0x4c
 8003e48:	f7fd ff30 	bl	8001cac <gotoxy>
	printf("%c",219);
 8003e4c:	20db      	movs	r0, #219	; 0xdb
 8003e4e:	f002 fbbf 	bl	80065d0 <putchar>

	gotoxy(77,44);
 8003e52:	212c      	movs	r1, #44	; 0x2c
 8003e54:	204d      	movs	r0, #77	; 0x4d
 8003e56:	f7fd ff29 	bl	8001cac <gotoxy>
	printf("%c",219);
 8003e5a:	20db      	movs	r0, #219	; 0xdb
 8003e5c:	f002 fbb8 	bl	80065d0 <putchar>
	gotoxy(77,43);
 8003e60:	212b      	movs	r1, #43	; 0x2b
 8003e62:	204d      	movs	r0, #77	; 0x4d
 8003e64:	f7fd ff22 	bl	8001cac <gotoxy>
	printf("%c",219);
 8003e68:	20db      	movs	r0, #219	; 0xdb
 8003e6a:	f002 fbb1 	bl	80065d0 <putchar>

	gotoxy(79,44);
 8003e6e:	212c      	movs	r1, #44	; 0x2c
 8003e70:	204f      	movs	r0, #79	; 0x4f
 8003e72:	f7fd ff1b 	bl	8001cac <gotoxy>
	printf("%c",219);
 8003e76:	20db      	movs	r0, #219	; 0xdb
 8003e78:	f002 fbaa 	bl	80065d0 <putchar>
	gotoxy(79,44);
 8003e7c:	212c      	movs	r1, #44	; 0x2c
 8003e7e:	204f      	movs	r0, #79	; 0x4f
 8003e80:	f7fd ff14 	bl	8001cac <gotoxy>
	printf("%c",220);
 8003e84:	20dc      	movs	r0, #220	; 0xdc
 8003e86:	f002 fba3 	bl	80065d0 <putchar>

	gotoxy(81,44);
 8003e8a:	212c      	movs	r1, #44	; 0x2c
 8003e8c:	2051      	movs	r0, #81	; 0x51
 8003e8e:	f7fd ff0d 	bl	8001cac <gotoxy>
	printf("%c",219);
 8003e92:	20db      	movs	r0, #219	; 0xdb
 8003e94:	f002 fb9c 	bl	80065d0 <putchar>
	gotoxy(81,43);
 8003e98:	212b      	movs	r1, #43	; 0x2b
 8003e9a:	2051      	movs	r0, #81	; 0x51
 8003e9c:	f7fd ff06 	bl	8001cac <gotoxy>
	printf("%c",219);
 8003ea0:	20db      	movs	r0, #219	; 0xdb
 8003ea2:	f002 fb95 	bl	80065d0 <putchar>

	gotoxy(82,44);
 8003ea6:	212c      	movs	r1, #44	; 0x2c
 8003ea8:	2052      	movs	r0, #82	; 0x52
 8003eaa:	f7fd feff 	bl	8001cac <gotoxy>
	printf("%c",219);
 8003eae:	20db      	movs	r0, #219	; 0xdb
 8003eb0:	f002 fb8e 	bl	80065d0 <putchar>

	gotoxy(85,44);
 8003eb4:	212c      	movs	r1, #44	; 0x2c
 8003eb6:	2055      	movs	r0, #85	; 0x55
 8003eb8:	f7fd fef8 	bl	8001cac <gotoxy>
	printf("%c",219);
 8003ebc:	20db      	movs	r0, #219	; 0xdb
 8003ebe:	f002 fb87 	bl	80065d0 <putchar>
	gotoxy(85,43);
 8003ec2:	212b      	movs	r1, #43	; 0x2b
 8003ec4:	2055      	movs	r0, #85	; 0x55
 8003ec6:	f7fd fef1 	bl	8001cac <gotoxy>
	printf("%c",219);
 8003eca:	20db      	movs	r0, #219	; 0xdb
 8003ecc:	f002 fb80 	bl	80065d0 <putchar>
	gotoxy(85,42);
 8003ed0:	212a      	movs	r1, #42	; 0x2a
 8003ed2:	2055      	movs	r0, #85	; 0x55
 8003ed4:	f7fd feea 	bl	8001cac <gotoxy>
	printf("%c",220);
 8003ed8:	20dc      	movs	r0, #220	; 0xdc
 8003eda:	f002 fb79 	bl	80065d0 <putchar>

	gotoxy(86,44);
 8003ede:	212c      	movs	r1, #44	; 0x2c
 8003ee0:	2056      	movs	r0, #86	; 0x56
 8003ee2:	f7fd fee3 	bl	8001cac <gotoxy>
	printf("%c",219);
 8003ee6:	20db      	movs	r0, #219	; 0xdb
 8003ee8:	f002 fb72 	bl	80065d0 <putchar>

	gotoxy(87,44);
 8003eec:	212c      	movs	r1, #44	; 0x2c
 8003eee:	2057      	movs	r0, #87	; 0x57
 8003ef0:	f7fd fedc 	bl	8001cac <gotoxy>
	printf("%c",220);
 8003ef4:	20dc      	movs	r0, #220	; 0xdc
 8003ef6:	f002 fb6b 	bl	80065d0 <putchar>

	gotoxy(88,44);
 8003efa:	212c      	movs	r1, #44	; 0x2c
 8003efc:	2058      	movs	r0, #88	; 0x58
 8003efe:	f7fd fed5 	bl	8001cac <gotoxy>
	printf("%c",219);
 8003f02:	20db      	movs	r0, #219	; 0xdb
 8003f04:	f002 fb64 	bl	80065d0 <putchar>
	gotoxy(88,43);
 8003f08:	212b      	movs	r1, #43	; 0x2b
 8003f0a:	2058      	movs	r0, #88	; 0x58
 8003f0c:	f7fd fece 	bl	8001cac <gotoxy>
	printf("%c",220);
 8003f10:	20dc      	movs	r0, #220	; 0xdc
 8003f12:	f002 fb5d 	bl	80065d0 <putchar>

	gotoxy(93,44);
 8003f16:	212c      	movs	r1, #44	; 0x2c
 8003f18:	205d      	movs	r0, #93	; 0x5d
 8003f1a:	f7fd fec7 	bl	8001cac <gotoxy>
	printf("%c",219);
 8003f1e:	20db      	movs	r0, #219	; 0xdb
 8003f20:	f002 fb56 	bl	80065d0 <putchar>

	gotoxy(94,44);
 8003f24:	212c      	movs	r1, #44	; 0x2c
 8003f26:	205e      	movs	r0, #94	; 0x5e
 8003f28:	f7fd fec0 	bl	8001cac <gotoxy>
	printf("%c",219);
 8003f2c:	20db      	movs	r0, #219	; 0xdb
 8003f2e:	f002 fb4f 	bl	80065d0 <putchar>
	gotoxy(94,43);
 8003f32:	212b      	movs	r1, #43	; 0x2b
 8003f34:	205e      	movs	r0, #94	; 0x5e
 8003f36:	f7fd feb9 	bl	8001cac <gotoxy>
	printf("%c",220);
 8003f3a:	20dc      	movs	r0, #220	; 0xdc
 8003f3c:	f002 fb48 	bl	80065d0 <putchar>

	gotoxy(95,44);
 8003f40:	212c      	movs	r1, #44	; 0x2c
 8003f42:	205f      	movs	r0, #95	; 0x5f
 8003f44:	f7fd feb2 	bl	8001cac <gotoxy>
	printf("%c",220);
 8003f48:	20dc      	movs	r0, #220	; 0xdc
 8003f4a:	f002 fb41 	bl	80065d0 <putchar>

	gotoxy(96,44);
 8003f4e:	212c      	movs	r1, #44	; 0x2c
 8003f50:	2060      	movs	r0, #96	; 0x60
 8003f52:	f7fd feab 	bl	8001cac <gotoxy>
	printf("%c",219);
 8003f56:	20db      	movs	r0, #219	; 0xdb
 8003f58:	f002 fb3a 	bl	80065d0 <putchar>

	gotoxy(98,44);
 8003f5c:	212c      	movs	r1, #44	; 0x2c
 8003f5e:	2062      	movs	r0, #98	; 0x62
 8003f60:	f7fd fea4 	bl	8001cac <gotoxy>
	printf("%c",219);
 8003f64:	20db      	movs	r0, #219	; 0xdb
 8003f66:	f002 fb33 	bl	80065d0 <putchar>
	gotoxy(98,43);
 8003f6a:	212b      	movs	r1, #43	; 0x2b
 8003f6c:	2062      	movs	r0, #98	; 0x62
 8003f6e:	f7fd fe9d 	bl	8001cac <gotoxy>
	printf("%c",220);
 8003f72:	20dc      	movs	r0, #220	; 0xdc
 8003f74:	f002 fb2c 	bl	80065d0 <putchar>

	gotoxy(99,44);
 8003f78:	212c      	movs	r1, #44	; 0x2c
 8003f7a:	2063      	movs	r0, #99	; 0x63
 8003f7c:	f7fd fe96 	bl	8001cac <gotoxy>
	printf("%c",219);
 8003f80:	20db      	movs	r0, #219	; 0xdb
 8003f82:	f002 fb25 	bl	80065d0 <putchar>

	gotoxy(103,44);
 8003f86:	212c      	movs	r1, #44	; 0x2c
 8003f88:	2067      	movs	r0, #103	; 0x67
 8003f8a:	f7fd fe8f 	bl	8001cac <gotoxy>
	printf("%c",219);
 8003f8e:	20db      	movs	r0, #219	; 0xdb
 8003f90:	f002 fb1e 	bl	80065d0 <putchar>

	gotoxy(104,44);
 8003f94:	212c      	movs	r1, #44	; 0x2c
 8003f96:	2068      	movs	r0, #104	; 0x68
 8003f98:	f7fd fe88 	bl	8001cac <gotoxy>
	printf("%c",220);
 8003f9c:	20dc      	movs	r0, #220	; 0xdc
 8003f9e:	f002 fb17 	bl	80065d0 <putchar>

	gotoxy(107,44);
 8003fa2:	212c      	movs	r1, #44	; 0x2c
 8003fa4:	206b      	movs	r0, #107	; 0x6b
 8003fa6:	f7fd fe81 	bl	8001cac <gotoxy>
	printf("%c",219);
 8003faa:	20db      	movs	r0, #219	; 0xdb
 8003fac:	f002 fb10 	bl	80065d0 <putchar>

	gotoxy(108,44);
 8003fb0:	212c      	movs	r1, #44	; 0x2c
 8003fb2:	206c      	movs	r0, #108	; 0x6c
 8003fb4:	f7fd fe7a 	bl	8001cac <gotoxy>
	printf("%c",219);
 8003fb8:	20db      	movs	r0, #219	; 0xdb
 8003fba:	f002 fb09 	bl	80065d0 <putchar>
	gotoxy(108,43);
 8003fbe:	212b      	movs	r1, #43	; 0x2b
 8003fc0:	206c      	movs	r0, #108	; 0x6c
 8003fc2:	f7fd fe73 	bl	8001cac <gotoxy>
	printf("%c",219);
 8003fc6:	20db      	movs	r0, #219	; 0xdb
 8003fc8:	f002 fb02 	bl	80065d0 <putchar>

	gotoxy(109,44);
 8003fcc:	212c      	movs	r1, #44	; 0x2c
 8003fce:	206d      	movs	r0, #109	; 0x6d
 8003fd0:	f7fd fe6c 	bl	8001cac <gotoxy>
	printf("%c",220);
 8003fd4:	20dc      	movs	r0, #220	; 0xdc
 8003fd6:	f002 fafb 	bl	80065d0 <putchar>

	gotoxy(112,44);
 8003fda:	212c      	movs	r1, #44	; 0x2c
 8003fdc:	2070      	movs	r0, #112	; 0x70
 8003fde:	f7fd fe65 	bl	8001cac <gotoxy>
	printf("%c",219);
 8003fe2:	20db      	movs	r0, #219	; 0xdb
 8003fe4:	f002 faf4 	bl	80065d0 <putchar>

	gotoxy(113,44);
 8003fe8:	212c      	movs	r1, #44	; 0x2c
 8003fea:	2071      	movs	r0, #113	; 0x71
 8003fec:	f7fd fe5e 	bl	8001cac <gotoxy>
	printf("%c",220);
 8003ff0:	20dc      	movs	r0, #220	; 0xdc
 8003ff2:	f002 faed 	bl	80065d0 <putchar>

	gotoxy(114,44);
 8003ff6:	212c      	movs	r1, #44	; 0x2c
 8003ff8:	2072      	movs	r0, #114	; 0x72
 8003ffa:	f7fd fe57 	bl	8001cac <gotoxy>
	printf("%c",219);
 8003ffe:	20db      	movs	r0, #219	; 0xdb
 8004000:	f002 fae6 	bl	80065d0 <putchar>
	gotoxy(114,43);
 8004004:	212b      	movs	r1, #43	; 0x2b
 8004006:	2072      	movs	r0, #114	; 0x72
 8004008:	f7fd fe50 	bl	8001cac <gotoxy>
	printf("%c",219);
 800400c:	20db      	movs	r0, #219	; 0xdb
 800400e:	f002 fadf 	bl	80065d0 <putchar>

	gotoxy(115,44);
 8004012:	212c      	movs	r1, #44	; 0x2c
 8004014:	2073      	movs	r0, #115	; 0x73
 8004016:	f7fd fe49 	bl	8001cac <gotoxy>
	printf("%c",219);
 800401a:	20db      	movs	r0, #219	; 0xdb
 800401c:	f002 fad8 	bl	80065d0 <putchar>

	gotoxy(120,44);
 8004020:	212c      	movs	r1, #44	; 0x2c
 8004022:	2078      	movs	r0, #120	; 0x78
 8004024:	f7fd fe42 	bl	8001cac <gotoxy>
	printf("%c",47);
 8004028:	202f      	movs	r0, #47	; 0x2f
 800402a:	f002 fad1 	bl	80065d0 <putchar>
	gotoxy(121,43);
 800402e:	212b      	movs	r1, #43	; 0x2b
 8004030:	2079      	movs	r0, #121	; 0x79
 8004032:	f7fd fe3b 	bl	8001cac <gotoxy>
	printf("%c",47);
 8004036:	202f      	movs	r0, #47	; 0x2f
 8004038:	f002 faca 	bl	80065d0 <putchar>
	gotoxy(122,43);
 800403c:	212b      	movs	r1, #43	; 0x2b
 800403e:	207a      	movs	r0, #122	; 0x7a
 8004040:	f7fd fe34 	bl	8001cac <gotoxy>
	printf("%c",223);
 8004044:	20df      	movs	r0, #223	; 0xdf
 8004046:	f002 fac3 	bl	80065d0 <putchar>
	gotoxy(122,42);
 800404a:	212a      	movs	r1, #42	; 0x2a
 800404c:	207a      	movs	r0, #122	; 0x7a
 800404e:	f7fd fe2d 	bl	8001cac <gotoxy>
	printf("%c",168);
 8004052:	20a8      	movs	r0, #168	; 0xa8
 8004054:	f002 fabc 	bl	80065d0 <putchar>
	gotoxy(123,43);
 8004058:	212b      	movs	r1, #43	; 0x2b
 800405a:	207b      	movs	r0, #123	; 0x7b
 800405c:	f7fd fe26 	bl	8001cac <gotoxy>
	printf("%c",92);
 8004060:	205c      	movs	r0, #92	; 0x5c
 8004062:	f002 fab5 	bl	80065d0 <putchar>
	gotoxy(124,44);
 8004066:	212c      	movs	r1, #44	; 0x2c
 8004068:	207c      	movs	r0, #124	; 0x7c
 800406a:	f7fd fe1f 	bl	8001cac <gotoxy>
	printf("%c",92);
 800406e:	205c      	movs	r0, #92	; 0x5c
 8004070:	f002 faae 	bl	80065d0 <putchar>

	gotoxy(127,44);
 8004074:	212c      	movs	r1, #44	; 0x2c
 8004076:	207f      	movs	r0, #127	; 0x7f
 8004078:	f7fd fe18 	bl	8001cac <gotoxy>
	printf("%c",219);
 800407c:	20db      	movs	r0, #219	; 0xdb
 800407e:	f002 faa7 	bl	80065d0 <putchar>
	gotoxy(127,43);
 8004082:	212b      	movs	r1, #43	; 0x2b
 8004084:	207f      	movs	r0, #127	; 0x7f
 8004086:	f7fd fe11 	bl	8001cac <gotoxy>
	printf("%c",219);
 800408a:	20db      	movs	r0, #219	; 0xdb
 800408c:	f002 faa0 	bl	80065d0 <putchar>
	gotoxy(127,42);
 8004090:	212a      	movs	r1, #42	; 0x2a
 8004092:	207f      	movs	r0, #127	; 0x7f
 8004094:	f7fd fe0a 	bl	8001cac <gotoxy>
	printf("%c",219);
 8004098:	20db      	movs	r0, #219	; 0xdb
 800409a:	f002 fa99 	bl	80065d0 <putchar>

	gotoxy(129,44);
 800409e:	212c      	movs	r1, #44	; 0x2c
 80040a0:	2081      	movs	r0, #129	; 0x81
 80040a2:	f7fd fe03 	bl	8001cac <gotoxy>
	printf("%c",219);
 80040a6:	20db      	movs	r0, #219	; 0xdb
 80040a8:	f002 fa92 	bl	80065d0 <putchar>
	gotoxy(129,43);
 80040ac:	212b      	movs	r1, #43	; 0x2b
 80040ae:	2081      	movs	r0, #129	; 0x81
 80040b0:	f7fd fdfc 	bl	8001cac <gotoxy>
	printf("%c",220);
 80040b4:	20dc      	movs	r0, #220	; 0xdc
 80040b6:	f002 fa8b 	bl	80065d0 <putchar>

	gotoxy(130,44);
 80040ba:	212c      	movs	r1, #44	; 0x2c
 80040bc:	2082      	movs	r0, #130	; 0x82
 80040be:	f7fd fdf5 	bl	8001cac <gotoxy>
	printf("%c",219);
 80040c2:	20db      	movs	r0, #219	; 0xdb
 80040c4:	f002 fa84 	bl	80065d0 <putchar>

	gotoxy(131,44);
 80040c8:	212c      	movs	r1, #44	; 0x2c
 80040ca:	2083      	movs	r0, #131	; 0x83
 80040cc:	f7fd fdee 	bl	8001cac <gotoxy>
	printf("%c",220);
 80040d0:	20dc      	movs	r0, #220	; 0xdc
 80040d2:	f002 fa7d 	bl	80065d0 <putchar>

	gotoxy(132,44);
 80040d6:	212c      	movs	r1, #44	; 0x2c
 80040d8:	2084      	movs	r0, #132	; 0x84
 80040da:	f7fd fde7 	bl	8001cac <gotoxy>
	printf("%c",219);
 80040de:	20db      	movs	r0, #219	; 0xdb
 80040e0:	f002 fa76 	bl	80065d0 <putchar>

	gotoxy(133,44);
 80040e4:	212c      	movs	r1, #44	; 0x2c
 80040e6:	2085      	movs	r0, #133	; 0x85
 80040e8:	f7fd fde0 	bl	8001cac <gotoxy>
	printf("%c",219);
 80040ec:	20db      	movs	r0, #219	; 0xdb
 80040ee:	f002 fa6f 	bl	80065d0 <putchar>
	gotoxy(133,43);
 80040f2:	212b      	movs	r1, #43	; 0x2b
 80040f4:	2085      	movs	r0, #133	; 0x85
 80040f6:	f7fd fdd9 	bl	8001cac <gotoxy>
	printf("%c",219);
 80040fa:	20db      	movs	r0, #219	; 0xdb
 80040fc:	f002 fa68 	bl	80065d0 <putchar>

	gotoxy(134,44);
 8004100:	212c      	movs	r1, #44	; 0x2c
 8004102:	2086      	movs	r0, #134	; 0x86
 8004104:	f7fd fdd2 	bl	8001cac <gotoxy>
	printf("%c",219);
 8004108:	20db      	movs	r0, #219	; 0xdb
 800410a:	f002 fa61 	bl	80065d0 <putchar>

	gotoxy(135,44);
 800410e:	212c      	movs	r1, #44	; 0x2c
 8004110:	2087      	movs	r0, #135	; 0x87
 8004112:	f7fd fdcb 	bl	8001cac <gotoxy>
	printf("%c",220);
 8004116:	20dc      	movs	r0, #220	; 0xdc
 8004118:	f002 fa5a 	bl	80065d0 <putchar>

	gotoxy(137,44);
 800411c:	212c      	movs	r1, #44	; 0x2c
 800411e:	2089      	movs	r0, #137	; 0x89
 8004120:	f7fd fdc4 	bl	8001cac <gotoxy>
	printf("%c",220);
 8004124:	20dc      	movs	r0, #220	; 0xdc
 8004126:	f002 fa53 	bl	80065d0 <putchar>

	gotoxy(139,44);
 800412a:	212c      	movs	r1, #44	; 0x2c
 800412c:	208b      	movs	r0, #139	; 0x8b
 800412e:	f7fd fdbd 	bl	8001cac <gotoxy>
	printf("%c",220);
 8004132:	20dc      	movs	r0, #220	; 0xdc
 8004134:	f002 fa4c 	bl	80065d0 <putchar>

	gotoxy(141,44);
 8004138:	212c      	movs	r1, #44	; 0x2c
 800413a:	208d      	movs	r0, #141	; 0x8d
 800413c:	f7fd fdb6 	bl	8001cac <gotoxy>
	printf("%c",219);
 8004140:	20db      	movs	r0, #219	; 0xdb
 8004142:	f002 fa45 	bl	80065d0 <putchar>

	gotoxy(142,44);
 8004146:	212c      	movs	r1, #44	; 0x2c
 8004148:	208e      	movs	r0, #142	; 0x8e
 800414a:	f7fd fdaf 	bl	8001cac <gotoxy>
	printf("%c",220);
 800414e:	20dc      	movs	r0, #220	; 0xdc
 8004150:	f002 fa3e 	bl	80065d0 <putchar>
}
 8004154:	bf00      	nop
 8004156:	bd80      	pop	{r7, pc}

08004158 <drawScore>:
/**
  * @brief Writes the score and level at top right level of screen
  * @param  the current state of the game
  * @retval None
  */
void drawScore(gameState_t* gameState){
 8004158:	b580      	push	{r7, lr}
 800415a:	b082      	sub	sp, #8
 800415c:	af00      	add	r7, sp, #0
 800415e:	6078      	str	r0, [r7, #4]
	gotoxy(140, 0);
 8004160:	2100      	movs	r1, #0
 8004162:	208c      	movs	r0, #140	; 0x8c
 8004164:	f7fd fda2 	bl	8001cac <gotoxy>
	printf("Your score is: %d", gameState->score);
 8004168:	687b      	ldr	r3, [r7, #4]
 800416a:	8e5b      	ldrh	r3, [r3, #50]	; 0x32
 800416c:	4619      	mov	r1, r3
 800416e:	480d      	ldr	r0, [pc, #52]	; (80041a4 <drawScore+0x4c>)
 8004170:	f002 fa16 	bl	80065a0 <iprintf>
	gotoxy(140,1*yScale);
 8004174:	2102      	movs	r1, #2
 8004176:	208c      	movs	r0, #140	; 0x8c
 8004178:	f7fd fd98 	bl	8001cac <gotoxy>
	printf("Level: %d", gameState->score/100 + gameState->difficulty);
 800417c:	687b      	ldr	r3, [r7, #4]
 800417e:	8e5b      	ldrh	r3, [r3, #50]	; 0x32
 8004180:	4a09      	ldr	r2, [pc, #36]	; (80041a8 <drawScore+0x50>)
 8004182:	fba2 2303 	umull	r2, r3, r2, r3
 8004186:	095b      	lsrs	r3, r3, #5
 8004188:	b29b      	uxth	r3, r3
 800418a:	461a      	mov	r2, r3
 800418c:	687b      	ldr	r3, [r7, #4]
 800418e:	f893 3039 	ldrb.w	r3, [r3, #57]	; 0x39
 8004192:	4413      	add	r3, r2
 8004194:	4619      	mov	r1, r3
 8004196:	4805      	ldr	r0, [pc, #20]	; (80041ac <drawScore+0x54>)
 8004198:	f002 fa02 	bl	80065a0 <iprintf>
}
 800419c:	bf00      	nop
 800419e:	3708      	adds	r7, #8
 80041a0:	46bd      	mov	sp, r7
 80041a2:	bd80      	pop	{r7, pc}
 80041a4:	08007874 	.word	0x08007874
 80041a8:	51eb851f 	.word	0x51eb851f
 80041ac:	08007888 	.word	0x08007888

080041b0 <drawMe>:
/**
  * @brief Draws the player at some coordinates
  * @param  X: x-coordinate, Y: y-coordinate
  * @retval None
  */
void drawMe(uint8_t X, uint8_t Y){
 80041b0:	b580      	push	{r7, lr}
 80041b2:	b082      	sub	sp, #8
 80041b4:	af00      	add	r7, sp, #0
 80041b6:	4603      	mov	r3, r0
 80041b8:	460a      	mov	r2, r1
 80041ba:	71fb      	strb	r3, [r7, #7]
 80041bc:	4613      	mov	r3, r2
 80041be:	71bb      	strb	r3, [r7, #6]
	gotoxy(X,Y);
 80041c0:	79fb      	ldrb	r3, [r7, #7]
 80041c2:	79ba      	ldrb	r2, [r7, #6]
 80041c4:	4611      	mov	r1, r2
 80041c6:	4618      	mov	r0, r3
 80041c8:	f7fd fd70 	bl	8001cac <gotoxy>
	printf("%c",219);
 80041cc:	20db      	movs	r0, #219	; 0xdb
 80041ce:	f002 f9ff 	bl	80065d0 <putchar>
	gotoxy(X-1,Y);
 80041d2:	79fb      	ldrb	r3, [r7, #7]
 80041d4:	3b01      	subs	r3, #1
 80041d6:	79ba      	ldrb	r2, [r7, #6]
 80041d8:	4611      	mov	r1, r2
 80041da:	4618      	mov	r0, r3
 80041dc:	f7fd fd66 	bl	8001cac <gotoxy>
	printf("%c",220);
 80041e0:	20dc      	movs	r0, #220	; 0xdc
 80041e2:	f002 f9f5 	bl	80065d0 <putchar>
	gotoxy(X+1,Y);
 80041e6:	79fb      	ldrb	r3, [r7, #7]
 80041e8:	3301      	adds	r3, #1
 80041ea:	79ba      	ldrb	r2, [r7, #6]
 80041ec:	4611      	mov	r1, r2
 80041ee:	4618      	mov	r0, r3
 80041f0:	f7fd fd5c 	bl	8001cac <gotoxy>
	printf("%c",220);
 80041f4:	20dc      	movs	r0, #220	; 0xdc
 80041f6:	f002 f9eb 	bl	80065d0 <putchar>
	gotoxy(X-1,Y+1);
 80041fa:	79fb      	ldrb	r3, [r7, #7]
 80041fc:	1e5a      	subs	r2, r3, #1
 80041fe:	79bb      	ldrb	r3, [r7, #6]
 8004200:	3301      	adds	r3, #1
 8004202:	4619      	mov	r1, r3
 8004204:	4610      	mov	r0, r2
 8004206:	f7fd fd51 	bl	8001cac <gotoxy>
	printf("%c",223);
 800420a:	20df      	movs	r0, #223	; 0xdf
 800420c:	f002 f9e0 	bl	80065d0 <putchar>
	gotoxy(X+1,Y+1);
 8004210:	79fb      	ldrb	r3, [r7, #7]
 8004212:	1c5a      	adds	r2, r3, #1
 8004214:	79bb      	ldrb	r3, [r7, #6]
 8004216:	3301      	adds	r3, #1
 8004218:	4619      	mov	r1, r3
 800421a:	4610      	mov	r0, r2
 800421c:	f7fd fd46 	bl	8001cac <gotoxy>
	printf("%c",223);
 8004220:	20df      	movs	r0, #223	; 0xdf
 8004222:	f002 f9d5 	bl	80065d0 <putchar>
	gotoxy(X,Y-1);
 8004226:	79fa      	ldrb	r2, [r7, #7]
 8004228:	79bb      	ldrb	r3, [r7, #6]
 800422a:	3b01      	subs	r3, #1
 800422c:	4619      	mov	r1, r3
 800422e:	4610      	mov	r0, r2
 8004230:	f7fd fd3c 	bl	8001cac <gotoxy>
	printf("%c",179);
 8004234:	20b3      	movs	r0, #179	; 0xb3
 8004236:	f002 f9cb 	bl	80065d0 <putchar>
}
 800423a:	bf00      	nop
 800423c:	3708      	adds	r7, #8
 800423e:	46bd      	mov	sp, r7
 8004240:	bd80      	pop	{r7, pc}

08004242 <deleteMe>:
/**
  * @brief Erases the player at some coordinates
  * @param  X: x-coordinate, Y: y-coordinate
  * @retval None
  */
void deleteMe(uint8_t X, uint8_t Y){
 8004242:	b580      	push	{r7, lr}
 8004244:	b082      	sub	sp, #8
 8004246:	af00      	add	r7, sp, #0
 8004248:	4603      	mov	r3, r0
 800424a:	460a      	mov	r2, r1
 800424c:	71fb      	strb	r3, [r7, #7]
 800424e:	4613      	mov	r3, r2
 8004250:	71bb      	strb	r3, [r7, #6]
	gotoxy(X,Y);
 8004252:	79fb      	ldrb	r3, [r7, #7]
 8004254:	79ba      	ldrb	r2, [r7, #6]
 8004256:	4611      	mov	r1, r2
 8004258:	4618      	mov	r0, r3
 800425a:	f7fd fd27 	bl	8001cac <gotoxy>
	printf(" ");
 800425e:	2020      	movs	r0, #32
 8004260:	f002 f9b6 	bl	80065d0 <putchar>
	gotoxy(X-1,Y);
 8004264:	79fb      	ldrb	r3, [r7, #7]
 8004266:	3b01      	subs	r3, #1
 8004268:	79ba      	ldrb	r2, [r7, #6]
 800426a:	4611      	mov	r1, r2
 800426c:	4618      	mov	r0, r3
 800426e:	f7fd fd1d 	bl	8001cac <gotoxy>
	printf(" ");
 8004272:	2020      	movs	r0, #32
 8004274:	f002 f9ac 	bl	80065d0 <putchar>
	gotoxy(X+1,Y);
 8004278:	79fb      	ldrb	r3, [r7, #7]
 800427a:	3301      	adds	r3, #1
 800427c:	79ba      	ldrb	r2, [r7, #6]
 800427e:	4611      	mov	r1, r2
 8004280:	4618      	mov	r0, r3
 8004282:	f7fd fd13 	bl	8001cac <gotoxy>
	printf(" ");
 8004286:	2020      	movs	r0, #32
 8004288:	f002 f9a2 	bl	80065d0 <putchar>
	gotoxy(X-1,Y+1);
 800428c:	79fb      	ldrb	r3, [r7, #7]
 800428e:	1e5a      	subs	r2, r3, #1
 8004290:	79bb      	ldrb	r3, [r7, #6]
 8004292:	3301      	adds	r3, #1
 8004294:	4619      	mov	r1, r3
 8004296:	4610      	mov	r0, r2
 8004298:	f7fd fd08 	bl	8001cac <gotoxy>
	printf(" ");
 800429c:	2020      	movs	r0, #32
 800429e:	f002 f997 	bl	80065d0 <putchar>
	gotoxy(X+1,Y+1);
 80042a2:	79fb      	ldrb	r3, [r7, #7]
 80042a4:	1c5a      	adds	r2, r3, #1
 80042a6:	79bb      	ldrb	r3, [r7, #6]
 80042a8:	3301      	adds	r3, #1
 80042aa:	4619      	mov	r1, r3
 80042ac:	4610      	mov	r0, r2
 80042ae:	f7fd fcfd 	bl	8001cac <gotoxy>
	printf(" ");
 80042b2:	2020      	movs	r0, #32
 80042b4:	f002 f98c 	bl	80065d0 <putchar>

	gotoxy(X,Y-1);
 80042b8:	79fa      	ldrb	r2, [r7, #7]
 80042ba:	79bb      	ldrb	r3, [r7, #6]
 80042bc:	3b01      	subs	r3, #1
 80042be:	4619      	mov	r1, r3
 80042c0:	4610      	mov	r0, r2
 80042c2:	f7fd fcf3 	bl	8001cac <gotoxy>
	printf(" ");
 80042c6:	2020      	movs	r0, #32
 80042c8:	f002 f982 	bl	80065d0 <putchar>
}
 80042cc:	bf00      	nop
 80042ce:	3708      	adds	r7, #8
 80042d0:	46bd      	mov	sp, r7
 80042d2:	bd80      	pop	{r7, pc}

080042d4 <drawAttachmentRods>:
/**
  * @brief Draws the attachments for the player
  * @param  X: x-coordinate of player, Y: y-coordinate of player
  * @retval None
  */
void drawAttachmentRods(uint8_t x, uint8_t y){
 80042d4:	b580      	push	{r7, lr}
 80042d6:	b082      	sub	sp, #8
 80042d8:	af00      	add	r7, sp, #0
 80042da:	4603      	mov	r3, r0
 80042dc:	460a      	mov	r2, r1
 80042de:	71fb      	strb	r3, [r7, #7]
 80042e0:	4613      	mov	r3, r2
 80042e2:	71bb      	strb	r3, [r7, #6]
	gotoxy(x+2, y);
 80042e4:	79fb      	ldrb	r3, [r7, #7]
 80042e6:	3302      	adds	r3, #2
 80042e8:	79ba      	ldrb	r2, [r7, #6]
 80042ea:	4611      	mov	r1, r2
 80042ec:	4618      	mov	r0, r3
 80042ee:	f7fd fcdd 	bl	8001cac <gotoxy>
	printf("____");
 80042f2:	4808      	ldr	r0, [pc, #32]	; (8004314 <drawAttachmentRods+0x40>)
 80042f4:	f002 f954 	bl	80065a0 <iprintf>
	gotoxy(x-5, y);
 80042f8:	79fb      	ldrb	r3, [r7, #7]
 80042fa:	3b05      	subs	r3, #5
 80042fc:	79ba      	ldrb	r2, [r7, #6]
 80042fe:	4611      	mov	r1, r2
 8004300:	4618      	mov	r0, r3
 8004302:	f7fd fcd3 	bl	8001cac <gotoxy>
	printf("____");
 8004306:	4803      	ldr	r0, [pc, #12]	; (8004314 <drawAttachmentRods+0x40>)
 8004308:	f002 f94a 	bl	80065a0 <iprintf>
}
 800430c:	bf00      	nop
 800430e:	3708      	adds	r7, #8
 8004310:	46bd      	mov	sp, r7
 8004312:	bd80      	pop	{r7, pc}
 8004314:	08007894 	.word	0x08007894

08004318 <deleteAttachmentRods>:
/**
  * @brief Deletes the attachments for the player
  * @param  X: x-coordinate of player, Y: y-coordinate of player
  * @retval None
  */
void deleteAttachmentRods(uint8_t x, uint8_t y){
 8004318:	b580      	push	{r7, lr}
 800431a:	b082      	sub	sp, #8
 800431c:	af00      	add	r7, sp, #0
 800431e:	4603      	mov	r3, r0
 8004320:	460a      	mov	r2, r1
 8004322:	71fb      	strb	r3, [r7, #7]
 8004324:	4613      	mov	r3, r2
 8004326:	71bb      	strb	r3, [r7, #6]
	gotoxy(x+2, y);
 8004328:	79fb      	ldrb	r3, [r7, #7]
 800432a:	3302      	adds	r3, #2
 800432c:	79ba      	ldrb	r2, [r7, #6]
 800432e:	4611      	mov	r1, r2
 8004330:	4618      	mov	r0, r3
 8004332:	f7fd fcbb 	bl	8001cac <gotoxy>
	printf("    ");
 8004336:	4808      	ldr	r0, [pc, #32]	; (8004358 <deleteAttachmentRods+0x40>)
 8004338:	f002 f932 	bl	80065a0 <iprintf>
	gotoxy(x-5, y);
 800433c:	79fb      	ldrb	r3, [r7, #7]
 800433e:	3b05      	subs	r3, #5
 8004340:	79ba      	ldrb	r2, [r7, #6]
 8004342:	4611      	mov	r1, r2
 8004344:	4618      	mov	r0, r3
 8004346:	f7fd fcb1 	bl	8001cac <gotoxy>
	printf("    ");
 800434a:	4803      	ldr	r0, [pc, #12]	; (8004358 <deleteAttachmentRods+0x40>)
 800434c:	f002 f928 	bl	80065a0 <iprintf>
}
 8004350:	bf00      	nop
 8004352:	3708      	adds	r7, #8
 8004354:	46bd      	mov	sp, r7
 8004356:	bd80      	pop	{r7, pc}
 8004358:	0800789c 	.word	0x0800789c

0800435c <drawPowerupGraphics>:
/**
  * @brief Draws the powerup
  * @param  X: x-coordinate of the powerup, Y: y-coordinate of the powerup
  * @retval None
  */
void drawPowerupGraphics(uint8_t x, uint8_t y){
 800435c:	b590      	push	{r4, r7, lr}
 800435e:	b085      	sub	sp, #20
 8004360:	af02      	add	r7, sp, #8
 8004362:	4603      	mov	r3, r0
 8004364:	460a      	mov	r2, r1
 8004366:	71fb      	strb	r3, [r7, #7]
 8004368:	4613      	mov	r3, r2
 800436a:	71bb      	strb	r3, [r7, #6]
 drawBox(x, y, x+4, y+2, 1);
 800436c:	79f8      	ldrb	r0, [r7, #7]
 800436e:	79b9      	ldrb	r1, [r7, #6]
 8004370:	79fb      	ldrb	r3, [r7, #7]
 8004372:	1d1a      	adds	r2, r3, #4
 8004374:	79bb      	ldrb	r3, [r7, #6]
 8004376:	3302      	adds	r3, #2
 8004378:	2401      	movs	r4, #1
 800437a:	9400      	str	r4, [sp, #0]
 800437c:	f7fd fca8 	bl	8001cd0 <drawBox>
 gotoxy(x+2, y+1);
 8004380:	79fb      	ldrb	r3, [r7, #7]
 8004382:	1c9a      	adds	r2, r3, #2
 8004384:	79bb      	ldrb	r3, [r7, #6]
 8004386:	3301      	adds	r3, #1
 8004388:	4619      	mov	r1, r3
 800438a:	4610      	mov	r0, r2
 800438c:	f7fd fc8e 	bl	8001cac <gotoxy>
 printf("$");
 8004390:	2024      	movs	r0, #36	; 0x24
 8004392:	f002 f91d 	bl	80065d0 <putchar>
}
 8004396:	bf00      	nop
 8004398:	370c      	adds	r7, #12
 800439a:	46bd      	mov	sp, r7
 800439c:	bd90      	pop	{r4, r7, pc}
	...

080043a0 <deletePowerupGraphics>:
/**
  * @brief Deletes the powerup
  * @param  X: x-coordinate of the powerup, Y: y-coordinate of the powerup
  * @retval None
  */
void deletePowerupGraphics(uint8_t x, uint8_t y){
 80043a0:	b580      	push	{r7, lr}
 80043a2:	b082      	sub	sp, #8
 80043a4:	af00      	add	r7, sp, #0
 80043a6:	4603      	mov	r3, r0
 80043a8:	460a      	mov	r2, r1
 80043aa:	71fb      	strb	r3, [r7, #7]
 80043ac:	4613      	mov	r3, r2
 80043ae:	71bb      	strb	r3, [r7, #6]
	gotoxy(x, y);
 80043b0:	79fb      	ldrb	r3, [r7, #7]
 80043b2:	79ba      	ldrb	r2, [r7, #6]
 80043b4:	4611      	mov	r1, r2
 80043b6:	4618      	mov	r0, r3
 80043b8:	f7fd fc78 	bl	8001cac <gotoxy>
	printf("     ");
 80043bc:	480d      	ldr	r0, [pc, #52]	; (80043f4 <deletePowerupGraphics+0x54>)
 80043be:	f002 f8ef 	bl	80065a0 <iprintf>
	gotoxy(x, y+1);
 80043c2:	79fa      	ldrb	r2, [r7, #7]
 80043c4:	79bb      	ldrb	r3, [r7, #6]
 80043c6:	3301      	adds	r3, #1
 80043c8:	4619      	mov	r1, r3
 80043ca:	4610      	mov	r0, r2
 80043cc:	f7fd fc6e 	bl	8001cac <gotoxy>
	printf("     ");
 80043d0:	4808      	ldr	r0, [pc, #32]	; (80043f4 <deletePowerupGraphics+0x54>)
 80043d2:	f002 f8e5 	bl	80065a0 <iprintf>
	gotoxy(x, y+2);
 80043d6:	79fa      	ldrb	r2, [r7, #7]
 80043d8:	79bb      	ldrb	r3, [r7, #6]
 80043da:	3302      	adds	r3, #2
 80043dc:	4619      	mov	r1, r3
 80043de:	4610      	mov	r0, r2
 80043e0:	f7fd fc64 	bl	8001cac <gotoxy>
	printf("     ");
 80043e4:	4803      	ldr	r0, [pc, #12]	; (80043f4 <deletePowerupGraphics+0x54>)
 80043e6:	f002 f8db 	bl	80065a0 <iprintf>

}
 80043ea:	bf00      	nop
 80043ec:	3708      	adds	r7, #8
 80043ee:	46bd      	mov	sp, r7
 80043f0:	bd80      	pop	{r7, pc}
 80043f2:	bf00      	nop
 80043f4:	080078a4 	.word	0x080078a4

080043f8 <drawNuke>:
/**
  * @brief Draws the nuke
  * @param  gameState: the current state of the game
  * @retval None
  */
void drawNuke(gameState_t* gameState){
 80043f8:	b590      	push	{r4, r7, lr}
 80043fa:	b083      	sub	sp, #12
 80043fc:	af00      	add	r7, sp, #0
 80043fe:	6078      	str	r0, [r7, #4]
	if(gameState->nuke->isDeployed == 1){
 8004400:	687b      	ldr	r3, [r7, #4]
 8004402:	6adb      	ldr	r3, [r3, #44]	; 0x2c
 8004404:	7e1b      	ldrb	r3, [r3, #24]
 8004406:	2b01      	cmp	r3, #1
 8004408:	f040 809e 	bne.w	8004548 <drawNuke+0x150>
		gotoxy(fpToInt(gameState->nuke->position.x),(fpToInt(gameState->nuke->position.y)) / yScale);
 800440c:	687b      	ldr	r3, [r7, #4]
 800440e:	6adb      	ldr	r3, [r3, #44]	; 0x2c
 8004410:	681b      	ldr	r3, [r3, #0]
 8004412:	4618      	mov	r0, r3
 8004414:	f7fe ffd0 	bl	80033b8 <fpToInt>
 8004418:	4604      	mov	r4, r0
 800441a:	687b      	ldr	r3, [r7, #4]
 800441c:	6adb      	ldr	r3, [r3, #44]	; 0x2c
 800441e:	685b      	ldr	r3, [r3, #4]
 8004420:	4618      	mov	r0, r3
 8004422:	f7fe ffc9 	bl	80033b8 <fpToInt>
 8004426:	4603      	mov	r3, r0
 8004428:	0fda      	lsrs	r2, r3, #31
 800442a:	4413      	add	r3, r2
 800442c:	105b      	asrs	r3, r3, #1
 800442e:	4619      	mov	r1, r3
 8004430:	4620      	mov	r0, r4
 8004432:	f7fd fc3b 	bl	8001cac <gotoxy>
		printf("     ");
 8004436:	4846      	ldr	r0, [pc, #280]	; (8004550 <drawNuke+0x158>)
 8004438:	f002 f8b2 	bl	80065a0 <iprintf>
		gotoxy(fpToInt(gameState->nuke->position.x),(fpToInt(gameState->nuke->position.y) + 1 * yScale) / yScale);
 800443c:	687b      	ldr	r3, [r7, #4]
 800443e:	6adb      	ldr	r3, [r3, #44]	; 0x2c
 8004440:	681b      	ldr	r3, [r3, #0]
 8004442:	4618      	mov	r0, r3
 8004444:	f7fe ffb8 	bl	80033b8 <fpToInt>
 8004448:	4604      	mov	r4, r0
 800444a:	687b      	ldr	r3, [r7, #4]
 800444c:	6adb      	ldr	r3, [r3, #44]	; 0x2c
 800444e:	685b      	ldr	r3, [r3, #4]
 8004450:	4618      	mov	r0, r3
 8004452:	f7fe ffb1 	bl	80033b8 <fpToInt>
 8004456:	4603      	mov	r3, r0
 8004458:	3302      	adds	r3, #2
 800445a:	0fda      	lsrs	r2, r3, #31
 800445c:	4413      	add	r3, r2
 800445e:	105b      	asrs	r3, r3, #1
 8004460:	4619      	mov	r1, r3
 8004462:	4620      	mov	r0, r4
 8004464:	f7fd fc22 	bl	8001cac <gotoxy>
		printf("     ");
 8004468:	4839      	ldr	r0, [pc, #228]	; (8004550 <drawNuke+0x158>)
 800446a:	f002 f899 	bl	80065a0 <iprintf>
		gotoxy(fpToInt(gameState->nuke->position.x),(fpToInt(gameState->nuke->position.y) + 2 * yScale) / yScale);
 800446e:	687b      	ldr	r3, [r7, #4]
 8004470:	6adb      	ldr	r3, [r3, #44]	; 0x2c
 8004472:	681b      	ldr	r3, [r3, #0]
 8004474:	4618      	mov	r0, r3
 8004476:	f7fe ff9f 	bl	80033b8 <fpToInt>
 800447a:	4604      	mov	r4, r0
 800447c:	687b      	ldr	r3, [r7, #4]
 800447e:	6adb      	ldr	r3, [r3, #44]	; 0x2c
 8004480:	685b      	ldr	r3, [r3, #4]
 8004482:	4618      	mov	r0, r3
 8004484:	f7fe ff98 	bl	80033b8 <fpToInt>
 8004488:	4603      	mov	r3, r0
 800448a:	3304      	adds	r3, #4
 800448c:	0fda      	lsrs	r2, r3, #31
 800448e:	4413      	add	r3, r2
 8004490:	105b      	asrs	r3, r3, #1
 8004492:	4619      	mov	r1, r3
 8004494:	4620      	mov	r0, r4
 8004496:	f7fd fc09 	bl	8001cac <gotoxy>
		printf("     ");
 800449a:	482d      	ldr	r0, [pc, #180]	; (8004550 <drawNuke+0x158>)
 800449c:	f002 f880 	bl	80065a0 <iprintf>

		gotoxy(fpToInt(gameState->nuke->nextPosition.x),fpToInt(gameState->nuke->nextPosition.y) / yScale);
 80044a0:	687b      	ldr	r3, [r7, #4]
 80044a2:	6adb      	ldr	r3, [r3, #44]	; 0x2c
 80044a4:	689b      	ldr	r3, [r3, #8]
 80044a6:	4618      	mov	r0, r3
 80044a8:	f7fe ff86 	bl	80033b8 <fpToInt>
 80044ac:	4604      	mov	r4, r0
 80044ae:	687b      	ldr	r3, [r7, #4]
 80044b0:	6adb      	ldr	r3, [r3, #44]	; 0x2c
 80044b2:	68db      	ldr	r3, [r3, #12]
 80044b4:	4618      	mov	r0, r3
 80044b6:	f7fe ff7f 	bl	80033b8 <fpToInt>
 80044ba:	4603      	mov	r3, r0
 80044bc:	0fda      	lsrs	r2, r3, #31
 80044be:	4413      	add	r3, r2
 80044c0:	105b      	asrs	r3, r3, #1
 80044c2:	4619      	mov	r1, r3
 80044c4:	4620      	mov	r0, r4
 80044c6:	f7fd fbf1 	bl	8001cac <gotoxy>
		printf("  |  ");
 80044ca:	4822      	ldr	r0, [pc, #136]	; (8004554 <drawNuke+0x15c>)
 80044cc:	f002 f868 	bl	80065a0 <iprintf>
		gotoxy(fpToInt(gameState->nuke->nextPosition.x),(fpToInt(gameState->nuke->nextPosition.y) + 1 * yScale) / yScale);
 80044d0:	687b      	ldr	r3, [r7, #4]
 80044d2:	6adb      	ldr	r3, [r3, #44]	; 0x2c
 80044d4:	689b      	ldr	r3, [r3, #8]
 80044d6:	4618      	mov	r0, r3
 80044d8:	f7fe ff6e 	bl	80033b8 <fpToInt>
 80044dc:	4604      	mov	r4, r0
 80044de:	687b      	ldr	r3, [r7, #4]
 80044e0:	6adb      	ldr	r3, [r3, #44]	; 0x2c
 80044e2:	68db      	ldr	r3, [r3, #12]
 80044e4:	4618      	mov	r0, r3
 80044e6:	f7fe ff67 	bl	80033b8 <fpToInt>
 80044ea:	4603      	mov	r3, r0
 80044ec:	3302      	adds	r3, #2
 80044ee:	0fda      	lsrs	r2, r3, #31
 80044f0:	4413      	add	r3, r2
 80044f2:	105b      	asrs	r3, r3, #1
 80044f4:	4619      	mov	r1, r3
 80044f6:	4620      	mov	r0, r4
 80044f8:	f7fd fbd8 	bl	8001cac <gotoxy>
		printf("- o -");
 80044fc:	4816      	ldr	r0, [pc, #88]	; (8004558 <drawNuke+0x160>)
 80044fe:	f002 f84f 	bl	80065a0 <iprintf>
		gotoxy(fpToInt(gameState->nuke->nextPosition.x),(fpToInt(gameState->nuke->nextPosition.y) + 2 * yScale) / yScale);
 8004502:	687b      	ldr	r3, [r7, #4]
 8004504:	6adb      	ldr	r3, [r3, #44]	; 0x2c
 8004506:	689b      	ldr	r3, [r3, #8]
 8004508:	4618      	mov	r0, r3
 800450a:	f7fe ff55 	bl	80033b8 <fpToInt>
 800450e:	4604      	mov	r4, r0
 8004510:	687b      	ldr	r3, [r7, #4]
 8004512:	6adb      	ldr	r3, [r3, #44]	; 0x2c
 8004514:	68db      	ldr	r3, [r3, #12]
 8004516:	4618      	mov	r0, r3
 8004518:	f7fe ff4e 	bl	80033b8 <fpToInt>
 800451c:	4603      	mov	r3, r0
 800451e:	3304      	adds	r3, #4
 8004520:	0fda      	lsrs	r2, r3, #31
 8004522:	4413      	add	r3, r2
 8004524:	105b      	asrs	r3, r3, #1
 8004526:	4619      	mov	r1, r3
 8004528:	4620      	mov	r0, r4
 800452a:	f7fd fbbf 	bl	8001cac <gotoxy>
		printf(" / %c ", 92);
 800452e:	215c      	movs	r1, #92	; 0x5c
 8004530:	480a      	ldr	r0, [pc, #40]	; (800455c <drawNuke+0x164>)
 8004532:	f002 f835 	bl	80065a0 <iprintf>

		gameState->nuke->position = gameState->nuke->nextPosition;
 8004536:	687b      	ldr	r3, [r7, #4]
 8004538:	6adb      	ldr	r3, [r3, #44]	; 0x2c
 800453a:	687a      	ldr	r2, [r7, #4]
 800453c:	6ad2      	ldr	r2, [r2, #44]	; 0x2c
 800453e:	3308      	adds	r3, #8
 8004540:	e893 0003 	ldmia.w	r3, {r0, r1}
 8004544:	e882 0003 	stmia.w	r2, {r0, r1}
	}
}
 8004548:	bf00      	nop
 800454a:	370c      	adds	r7, #12
 800454c:	46bd      	mov	sp, r7
 800454e:	bd90      	pop	{r4, r7, pc}
 8004550:	080078a4 	.word	0x080078a4
 8004554:	080078ac 	.word	0x080078ac
 8004558:	080078b4 	.word	0x080078b4
 800455c:	080078bc 	.word	0x080078bc

08004560 <drawNukeCircle>:
/**
  * @brief Draws the nuke eksploson
  * @param  gameState: the current state of the game
  * @retval None
  */
void drawNukeCircle(gameState_t* gameState){
 8004560:	b580      	push	{r7, lr}
 8004562:	b084      	sub	sp, #16
 8004564:	af00      	add	r7, sp, #0
 8004566:	6078      	str	r0, [r7, #4]
	uint32_t x = fpToInt(gameState->nuke->position.x);
 8004568:	687b      	ldr	r3, [r7, #4]
 800456a:	6adb      	ldr	r3, [r3, #44]	; 0x2c
 800456c:	681b      	ldr	r3, [r3, #0]
 800456e:	4618      	mov	r0, r3
 8004570:	f7fe ff22 	bl	80033b8 <fpToInt>
 8004574:	4603      	mov	r3, r0
 8004576:	60fb      	str	r3, [r7, #12]
	uint32_t y = fpToInt(gameState->nuke->position.y)/yScale;
 8004578:	687b      	ldr	r3, [r7, #4]
 800457a:	6adb      	ldr	r3, [r3, #44]	; 0x2c
 800457c:	685b      	ldr	r3, [r3, #4]
 800457e:	4618      	mov	r0, r3
 8004580:	f7fe ff1a 	bl	80033b8 <fpToInt>
 8004584:	4603      	mov	r3, r0
 8004586:	0fda      	lsrs	r2, r3, #31
 8004588:	4413      	add	r3, r2
 800458a:	105b      	asrs	r3, r3, #1
 800458c:	60bb      	str	r3, [r7, #8]

	gotoxy(x-15, y-7);
 800458e:	68fb      	ldr	r3, [r7, #12]
 8004590:	3b0f      	subs	r3, #15
 8004592:	461a      	mov	r2, r3
 8004594:	68bb      	ldr	r3, [r7, #8]
 8004596:	3b07      	subs	r3, #7
 8004598:	4619      	mov	r1, r3
 800459a:	4610      	mov	r0, r2
 800459c:	f7fd fb86 	bl	8001cac <gotoxy>
	printf("              ___-------___               \n");
 80045a0:	4874      	ldr	r0, [pc, #464]	; (8004774 <drawNukeCircle+0x214>)
 80045a2:	f002 f899 	bl	80066d8 <puts>
	gotoxy(x-15, y-6);
 80045a6:	68fb      	ldr	r3, [r7, #12]
 80045a8:	3b0f      	subs	r3, #15
 80045aa:	461a      	mov	r2, r3
 80045ac:	68bb      	ldr	r3, [r7, #8]
 80045ae:	3b06      	subs	r3, #6
 80045b0:	4619      	mov	r1, r3
 80045b2:	4610      	mov	r0, r2
 80045b4:	f7fd fb7a 	bl	8001cac <gotoxy>
	printf("           __-             -__            \n");
 80045b8:	486f      	ldr	r0, [pc, #444]	; (8004778 <drawNukeCircle+0x218>)
 80045ba:	f002 f88d 	bl	80066d8 <puts>
	gotoxy(x-15, y-5);
 80045be:	68fb      	ldr	r3, [r7, #12]
 80045c0:	3b0f      	subs	r3, #15
 80045c2:	461a      	mov	r2, r3
 80045c4:	68bb      	ldr	r3, [r7, #8]
 80045c6:	3b05      	subs	r3, #5
 80045c8:	4619      	mov	r1, r3
 80045ca:	4610      	mov	r0, r2
 80045cc:	f7fd fb6e 	bl	8001cac <gotoxy>
	printf("         _-                   -_          \n");
 80045d0:	486a      	ldr	r0, [pc, #424]	; (800477c <drawNukeCircle+0x21c>)
 80045d2:	f002 f881 	bl	80066d8 <puts>
	gotoxy(x-15, y-4);
 80045d6:	68fb      	ldr	r3, [r7, #12]
 80045d8:	3b0f      	subs	r3, #15
 80045da:	461a      	mov	r2, r3
 80045dc:	68bb      	ldr	r3, [r7, #8]
 80045de:	3b04      	subs	r3, #4
 80045e0:	4619      	mov	r1, r3
 80045e2:	4610      	mov	r0, r2
 80045e4:	f7fd fb62 	bl	8001cac <gotoxy>
	printf("       _-                       -_        \n");
 80045e8:	4865      	ldr	r0, [pc, #404]	; (8004780 <drawNukeCircle+0x220>)
 80045ea:	f002 f875 	bl	80066d8 <puts>
	gotoxy(x-15, y-3);
 80045ee:	68fb      	ldr	r3, [r7, #12]
 80045f0:	3b0f      	subs	r3, #15
 80045f2:	461a      	mov	r2, r3
 80045f4:	68bb      	ldr	r3, [r7, #8]
 80045f6:	3b03      	subs	r3, #3
 80045f8:	4619      	mov	r1, r3
 80045fa:	4610      	mov	r0, r2
 80045fc:	f7fd fb56 	bl	8001cac <gotoxy>
	printf("     _-                            -_     \n");
 8004600:	4860      	ldr	r0, [pc, #384]	; (8004784 <drawNukeCircle+0x224>)
 8004602:	f002 f869 	bl	80066d8 <puts>
	gotoxy(x-15, y-2);
 8004606:	68fb      	ldr	r3, [r7, #12]
 8004608:	3b0f      	subs	r3, #15
 800460a:	461a      	mov	r2, r3
 800460c:	68bb      	ldr	r3, [r7, #8]
 800460e:	3b02      	subs	r3, #2
 8004610:	4619      	mov	r1, r3
 8004612:	4610      	mov	r0, r2
 8004614:	f7fd fb4a 	bl	8001cac <gotoxy>
	printf("   _-                                -_   \n");
 8004618:	485b      	ldr	r0, [pc, #364]	; (8004788 <drawNukeCircle+0x228>)
 800461a:	f002 f85d 	bl	80066d8 <puts>
	gotoxy(x-15, y-1);
 800461e:	68fb      	ldr	r3, [r7, #12]
 8004620:	3b0f      	subs	r3, #15
 8004622:	461a      	mov	r2, r3
 8004624:	68bb      	ldr	r3, [r7, #8]
 8004626:	3b01      	subs	r3, #1
 8004628:	4619      	mov	r1, r3
 800462a:	4610      	mov	r0, r2
 800462c:	f7fd fb3e 	bl	8001cac <gotoxy>
	printf("  =                                    =  \n");
 8004630:	4856      	ldr	r0, [pc, #344]	; (800478c <drawNukeCircle+0x22c>)
 8004632:	f002 f851 	bl	80066d8 <puts>
	gotoxy(x-15, y);
 8004636:	68fb      	ldr	r3, [r7, #12]
 8004638:	3b0f      	subs	r3, #15
 800463a:	461a      	mov	r2, r3
 800463c:	68bb      	ldr	r3, [r7, #8]
 800463e:	4619      	mov	r1, r3
 8004640:	4610      	mov	r0, r2
 8004642:	f7fd fb33 	bl	8001cac <gotoxy>
	printf("_-                                      -_\n");
 8004646:	4852      	ldr	r0, [pc, #328]	; (8004790 <drawNukeCircle+0x230>)
 8004648:	f002 f846 	bl	80066d8 <puts>
	gotoxy(x-15, y+1);
 800464c:	68fb      	ldr	r3, [r7, #12]
 800464e:	3b0f      	subs	r3, #15
 8004650:	461a      	mov	r2, r3
 8004652:	68bb      	ldr	r3, [r7, #8]
 8004654:	3301      	adds	r3, #1
 8004656:	4619      	mov	r1, r3
 8004658:	4610      	mov	r0, r2
 800465a:	f7fd fb27 	bl	8001cac <gotoxy>
	printf("=                                        =\n");
 800465e:	484d      	ldr	r0, [pc, #308]	; (8004794 <drawNukeCircle+0x234>)
 8004660:	f002 f83a 	bl	80066d8 <puts>
	gotoxy(x-15, y+2);
 8004664:	68fb      	ldr	r3, [r7, #12]
 8004666:	3b0f      	subs	r3, #15
 8004668:	461a      	mov	r2, r3
 800466a:	68bb      	ldr	r3, [r7, #8]
 800466c:	3302      	adds	r3, #2
 800466e:	4619      	mov	r1, r3
 8004670:	4610      	mov	r0, r2
 8004672:	f7fd fb1b 	bl	8001cac <gotoxy>
	printf("=                                        =\n");
 8004676:	4847      	ldr	r0, [pc, #284]	; (8004794 <drawNukeCircle+0x234>)
 8004678:	f002 f82e 	bl	80066d8 <puts>
	gotoxy(x-15, y+3);
 800467c:	68fb      	ldr	r3, [r7, #12]
 800467e:	3b0f      	subs	r3, #15
 8004680:	461a      	mov	r2, r3
 8004682:	68bb      	ldr	r3, [r7, #8]
 8004684:	3303      	adds	r3, #3
 8004686:	4619      	mov	r1, r3
 8004688:	4610      	mov	r0, r2
 800468a:	f7fd fb0f 	bl	8001cac <gotoxy>
	printf("=                                        =\n");
 800468e:	4841      	ldr	r0, [pc, #260]	; (8004794 <drawNukeCircle+0x234>)
 8004690:	f002 f822 	bl	80066d8 <puts>
	gotoxy(x-15, y+4);
 8004694:	68fb      	ldr	r3, [r7, #12]
 8004696:	3b0f      	subs	r3, #15
 8004698:	461a      	mov	r2, r3
 800469a:	68bb      	ldr	r3, [r7, #8]
 800469c:	3304      	adds	r3, #4
 800469e:	4619      	mov	r1, r3
 80046a0:	4610      	mov	r0, r2
 80046a2:	f7fd fb03 	bl	8001cac <gotoxy>
	printf("=                                        =\n");
 80046a6:	483b      	ldr	r0, [pc, #236]	; (8004794 <drawNukeCircle+0x234>)
 80046a8:	f002 f816 	bl	80066d8 <puts>
	gotoxy(x-15, y+5);
 80046ac:	68fb      	ldr	r3, [r7, #12]
 80046ae:	3b0f      	subs	r3, #15
 80046b0:	461a      	mov	r2, r3
 80046b2:	68bb      	ldr	r3, [r7, #8]
 80046b4:	3305      	adds	r3, #5
 80046b6:	4619      	mov	r1, r3
 80046b8:	4610      	mov	r0, r2
 80046ba:	f7fd faf7 	bl	8001cac <gotoxy>
	printf("-_                                      _-\n");
 80046be:	4836      	ldr	r0, [pc, #216]	; (8004798 <drawNukeCircle+0x238>)
 80046c0:	f002 f80a 	bl	80066d8 <puts>
	gotoxy(x-15, y+6);
 80046c4:	68fb      	ldr	r3, [r7, #12]
 80046c6:	3b0f      	subs	r3, #15
 80046c8:	461a      	mov	r2, r3
 80046ca:	68bb      	ldr	r3, [r7, #8]
 80046cc:	3306      	adds	r3, #6
 80046ce:	4619      	mov	r1, r3
 80046d0:	4610      	mov	r0, r2
 80046d2:	f7fd faeb 	bl	8001cac <gotoxy>
	printf("  =                                    =  \n");
 80046d6:	482d      	ldr	r0, [pc, #180]	; (800478c <drawNukeCircle+0x22c>)
 80046d8:	f001 fffe 	bl	80066d8 <puts>
	gotoxy(x-15, y+7);
 80046dc:	68fb      	ldr	r3, [r7, #12]
 80046de:	3b0f      	subs	r3, #15
 80046e0:	461a      	mov	r2, r3
 80046e2:	68bb      	ldr	r3, [r7, #8]
 80046e4:	3307      	adds	r3, #7
 80046e6:	4619      	mov	r1, r3
 80046e8:	4610      	mov	r0, r2
 80046ea:	f7fd fadf 	bl	8001cac <gotoxy>
	printf("   -_                                _-   \n");
 80046ee:	482b      	ldr	r0, [pc, #172]	; (800479c <drawNukeCircle+0x23c>)
 80046f0:	f001 fff2 	bl	80066d8 <puts>
	gotoxy(x-15, y+8);
 80046f4:	68fb      	ldr	r3, [r7, #12]
 80046f6:	3b0f      	subs	r3, #15
 80046f8:	461a      	mov	r2, r3
 80046fa:	68bb      	ldr	r3, [r7, #8]
 80046fc:	3308      	adds	r3, #8
 80046fe:	4619      	mov	r1, r3
 8004700:	4610      	mov	r0, r2
 8004702:	f7fd fad3 	bl	8001cac <gotoxy>
	printf("     -_                            _-     \n");
 8004706:	4826      	ldr	r0, [pc, #152]	; (80047a0 <drawNukeCircle+0x240>)
 8004708:	f001 ffe6 	bl	80066d8 <puts>
	gotoxy(x-15, y+9);
 800470c:	68fb      	ldr	r3, [r7, #12]
 800470e:	3b0f      	subs	r3, #15
 8004710:	461a      	mov	r2, r3
 8004712:	68bb      	ldr	r3, [r7, #8]
 8004714:	3309      	adds	r3, #9
 8004716:	4619      	mov	r1, r3
 8004718:	4610      	mov	r0, r2
 800471a:	f7fd fac7 	bl	8001cac <gotoxy>
	printf("       -_                       _-        \n");
 800471e:	4821      	ldr	r0, [pc, #132]	; (80047a4 <drawNukeCircle+0x244>)
 8004720:	f001 ffda 	bl	80066d8 <puts>
	gotoxy(x-15, y+10);
 8004724:	68fb      	ldr	r3, [r7, #12]
 8004726:	3b0f      	subs	r3, #15
 8004728:	461a      	mov	r2, r3
 800472a:	68bb      	ldr	r3, [r7, #8]
 800472c:	330a      	adds	r3, #10
 800472e:	4619      	mov	r1, r3
 8004730:	4610      	mov	r0, r2
 8004732:	f7fd fabb 	bl	8001cac <gotoxy>
	printf("         -_                   _-          \n");
 8004736:	481c      	ldr	r0, [pc, #112]	; (80047a8 <drawNukeCircle+0x248>)
 8004738:	f001 ffce 	bl	80066d8 <puts>
	gotoxy(x-15, y+11);
 800473c:	68fb      	ldr	r3, [r7, #12]
 800473e:	3b0f      	subs	r3, #15
 8004740:	461a      	mov	r2, r3
 8004742:	68bb      	ldr	r3, [r7, #8]
 8004744:	330b      	adds	r3, #11
 8004746:	4619      	mov	r1, r3
 8004748:	4610      	mov	r0, r2
 800474a:	f7fd faaf 	bl	8001cac <gotoxy>
	printf("           -__             _--            \n");
 800474e:	4817      	ldr	r0, [pc, #92]	; (80047ac <drawNukeCircle+0x24c>)
 8004750:	f001 ffc2 	bl	80066d8 <puts>
	gotoxy(x-15, y+12);
 8004754:	68fb      	ldr	r3, [r7, #12]
 8004756:	3b0f      	subs	r3, #15
 8004758:	461a      	mov	r2, r3
 800475a:	68bb      	ldr	r3, [r7, #8]
 800475c:	330c      	adds	r3, #12
 800475e:	4619      	mov	r1, r3
 8004760:	4610      	mov	r0, r2
 8004762:	f7fd faa3 	bl	8001cac <gotoxy>
	printf("              ---_______---               \n");
 8004766:	4812      	ldr	r0, [pc, #72]	; (80047b0 <drawNukeCircle+0x250>)
 8004768:	f001 ffb6 	bl	80066d8 <puts>
}
 800476c:	bf00      	nop
 800476e:	3710      	adds	r7, #16
 8004770:	46bd      	mov	sp, r7
 8004772:	bd80      	pop	{r7, pc}
 8004774:	080078c4 	.word	0x080078c4
 8004778:	080078f0 	.word	0x080078f0
 800477c:	0800791c 	.word	0x0800791c
 8004780:	08007948 	.word	0x08007948
 8004784:	08007974 	.word	0x08007974
 8004788:	080079a0 	.word	0x080079a0
 800478c:	080079cc 	.word	0x080079cc
 8004790:	080079f8 	.word	0x080079f8
 8004794:	08007a24 	.word	0x08007a24
 8004798:	08007a50 	.word	0x08007a50
 800479c:	08007a7c 	.word	0x08007a7c
 80047a0:	08007aa8 	.word	0x08007aa8
 80047a4:	08007ad4 	.word	0x08007ad4
 80047a8:	08007b00 	.word	0x08007b00
 80047ac:	08007b2c 	.word	0x08007b2c
 80047b0:	08007b58 	.word	0x08007b58

080047b4 <clearNukeCircle>:
/**
  * @brief Clears the nuke eksploson
  * @param  gameState: the current state of the game
  * @retval None
  */
void clearNukeCircle(gameState_t* gameState){
 80047b4:	b580      	push	{r7, lr}
 80047b6:	b084      	sub	sp, #16
 80047b8:	af00      	add	r7, sp, #0
 80047ba:	6078      	str	r0, [r7, #4]
	uint32_t x = fpToInt(gameState->nuke->position.x);
 80047bc:	687b      	ldr	r3, [r7, #4]
 80047be:	6adb      	ldr	r3, [r3, #44]	; 0x2c
 80047c0:	681b      	ldr	r3, [r3, #0]
 80047c2:	4618      	mov	r0, r3
 80047c4:	f7fe fdf8 	bl	80033b8 <fpToInt>
 80047c8:	4603      	mov	r3, r0
 80047ca:	60fb      	str	r3, [r7, #12]
	uint32_t y = fpToInt(gameState->nuke->position.y)/yScale;
 80047cc:	687b      	ldr	r3, [r7, #4]
 80047ce:	6adb      	ldr	r3, [r3, #44]	; 0x2c
 80047d0:	685b      	ldr	r3, [r3, #4]
 80047d2:	4618      	mov	r0, r3
 80047d4:	f7fe fdf0 	bl	80033b8 <fpToInt>
 80047d8:	4603      	mov	r3, r0
 80047da:	0fda      	lsrs	r2, r3, #31
 80047dc:	4413      	add	r3, r2
 80047de:	105b      	asrs	r3, r3, #1
 80047e0:	60bb      	str	r3, [r7, #8]

	gotoxy(x-15, y-7);
 80047e2:	68fb      	ldr	r3, [r7, #12]
 80047e4:	3b0f      	subs	r3, #15
 80047e6:	461a      	mov	r2, r3
 80047e8:	68bb      	ldr	r3, [r7, #8]
 80047ea:	3b07      	subs	r3, #7
 80047ec:	4619      	mov	r1, r3
 80047ee:	4610      	mov	r0, r2
 80047f0:	f7fd fa5c 	bl	8001cac <gotoxy>
	printf("                                          \n");
 80047f4:	4874      	ldr	r0, [pc, #464]	; (80049c8 <clearNukeCircle+0x214>)
 80047f6:	f001 ff6f 	bl	80066d8 <puts>
	gotoxy(x-15, y-6);
 80047fa:	68fb      	ldr	r3, [r7, #12]
 80047fc:	3b0f      	subs	r3, #15
 80047fe:	461a      	mov	r2, r3
 8004800:	68bb      	ldr	r3, [r7, #8]
 8004802:	3b06      	subs	r3, #6
 8004804:	4619      	mov	r1, r3
 8004806:	4610      	mov	r0, r2
 8004808:	f7fd fa50 	bl	8001cac <gotoxy>
	printf("                                          \n");
 800480c:	486e      	ldr	r0, [pc, #440]	; (80049c8 <clearNukeCircle+0x214>)
 800480e:	f001 ff63 	bl	80066d8 <puts>
	gotoxy(x-15, y-5);
 8004812:	68fb      	ldr	r3, [r7, #12]
 8004814:	3b0f      	subs	r3, #15
 8004816:	461a      	mov	r2, r3
 8004818:	68bb      	ldr	r3, [r7, #8]
 800481a:	3b05      	subs	r3, #5
 800481c:	4619      	mov	r1, r3
 800481e:	4610      	mov	r0, r2
 8004820:	f7fd fa44 	bl	8001cac <gotoxy>
	printf("                                          \n");
 8004824:	4868      	ldr	r0, [pc, #416]	; (80049c8 <clearNukeCircle+0x214>)
 8004826:	f001 ff57 	bl	80066d8 <puts>
	gotoxy(x-15, y-4);
 800482a:	68fb      	ldr	r3, [r7, #12]
 800482c:	3b0f      	subs	r3, #15
 800482e:	461a      	mov	r2, r3
 8004830:	68bb      	ldr	r3, [r7, #8]
 8004832:	3b04      	subs	r3, #4
 8004834:	4619      	mov	r1, r3
 8004836:	4610      	mov	r0, r2
 8004838:	f7fd fa38 	bl	8001cac <gotoxy>
	printf("                                          \n");
 800483c:	4862      	ldr	r0, [pc, #392]	; (80049c8 <clearNukeCircle+0x214>)
 800483e:	f001 ff4b 	bl	80066d8 <puts>
	gotoxy(x-15, y-3);
 8004842:	68fb      	ldr	r3, [r7, #12]
 8004844:	3b0f      	subs	r3, #15
 8004846:	461a      	mov	r2, r3
 8004848:	68bb      	ldr	r3, [r7, #8]
 800484a:	3b03      	subs	r3, #3
 800484c:	4619      	mov	r1, r3
 800484e:	4610      	mov	r0, r2
 8004850:	f7fd fa2c 	bl	8001cac <gotoxy>
	printf("                                          \n");
 8004854:	485c      	ldr	r0, [pc, #368]	; (80049c8 <clearNukeCircle+0x214>)
 8004856:	f001 ff3f 	bl	80066d8 <puts>
	gotoxy(x-15, y-2);
 800485a:	68fb      	ldr	r3, [r7, #12]
 800485c:	3b0f      	subs	r3, #15
 800485e:	461a      	mov	r2, r3
 8004860:	68bb      	ldr	r3, [r7, #8]
 8004862:	3b02      	subs	r3, #2
 8004864:	4619      	mov	r1, r3
 8004866:	4610      	mov	r0, r2
 8004868:	f7fd fa20 	bl	8001cac <gotoxy>
	printf("                                          \n");
 800486c:	4856      	ldr	r0, [pc, #344]	; (80049c8 <clearNukeCircle+0x214>)
 800486e:	f001 ff33 	bl	80066d8 <puts>
	gotoxy(x-15, y-1);
 8004872:	68fb      	ldr	r3, [r7, #12]
 8004874:	3b0f      	subs	r3, #15
 8004876:	461a      	mov	r2, r3
 8004878:	68bb      	ldr	r3, [r7, #8]
 800487a:	3b01      	subs	r3, #1
 800487c:	4619      	mov	r1, r3
 800487e:	4610      	mov	r0, r2
 8004880:	f7fd fa14 	bl	8001cac <gotoxy>
	printf("                                          \n");
 8004884:	4850      	ldr	r0, [pc, #320]	; (80049c8 <clearNukeCircle+0x214>)
 8004886:	f001 ff27 	bl	80066d8 <puts>
	gotoxy(x-15, y);
 800488a:	68fb      	ldr	r3, [r7, #12]
 800488c:	3b0f      	subs	r3, #15
 800488e:	461a      	mov	r2, r3
 8004890:	68bb      	ldr	r3, [r7, #8]
 8004892:	4619      	mov	r1, r3
 8004894:	4610      	mov	r0, r2
 8004896:	f7fd fa09 	bl	8001cac <gotoxy>
	printf("                                          \n");
 800489a:	484b      	ldr	r0, [pc, #300]	; (80049c8 <clearNukeCircle+0x214>)
 800489c:	f001 ff1c 	bl	80066d8 <puts>
	gotoxy(x-15, y+1);
 80048a0:	68fb      	ldr	r3, [r7, #12]
 80048a2:	3b0f      	subs	r3, #15
 80048a4:	461a      	mov	r2, r3
 80048a6:	68bb      	ldr	r3, [r7, #8]
 80048a8:	3301      	adds	r3, #1
 80048aa:	4619      	mov	r1, r3
 80048ac:	4610      	mov	r0, r2
 80048ae:	f7fd f9fd 	bl	8001cac <gotoxy>
	printf("                                          \n");
 80048b2:	4845      	ldr	r0, [pc, #276]	; (80049c8 <clearNukeCircle+0x214>)
 80048b4:	f001 ff10 	bl	80066d8 <puts>
	gotoxy(x-15, y+2);
 80048b8:	68fb      	ldr	r3, [r7, #12]
 80048ba:	3b0f      	subs	r3, #15
 80048bc:	461a      	mov	r2, r3
 80048be:	68bb      	ldr	r3, [r7, #8]
 80048c0:	3302      	adds	r3, #2
 80048c2:	4619      	mov	r1, r3
 80048c4:	4610      	mov	r0, r2
 80048c6:	f7fd f9f1 	bl	8001cac <gotoxy>
	printf("                                          \n");
 80048ca:	483f      	ldr	r0, [pc, #252]	; (80049c8 <clearNukeCircle+0x214>)
 80048cc:	f001 ff04 	bl	80066d8 <puts>
	gotoxy(x-15, y+3);
 80048d0:	68fb      	ldr	r3, [r7, #12]
 80048d2:	3b0f      	subs	r3, #15
 80048d4:	461a      	mov	r2, r3
 80048d6:	68bb      	ldr	r3, [r7, #8]
 80048d8:	3303      	adds	r3, #3
 80048da:	4619      	mov	r1, r3
 80048dc:	4610      	mov	r0, r2
 80048de:	f7fd f9e5 	bl	8001cac <gotoxy>
	printf("                                          \n");
 80048e2:	4839      	ldr	r0, [pc, #228]	; (80049c8 <clearNukeCircle+0x214>)
 80048e4:	f001 fef8 	bl	80066d8 <puts>
	gotoxy(x-15, y+4);
 80048e8:	68fb      	ldr	r3, [r7, #12]
 80048ea:	3b0f      	subs	r3, #15
 80048ec:	461a      	mov	r2, r3
 80048ee:	68bb      	ldr	r3, [r7, #8]
 80048f0:	3304      	adds	r3, #4
 80048f2:	4619      	mov	r1, r3
 80048f4:	4610      	mov	r0, r2
 80048f6:	f7fd f9d9 	bl	8001cac <gotoxy>
	printf("                                          \n");
 80048fa:	4833      	ldr	r0, [pc, #204]	; (80049c8 <clearNukeCircle+0x214>)
 80048fc:	f001 feec 	bl	80066d8 <puts>
	gotoxy(x-15, y+5);
 8004900:	68fb      	ldr	r3, [r7, #12]
 8004902:	3b0f      	subs	r3, #15
 8004904:	461a      	mov	r2, r3
 8004906:	68bb      	ldr	r3, [r7, #8]
 8004908:	3305      	adds	r3, #5
 800490a:	4619      	mov	r1, r3
 800490c:	4610      	mov	r0, r2
 800490e:	f7fd f9cd 	bl	8001cac <gotoxy>
	printf("                                          \n");
 8004912:	482d      	ldr	r0, [pc, #180]	; (80049c8 <clearNukeCircle+0x214>)
 8004914:	f001 fee0 	bl	80066d8 <puts>
	gotoxy(x-15, y+6);
 8004918:	68fb      	ldr	r3, [r7, #12]
 800491a:	3b0f      	subs	r3, #15
 800491c:	461a      	mov	r2, r3
 800491e:	68bb      	ldr	r3, [r7, #8]
 8004920:	3306      	adds	r3, #6
 8004922:	4619      	mov	r1, r3
 8004924:	4610      	mov	r0, r2
 8004926:	f7fd f9c1 	bl	8001cac <gotoxy>
	printf("                                          \n");
 800492a:	4827      	ldr	r0, [pc, #156]	; (80049c8 <clearNukeCircle+0x214>)
 800492c:	f001 fed4 	bl	80066d8 <puts>
	gotoxy(x-15, y+7);
 8004930:	68fb      	ldr	r3, [r7, #12]
 8004932:	3b0f      	subs	r3, #15
 8004934:	461a      	mov	r2, r3
 8004936:	68bb      	ldr	r3, [r7, #8]
 8004938:	3307      	adds	r3, #7
 800493a:	4619      	mov	r1, r3
 800493c:	4610      	mov	r0, r2
 800493e:	f7fd f9b5 	bl	8001cac <gotoxy>
	printf("                                          \n");
 8004942:	4821      	ldr	r0, [pc, #132]	; (80049c8 <clearNukeCircle+0x214>)
 8004944:	f001 fec8 	bl	80066d8 <puts>
	gotoxy(x-15, y+8);
 8004948:	68fb      	ldr	r3, [r7, #12]
 800494a:	3b0f      	subs	r3, #15
 800494c:	461a      	mov	r2, r3
 800494e:	68bb      	ldr	r3, [r7, #8]
 8004950:	3308      	adds	r3, #8
 8004952:	4619      	mov	r1, r3
 8004954:	4610      	mov	r0, r2
 8004956:	f7fd f9a9 	bl	8001cac <gotoxy>
	printf("                                          \n");
 800495a:	481b      	ldr	r0, [pc, #108]	; (80049c8 <clearNukeCircle+0x214>)
 800495c:	f001 febc 	bl	80066d8 <puts>
	gotoxy(x-15, y+9);
 8004960:	68fb      	ldr	r3, [r7, #12]
 8004962:	3b0f      	subs	r3, #15
 8004964:	461a      	mov	r2, r3
 8004966:	68bb      	ldr	r3, [r7, #8]
 8004968:	3309      	adds	r3, #9
 800496a:	4619      	mov	r1, r3
 800496c:	4610      	mov	r0, r2
 800496e:	f7fd f99d 	bl	8001cac <gotoxy>
	printf("                                          \n");
 8004972:	4815      	ldr	r0, [pc, #84]	; (80049c8 <clearNukeCircle+0x214>)
 8004974:	f001 feb0 	bl	80066d8 <puts>
	gotoxy(x-15, y+10);
 8004978:	68fb      	ldr	r3, [r7, #12]
 800497a:	3b0f      	subs	r3, #15
 800497c:	461a      	mov	r2, r3
 800497e:	68bb      	ldr	r3, [r7, #8]
 8004980:	330a      	adds	r3, #10
 8004982:	4619      	mov	r1, r3
 8004984:	4610      	mov	r0, r2
 8004986:	f7fd f991 	bl	8001cac <gotoxy>
	printf("                                          \n");
 800498a:	480f      	ldr	r0, [pc, #60]	; (80049c8 <clearNukeCircle+0x214>)
 800498c:	f001 fea4 	bl	80066d8 <puts>
	gotoxy(x-15, y+11);
 8004990:	68fb      	ldr	r3, [r7, #12]
 8004992:	3b0f      	subs	r3, #15
 8004994:	461a      	mov	r2, r3
 8004996:	68bb      	ldr	r3, [r7, #8]
 8004998:	330b      	adds	r3, #11
 800499a:	4619      	mov	r1, r3
 800499c:	4610      	mov	r0, r2
 800499e:	f7fd f985 	bl	8001cac <gotoxy>
	printf("                                          \n");
 80049a2:	4809      	ldr	r0, [pc, #36]	; (80049c8 <clearNukeCircle+0x214>)
 80049a4:	f001 fe98 	bl	80066d8 <puts>
	gotoxy(x-15, y+12);
 80049a8:	68fb      	ldr	r3, [r7, #12]
 80049aa:	3b0f      	subs	r3, #15
 80049ac:	461a      	mov	r2, r3
 80049ae:	68bb      	ldr	r3, [r7, #8]
 80049b0:	330c      	adds	r3, #12
 80049b2:	4619      	mov	r1, r3
 80049b4:	4610      	mov	r0, r2
 80049b6:	f7fd f979 	bl	8001cac <gotoxy>
	printf("                                          \n");
 80049ba:	4803      	ldr	r0, [pc, #12]	; (80049c8 <clearNukeCircle+0x214>)
 80049bc:	f001 fe8c 	bl	80066d8 <puts>
}
 80049c0:	bf00      	nop
 80049c2:	3710      	adds	r7, #16
 80049c4:	46bd      	mov	sp, r7
 80049c6:	bd80      	pop	{r7, pc}
 80049c8:	08007b84 	.word	0x08007b84

080049cc <drawBossKey>:
/**
  * @brief Draws the bossKey screen
  * @param  None
  * @retval None
  */
void drawBossKey(){
 80049cc:	b580      	push	{r7, lr}
 80049ce:	af00      	add	r7, sp, #0
	printf("int8_t bossKey(gameState_t* gameState){\n");
 80049d0:	481e      	ldr	r0, [pc, #120]	; (8004a4c <drawBossKey+0x80>)
 80049d2:	f001 fe81 	bl	80066d8 <puts>
	printf("	char c = uart_get_char();\n");
 80049d6:	481e      	ldr	r0, [pc, #120]	; (8004a50 <drawBossKey+0x84>)
 80049d8:	f001 fe7e 	bl	80066d8 <puts>
	printf("	if(c == 'f'){\n");
 80049dc:	481d      	ldr	r0, [pc, #116]	; (8004a54 <drawBossKey+0x88>)
 80049de:	f001 fe7b 	bl	80066d8 <puts>
	printf("		if(gameState->bossMode == 0){\n");
 80049e2:	481d      	ldr	r0, [pc, #116]	; (8004a58 <drawBossKey+0x8c>)
 80049e4:	f001 fe78 	bl	80066d8 <puts>
	printf("			clrscr();\n");
 80049e8:	481c      	ldr	r0, [pc, #112]	; (8004a5c <drawBossKey+0x90>)
 80049ea:	f001 fe75 	bl	80066d8 <puts>
	printf("			gameState->bossMode = 1;\n");
 80049ee:	481c      	ldr	r0, [pc, #112]	; (8004a60 <drawBossKey+0x94>)
 80049f0:	f001 fe72 	bl	80066d8 <puts>
	printf("		}else{\n");
 80049f4:	481b      	ldr	r0, [pc, #108]	; (8004a64 <drawBossKey+0x98>)
 80049f6:	f001 fe6f 	bl	80066d8 <puts>
	printf("			gameState->bossMode = 0;\n");
 80049fa:	481b      	ldr	r0, [pc, #108]	; (8004a68 <drawBossKey+0x9c>)
 80049fc:	f001 fe6c 	bl	80066d8 <puts>
	printf("			return 2;\n");
 8004a00:	481a      	ldr	r0, [pc, #104]	; (8004a6c <drawBossKey+0xa0>)
 8004a02:	f001 fe69 	bl	80066d8 <puts>
	printf("		}\n");
 8004a06:	481a      	ldr	r0, [pc, #104]	; (8004a70 <drawBossKey+0xa4>)
 8004a08:	f001 fe66 	bl	80066d8 <puts>
	printf("	}\n");
 8004a0c:	4819      	ldr	r0, [pc, #100]	; (8004a74 <drawBossKey+0xa8>)
 8004a0e:	f001 fe63 	bl	80066d8 <puts>
	printf("\n");
 8004a12:	200a      	movs	r0, #10
 8004a14:	f001 fddc 	bl	80065d0 <putchar>
	printf("	if(gameState->bossMode == 1){\n");
 8004a18:	4817      	ldr	r0, [pc, #92]	; (8004a78 <drawBossKey+0xac>)
 8004a1a:	f001 fe5d 	bl	80066d8 <puts>
	printf("		gotoxy(0,0);\n");
 8004a1e:	4817      	ldr	r0, [pc, #92]	; (8004a7c <drawBossKey+0xb0>)
 8004a20:	f001 fe5a 	bl	80066d8 <puts>
	printf("		drawBossKey();\n");
 8004a24:	4816      	ldr	r0, [pc, #88]	; (8004a80 <drawBossKey+0xb4>)
 8004a26:	f001 fe57 	bl	80066d8 <puts>
	printf("		return 1;\n");
 8004a2a:	4816      	ldr	r0, [pc, #88]	; (8004a84 <drawBossKey+0xb8>)
 8004a2c:	f001 fe54 	bl	80066d8 <puts>
	printf("	}\n");
 8004a30:	4810      	ldr	r0, [pc, #64]	; (8004a74 <drawBossKey+0xa8>)
 8004a32:	f001 fe51 	bl	80066d8 <puts>
	printf("	return 0;\n");
 8004a36:	4814      	ldr	r0, [pc, #80]	; (8004a88 <drawBossKey+0xbc>)
 8004a38:	f001 fe4e 	bl	80066d8 <puts>
	printf("	uart_clear();\n");
 8004a3c:	4813      	ldr	r0, [pc, #76]	; (8004a8c <drawBossKey+0xc0>)
 8004a3e:	f001 fe4b 	bl	80066d8 <puts>
	printf("}\n");
 8004a42:	4813      	ldr	r0, [pc, #76]	; (8004a90 <drawBossKey+0xc4>)
 8004a44:	f001 fe48 	bl	80066d8 <puts>
}
 8004a48:	bf00      	nop
 8004a4a:	bd80      	pop	{r7, pc}
 8004a4c:	08007bb0 	.word	0x08007bb0
 8004a50:	08007bd8 	.word	0x08007bd8
 8004a54:	08007bf4 	.word	0x08007bf4
 8004a58:	08007c04 	.word	0x08007c04
 8004a5c:	08007c24 	.word	0x08007c24
 8004a60:	08007c34 	.word	0x08007c34
 8004a64:	08007c50 	.word	0x08007c50
 8004a68:	08007c5c 	.word	0x08007c5c
 8004a6c:	08007c78 	.word	0x08007c78
 8004a70:	08007c88 	.word	0x08007c88
 8004a74:	08007c8c 	.word	0x08007c8c
 8004a78:	08007c90 	.word	0x08007c90
 8004a7c:	08007cb0 	.word	0x08007cb0
 8004a80:	08007cc0 	.word	0x08007cc0
 8004a84:	08007cd4 	.word	0x08007cd4
 8004a88:	08007ce0 	.word	0x08007ce0
 8004a8c:	08007cec 	.word	0x08007cec
 8004a90:	08007cfc 	.word	0x08007cfc

08004a94 <appendBullet>:
/**
  * @brief  Adds a new buletNode to the ends of the bullet linked list
  * @param  head: the head of the bullet list, bullet: the bullet to append
  * @retval None
  */
void appendBullet(bulletNode_t** head, bullet_t bullet) {
 8004a94:	b084      	sub	sp, #16
 8004a96:	b5b0      	push	{r4, r5, r7, lr}
 8004a98:	b084      	sub	sp, #16
 8004a9a:	af00      	add	r7, sp, #0
 8004a9c:	6078      	str	r0, [r7, #4]
 8004a9e:	f107 0024 	add.w	r0, r7, #36	; 0x24
 8004aa2:	e880 000e 	stmia.w	r0, {r1, r2, r3}
    bulletNode_t* newNode = (bulletNode_t*)malloc(sizeof(bulletNode_t));
 8004aa6:	2020      	movs	r0, #32
 8004aa8:	f001 fcb8 	bl	800641c <malloc>
 8004aac:	4603      	mov	r3, r0
 8004aae:	60bb      	str	r3, [r7, #8]
    newNode->bullet = bullet;
 8004ab0:	68bb      	ldr	r3, [r7, #8]
 8004ab2:	461d      	mov	r5, r3
 8004ab4:	f107 0424 	add.w	r4, r7, #36	; 0x24
 8004ab8:	cc0f      	ldmia	r4!, {r0, r1, r2, r3}
 8004aba:	c50f      	stmia	r5!, {r0, r1, r2, r3}
 8004abc:	e894 0007 	ldmia.w	r4, {r0, r1, r2}
 8004ac0:	e885 0007 	stmia.w	r5, {r0, r1, r2}
    newNode->nextBulletAddress = NULL;
 8004ac4:	68bb      	ldr	r3, [r7, #8]
 8004ac6:	2200      	movs	r2, #0
 8004ac8:	61da      	str	r2, [r3, #28]
    //If the list is empty assign the bullet as head
    if (*head == NULL) {
 8004aca:	687b      	ldr	r3, [r7, #4]
 8004acc:	681b      	ldr	r3, [r3, #0]
 8004ace:	2b00      	cmp	r3, #0
 8004ad0:	d103      	bne.n	8004ada <appendBullet+0x46>
        *head = newNode;
 8004ad2:	687b      	ldr	r3, [r7, #4]
 8004ad4:	68ba      	ldr	r2, [r7, #8]
 8004ad6:	601a      	str	r2, [r3, #0]
        while (current->nextBulletAddress != NULL) {
            current = current->nextBulletAddress;
        }
        current->nextBulletAddress = newNode;
    }
}
 8004ad8:	e00d      	b.n	8004af6 <appendBullet+0x62>
        bulletNode_t* current = *head;
 8004ada:	687b      	ldr	r3, [r7, #4]
 8004adc:	681b      	ldr	r3, [r3, #0]
 8004ade:	60fb      	str	r3, [r7, #12]
        while (current->nextBulletAddress != NULL) {
 8004ae0:	e002      	b.n	8004ae8 <appendBullet+0x54>
            current = current->nextBulletAddress;
 8004ae2:	68fb      	ldr	r3, [r7, #12]
 8004ae4:	69db      	ldr	r3, [r3, #28]
 8004ae6:	60fb      	str	r3, [r7, #12]
        while (current->nextBulletAddress != NULL) {
 8004ae8:	68fb      	ldr	r3, [r7, #12]
 8004aea:	69db      	ldr	r3, [r3, #28]
 8004aec:	2b00      	cmp	r3, #0
 8004aee:	d1f8      	bne.n	8004ae2 <appendBullet+0x4e>
        current->nextBulletAddress = newNode;
 8004af0:	68fb      	ldr	r3, [r7, #12]
 8004af2:	68ba      	ldr	r2, [r7, #8]
 8004af4:	61da      	str	r2, [r3, #28]
}
 8004af6:	bf00      	nop
 8004af8:	3710      	adds	r7, #16
 8004afa:	46bd      	mov	sp, r7
 8004afc:	e8bd 40b0 	ldmia.w	sp!, {r4, r5, r7, lr}
 8004b00:	b004      	add	sp, #16
 8004b02:	4770      	bx	lr

08004b04 <appendEnemy>:
/**
  * @brief  Adds a new enemyNode to the ends of the bullet linked list
  * @param  gameState: the current state of the game,  enemy: the enemy to append
  * @retval None
  */
void appendEnemy(gameState_t* gameState, enemy_t* enemy){
 8004b04:	b580      	push	{r7, lr}
 8004b06:	b084      	sub	sp, #16
 8004b08:	af00      	add	r7, sp, #0
 8004b0a:	6078      	str	r0, [r7, #4]
 8004b0c:	6039      	str	r1, [r7, #0]
	enemyNode_t* newEnemy = malloc(sizeof(enemyNode_t));
 8004b0e:	2008      	movs	r0, #8
 8004b10:	f001 fc84 	bl	800641c <malloc>
 8004b14:	4603      	mov	r3, r0
 8004b16:	60bb      	str	r3, [r7, #8]
	newEnemy->enemy = enemy;
 8004b18:	68bb      	ldr	r3, [r7, #8]
 8004b1a:	683a      	ldr	r2, [r7, #0]
 8004b1c:	601a      	str	r2, [r3, #0]
	newEnemy->nextEnemyNode = NULL;
 8004b1e:	68bb      	ldr	r3, [r7, #8]
 8004b20:	2200      	movs	r2, #0
 8004b22:	605a      	str	r2, [r3, #4]

    //If the list is empty assign the enemy as head
	if(gameState->enemyLL == NULL){
 8004b24:	687b      	ldr	r3, [r7, #4]
 8004b26:	685b      	ldr	r3, [r3, #4]
 8004b28:	2b00      	cmp	r3, #0
 8004b2a:	d102      	bne.n	8004b32 <appendEnemy+0x2e>
		gameState->enemyLL = newEnemy;
 8004b2c:	687b      	ldr	r3, [r7, #4]
 8004b2e:	68ba      	ldr	r2, [r7, #8]
 8004b30:	605a      	str	r2, [r3, #4]
	}

	//Loops through the entire list and adds bullet to the end
	enemyNode_t* thisNode = gameState->enemyLL;
 8004b32:	687b      	ldr	r3, [r7, #4]
 8004b34:	685b      	ldr	r3, [r3, #4]
 8004b36:	60fb      	str	r3, [r7, #12]
	while(thisNode != NULL){
 8004b38:	e00a      	b.n	8004b50 <appendEnemy+0x4c>
		if(thisNode->nextEnemyNode == NULL){
 8004b3a:	68fb      	ldr	r3, [r7, #12]
 8004b3c:	685b      	ldr	r3, [r3, #4]
 8004b3e:	2b00      	cmp	r3, #0
 8004b40:	d103      	bne.n	8004b4a <appendEnemy+0x46>
			thisNode->nextEnemyNode = newEnemy;
 8004b42:	68fb      	ldr	r3, [r7, #12]
 8004b44:	68ba      	ldr	r2, [r7, #8]
 8004b46:	605a      	str	r2, [r3, #4]
			break;
 8004b48:	e006      	b.n	8004b58 <appendEnemy+0x54>
		}
		thisNode = thisNode->nextEnemyNode;
 8004b4a:	68fb      	ldr	r3, [r7, #12]
 8004b4c:	685b      	ldr	r3, [r3, #4]
 8004b4e:	60fb      	str	r3, [r7, #12]
	while(thisNode != NULL){
 8004b50:	68fb      	ldr	r3, [r7, #12]
 8004b52:	2b00      	cmp	r3, #0
 8004b54:	d1f1      	bne.n	8004b3a <appendEnemy+0x36>
	}
}
 8004b56:	bf00      	nop
 8004b58:	bf00      	nop
 8004b5a:	3710      	adds	r7, #16
 8004b5c:	46bd      	mov	sp, r7
 8004b5e:	bd80      	pop	{r7, pc}

08004b60 <deleteEnemyNode>:
/**
  * @brief  deletes a given enemy node
  * @param  gameState: the current state of the game,  enemy: the enemy to delete
  * @retval None
  */
void deleteEnemyNode(gameState_t* gameState, enemyNode_t* enemy){
 8004b60:	b590      	push	{r4, r7, lr}
 8004b62:	b085      	sub	sp, #20
 8004b64:	af00      	add	r7, sp, #0
 8004b66:	6078      	str	r0, [r7, #4]
 8004b68:	6039      	str	r1, [r7, #0]
	enemyNode_t* preNode = NULL;
 8004b6a:	2300      	movs	r3, #0
 8004b6c:	60fb      	str	r3, [r7, #12]
	enemyNode_t* thisNode = gameState->enemyLL;
 8004b6e:	687b      	ldr	r3, [r7, #4]
 8004b70:	685b      	ldr	r3, [r3, #4]
 8004b72:	60bb      	str	r3, [r7, #8]

	///If the enemy to delete is the first delete the head, sets the head as the second element, and free the memory
	if(gameState->enemyLL == enemy){
 8004b74:	687b      	ldr	r3, [r7, #4]
 8004b76:	685b      	ldr	r3, [r3, #4]
 8004b78:	683a      	ldr	r2, [r7, #0]
 8004b7a:	429a      	cmp	r2, r3
 8004b7c:	f040 809b 	bne.w	8004cb6 <deleteEnemyNode+0x156>
		gotoxy(fpToInt(enemy->enemy->position->x), fpToInt(enemy->enemy->position->y)/yScale);
 8004b80:	683b      	ldr	r3, [r7, #0]
 8004b82:	681b      	ldr	r3, [r3, #0]
 8004b84:	681b      	ldr	r3, [r3, #0]
 8004b86:	681b      	ldr	r3, [r3, #0]
 8004b88:	4618      	mov	r0, r3
 8004b8a:	f7fe fc15 	bl	80033b8 <fpToInt>
 8004b8e:	4604      	mov	r4, r0
 8004b90:	683b      	ldr	r3, [r7, #0]
 8004b92:	681b      	ldr	r3, [r3, #0]
 8004b94:	681b      	ldr	r3, [r3, #0]
 8004b96:	685b      	ldr	r3, [r3, #4]
 8004b98:	4618      	mov	r0, r3
 8004b9a:	f7fe fc0d 	bl	80033b8 <fpToInt>
 8004b9e:	4603      	mov	r3, r0
 8004ba0:	0fda      	lsrs	r2, r3, #31
 8004ba2:	4413      	add	r3, r2
 8004ba4:	105b      	asrs	r3, r3, #1
 8004ba6:	4619      	mov	r1, r3
 8004ba8:	4620      	mov	r0, r4
 8004baa:	f7fd f87f 	bl	8001cac <gotoxy>
		printf("       ");
 8004bae:	4845      	ldr	r0, [pc, #276]	; (8004cc4 <deleteEnemyNode+0x164>)
 8004bb0:	f001 fcf6 	bl	80065a0 <iprintf>
		gotoxy(fpToInt(enemy->enemy->position->x), (fpToInt(enemy->enemy->position->y) + 1 * yScale)/yScale);
 8004bb4:	683b      	ldr	r3, [r7, #0]
 8004bb6:	681b      	ldr	r3, [r3, #0]
 8004bb8:	681b      	ldr	r3, [r3, #0]
 8004bba:	681b      	ldr	r3, [r3, #0]
 8004bbc:	4618      	mov	r0, r3
 8004bbe:	f7fe fbfb 	bl	80033b8 <fpToInt>
 8004bc2:	4604      	mov	r4, r0
 8004bc4:	683b      	ldr	r3, [r7, #0]
 8004bc6:	681b      	ldr	r3, [r3, #0]
 8004bc8:	681b      	ldr	r3, [r3, #0]
 8004bca:	685b      	ldr	r3, [r3, #4]
 8004bcc:	4618      	mov	r0, r3
 8004bce:	f7fe fbf3 	bl	80033b8 <fpToInt>
 8004bd2:	4603      	mov	r3, r0
 8004bd4:	3302      	adds	r3, #2
 8004bd6:	0fda      	lsrs	r2, r3, #31
 8004bd8:	4413      	add	r3, r2
 8004bda:	105b      	asrs	r3, r3, #1
 8004bdc:	4619      	mov	r1, r3
 8004bde:	4620      	mov	r0, r4
 8004be0:	f7fd f864 	bl	8001cac <gotoxy>
		printf("       ");
 8004be4:	4837      	ldr	r0, [pc, #220]	; (8004cc4 <deleteEnemyNode+0x164>)
 8004be6:	f001 fcdb 	bl	80065a0 <iprintf>
		gameState->enemyLL = gameState->enemyLL->nextEnemyNode;
 8004bea:	687b      	ldr	r3, [r7, #4]
 8004bec:	685b      	ldr	r3, [r3, #4]
 8004bee:	685a      	ldr	r2, [r3, #4]
 8004bf0:	687b      	ldr	r3, [r7, #4]
 8004bf2:	605a      	str	r2, [r3, #4]
		free(enemy);
 8004bf4:	6838      	ldr	r0, [r7, #0]
 8004bf6:	f001 fc19 	bl	800642c <free>
		return;
 8004bfa:	e05f      	b.n	8004cbc <deleteEnemyNode+0x15c>
	}

	///Loops through the entire list of enemies and deletes the given enemy. Also "links" the previous element to the next, and frees memory
	while(thisNode != NULL){
		if(thisNode == enemy){
 8004bfc:	68ba      	ldr	r2, [r7, #8]
 8004bfe:	683b      	ldr	r3, [r7, #0]
 8004c00:	429a      	cmp	r2, r3
 8004c02:	d153      	bne.n	8004cac <deleteEnemyNode+0x14c>
			gotoxy(fpToInt(enemy->enemy->position->x), fpToInt(enemy->enemy->position->y)/yScale);
 8004c04:	683b      	ldr	r3, [r7, #0]
 8004c06:	681b      	ldr	r3, [r3, #0]
 8004c08:	681b      	ldr	r3, [r3, #0]
 8004c0a:	681b      	ldr	r3, [r3, #0]
 8004c0c:	4618      	mov	r0, r3
 8004c0e:	f7fe fbd3 	bl	80033b8 <fpToInt>
 8004c12:	4604      	mov	r4, r0
 8004c14:	683b      	ldr	r3, [r7, #0]
 8004c16:	681b      	ldr	r3, [r3, #0]
 8004c18:	681b      	ldr	r3, [r3, #0]
 8004c1a:	685b      	ldr	r3, [r3, #4]
 8004c1c:	4618      	mov	r0, r3
 8004c1e:	f7fe fbcb 	bl	80033b8 <fpToInt>
 8004c22:	4603      	mov	r3, r0
 8004c24:	0fda      	lsrs	r2, r3, #31
 8004c26:	4413      	add	r3, r2
 8004c28:	105b      	asrs	r3, r3, #1
 8004c2a:	4619      	mov	r1, r3
 8004c2c:	4620      	mov	r0, r4
 8004c2e:	f7fd f83d 	bl	8001cac <gotoxy>
			printf("       ");
 8004c32:	4824      	ldr	r0, [pc, #144]	; (8004cc4 <deleteEnemyNode+0x164>)
 8004c34:	f001 fcb4 	bl	80065a0 <iprintf>
			gotoxy(fpToInt(enemy->enemy->position->x), (fpToInt(enemy->enemy->position->y) + 1 * yScale)/yScale);
 8004c38:	683b      	ldr	r3, [r7, #0]
 8004c3a:	681b      	ldr	r3, [r3, #0]
 8004c3c:	681b      	ldr	r3, [r3, #0]
 8004c3e:	681b      	ldr	r3, [r3, #0]
 8004c40:	4618      	mov	r0, r3
 8004c42:	f7fe fbb9 	bl	80033b8 <fpToInt>
 8004c46:	4604      	mov	r4, r0
 8004c48:	683b      	ldr	r3, [r7, #0]
 8004c4a:	681b      	ldr	r3, [r3, #0]
 8004c4c:	681b      	ldr	r3, [r3, #0]
 8004c4e:	685b      	ldr	r3, [r3, #4]
 8004c50:	4618      	mov	r0, r3
 8004c52:	f7fe fbb1 	bl	80033b8 <fpToInt>
 8004c56:	4603      	mov	r3, r0
 8004c58:	3302      	adds	r3, #2
 8004c5a:	0fda      	lsrs	r2, r3, #31
 8004c5c:	4413      	add	r3, r2
 8004c5e:	105b      	asrs	r3, r3, #1
 8004c60:	4619      	mov	r1, r3
 8004c62:	4620      	mov	r0, r4
 8004c64:	f7fd f822 	bl	8001cac <gotoxy>
			printf("       ");
 8004c68:	4816      	ldr	r0, [pc, #88]	; (8004cc4 <deleteEnemyNode+0x164>)
 8004c6a:	f001 fc99 	bl	80065a0 <iprintf>
			preNode->nextEnemyNode = thisNode->nextEnemyNode;
 8004c6e:	68bb      	ldr	r3, [r7, #8]
 8004c70:	685a      	ldr	r2, [r3, #4]
 8004c72:	68fb      	ldr	r3, [r7, #12]
 8004c74:	605a      	str	r2, [r3, #4]
			free(thisNode->enemy->nextPosition);
 8004c76:	68bb      	ldr	r3, [r7, #8]
 8004c78:	681b      	ldr	r3, [r3, #0]
 8004c7a:	685b      	ldr	r3, [r3, #4]
 8004c7c:	4618      	mov	r0, r3
 8004c7e:	f001 fbd5 	bl	800642c <free>
			free(thisNode->enemy->position);
 8004c82:	68bb      	ldr	r3, [r7, #8]
 8004c84:	681b      	ldr	r3, [r3, #0]
 8004c86:	681b      	ldr	r3, [r3, #0]
 8004c88:	4618      	mov	r0, r3
 8004c8a:	f001 fbcf 	bl	800642c <free>
			free(thisNode->enemy->velocity);
 8004c8e:	68bb      	ldr	r3, [r7, #8]
 8004c90:	681b      	ldr	r3, [r3, #0]
 8004c92:	689b      	ldr	r3, [r3, #8]
 8004c94:	4618      	mov	r0, r3
 8004c96:	f001 fbc9 	bl	800642c <free>
			free(thisNode->enemy);
 8004c9a:	68bb      	ldr	r3, [r7, #8]
 8004c9c:	681b      	ldr	r3, [r3, #0]
 8004c9e:	4618      	mov	r0, r3
 8004ca0:	f001 fbc4 	bl	800642c <free>
			free(thisNode);
 8004ca4:	68b8      	ldr	r0, [r7, #8]
 8004ca6:	f001 fbc1 	bl	800642c <free>
			return;
 8004caa:	e007      	b.n	8004cbc <deleteEnemyNode+0x15c>
		}
		preNode = thisNode;
 8004cac:	68bb      	ldr	r3, [r7, #8]
 8004cae:	60fb      	str	r3, [r7, #12]
		thisNode = thisNode->nextEnemyNode;
 8004cb0:	68bb      	ldr	r3, [r7, #8]
 8004cb2:	685b      	ldr	r3, [r3, #4]
 8004cb4:	60bb      	str	r3, [r7, #8]
	while(thisNode != NULL){
 8004cb6:	68bb      	ldr	r3, [r7, #8]
 8004cb8:	2b00      	cmp	r3, #0
 8004cba:	d19f      	bne.n	8004bfc <deleteEnemyNode+0x9c>
	}
}
 8004cbc:	3714      	adds	r7, #20
 8004cbe:	46bd      	mov	sp, r7
 8004cc0:	bd90      	pop	{r4, r7, pc}
 8004cc2:	bf00      	nop
 8004cc4:	08007d00 	.word	0x08007d00

08004cc8 <deleteBulletNode>:
/**
  * @brief  Deletes an element from the bulletList
  * @param  head: the head of the bullet list, nodeToDelete: the bullet to delete
  * @retval None
  */
void deleteBulletNode(bulletNode_t** head, bulletNode_t* nodeToDelete) {
 8004cc8:	b590      	push	{r4, r7, lr}
 8004cca:	b085      	sub	sp, #20
 8004ccc:	af00      	add	r7, sp, #0
 8004cce:	6078      	str	r0, [r7, #4]
 8004cd0:	6039      	str	r1, [r7, #0]

    if (*head == NULL || nodeToDelete == NULL) {
 8004cd2:	687b      	ldr	r3, [r7, #4]
 8004cd4:	681b      	ldr	r3, [r3, #0]
 8004cd6:	2b00      	cmp	r3, #0
 8004cd8:	d03c      	beq.n	8004d54 <deleteBulletNode+0x8c>
 8004cda:	683b      	ldr	r3, [r7, #0]
 8004cdc:	2b00      	cmp	r3, #0
 8004cde:	d039      	beq.n	8004d54 <deleteBulletNode+0x8c>
        return;
    }

    gotoxy(fpToInt(nodeToDelete->bullet.position.x), fpToInt(nodeToDelete->bullet.position.y)/yScale);
 8004ce0:	683b      	ldr	r3, [r7, #0]
 8004ce2:	681b      	ldr	r3, [r3, #0]
 8004ce4:	4618      	mov	r0, r3
 8004ce6:	f7fe fb67 	bl	80033b8 <fpToInt>
 8004cea:	4604      	mov	r4, r0
 8004cec:	683b      	ldr	r3, [r7, #0]
 8004cee:	685b      	ldr	r3, [r3, #4]
 8004cf0:	4618      	mov	r0, r3
 8004cf2:	f7fe fb61 	bl	80033b8 <fpToInt>
 8004cf6:	4603      	mov	r3, r0
 8004cf8:	0fda      	lsrs	r2, r3, #31
 8004cfa:	4413      	add	r3, r2
 8004cfc:	105b      	asrs	r3, r3, #1
 8004cfe:	4619      	mov	r1, r3
 8004d00:	4620      	mov	r0, r4
 8004d02:	f7fc ffd3 	bl	8001cac <gotoxy>
    printf(" ");
 8004d06:	2020      	movs	r0, #32
 8004d08:	f001 fc62 	bl	80065d0 <putchar>

	///If the enemy to delete is the first delete the head, sets the head as the second element, and free the memory
    if (*head == nodeToDelete) {
 8004d0c:	687b      	ldr	r3, [r7, #4]
 8004d0e:	681b      	ldr	r3, [r3, #0]
 8004d10:	683a      	ldr	r2, [r7, #0]
 8004d12:	429a      	cmp	r2, r3
 8004d14:	d107      	bne.n	8004d26 <deleteBulletNode+0x5e>
        *head = nodeToDelete->nextBulletAddress;
 8004d16:	683b      	ldr	r3, [r7, #0]
 8004d18:	69da      	ldr	r2, [r3, #28]
 8004d1a:	687b      	ldr	r3, [r7, #4]
 8004d1c:	601a      	str	r2, [r3, #0]
        free(nodeToDelete);
 8004d1e:	6838      	ldr	r0, [r7, #0]
 8004d20:	f001 fb84 	bl	800642c <free>
        return;
 8004d24:	e017      	b.n	8004d56 <deleteBulletNode+0x8e>
    }

	///Loops through the entire list of bullets and deletes the given bullet. Also "links" the previous element to the next, and frees memory
    bulletNode_t* current = *head;
 8004d26:	687b      	ldr	r3, [r7, #4]
 8004d28:	681b      	ldr	r3, [r3, #0]
 8004d2a:	60fb      	str	r3, [r7, #12]
    while (current != NULL && current->nextBulletAddress != nodeToDelete) {
 8004d2c:	e002      	b.n	8004d34 <deleteBulletNode+0x6c>
        current = current->nextBulletAddress;
 8004d2e:	68fb      	ldr	r3, [r7, #12]
 8004d30:	69db      	ldr	r3, [r3, #28]
 8004d32:	60fb      	str	r3, [r7, #12]
    while (current != NULL && current->nextBulletAddress != nodeToDelete) {
 8004d34:	68fb      	ldr	r3, [r7, #12]
 8004d36:	2b00      	cmp	r3, #0
 8004d38:	d004      	beq.n	8004d44 <deleteBulletNode+0x7c>
 8004d3a:	68fb      	ldr	r3, [r7, #12]
 8004d3c:	69db      	ldr	r3, [r3, #28]
 8004d3e:	683a      	ldr	r2, [r7, #0]
 8004d40:	429a      	cmp	r2, r3
 8004d42:	d1f4      	bne.n	8004d2e <deleteBulletNode+0x66>
    }
    current->nextBulletAddress = nodeToDelete->nextBulletAddress;
 8004d44:	683b      	ldr	r3, [r7, #0]
 8004d46:	69da      	ldr	r2, [r3, #28]
 8004d48:	68fb      	ldr	r3, [r7, #12]
 8004d4a:	61da      	str	r2, [r3, #28]
    free(nodeToDelete);
 8004d4c:	6838      	ldr	r0, [r7, #0]
 8004d4e:	f001 fb6d 	bl	800642c <free>
 8004d52:	e000      	b.n	8004d56 <deleteBulletNode+0x8e>
        return;
 8004d54:	bf00      	nop
}
 8004d56:	3714      	adds	r7, #20
 8004d58:	46bd      	mov	sp, r7
 8004d5a:	bd90      	pop	{r4, r7, pc}

08004d5c <initVariables>:
/**
  * @brief  Sets all the relevant variables to reset values
  * @param  gamestate: the current state of the game
  * @retval None
  */
void initVariables(gameState_t* gameState){
 8004d5c:	b5b0      	push	{r4, r5, r7, lr}
 8004d5e:	b08e      	sub	sp, #56	; 0x38
 8004d60:	af00      	add	r7, sp, #0
 8004d62:	6078      	str	r0, [r7, #4]
	spaceship_t initSpaceship = {{intToFp(3), intToFp(40*yScale)}, //previous position
 8004d64:	2003      	movs	r0, #3
 8004d66:	f7fe fb12 	bl	800338e <intToFp>
 8004d6a:	4603      	mov	r3, r0
 8004d6c:	61bb      	str	r3, [r7, #24]
 8004d6e:	2050      	movs	r0, #80	; 0x50
 8004d70:	f7fe fb0d 	bl	800338e <intToFp>
 8004d74:	4603      	mov	r3, r0
 8004d76:	61fb      	str	r3, [r7, #28]
			{intToFp(3), intToFp(40*yScale)}, //position
 8004d78:	2003      	movs	r0, #3
 8004d7a:	f7fe fb08 	bl	800338e <intToFp>
 8004d7e:	4603      	mov	r3, r0
	spaceship_t initSpaceship = {{intToFp(3), intToFp(40*yScale)}, //previous position
 8004d80:	623b      	str	r3, [r7, #32]
			{intToFp(3), intToFp(40*yScale)}, //position
 8004d82:	2050      	movs	r0, #80	; 0x50
 8004d84:	f7fe fb03 	bl	800338e <intToFp>
 8004d88:	4603      	mov	r3, r0
	spaceship_t initSpaceship = {{intToFp(3), intToFp(40*yScale)}, //previous position
 8004d8a:	627b      	str	r3, [r7, #36]	; 0x24
			{intToFp(3), intToFp(40*yScale)}, //next Position
 8004d8c:	2003      	movs	r0, #3
 8004d8e:	f7fe fafe 	bl	800338e <intToFp>
 8004d92:	4603      	mov	r3, r0
	spaceship_t initSpaceship = {{intToFp(3), intToFp(40*yScale)}, //previous position
 8004d94:	62bb      	str	r3, [r7, #40]	; 0x28
			{intToFp(3), intToFp(40*yScale)}, //next Position
 8004d96:	2050      	movs	r0, #80	; 0x50
 8004d98:	f7fe faf9 	bl	800338e <intToFp>
 8004d9c:	4603      	mov	r3, r0
	spaceship_t initSpaceship = {{intToFp(3), intToFp(40*yScale)}, //previous position
 8004d9e:	62fb      	str	r3, [r7, #44]	; 0x2c
 8004da0:	2301      	movs	r3, #1
 8004da2:	f887 3030 	strb.w	r3, [r7, #48]	; 0x30
 8004da6:	2300      	movs	r3, #0
 8004da8:	f887 3031 	strb.w	r3, [r7, #49]	; 0x31
			1, 0}; //Number of parts, powerups
	moon_t moon = {70,20*yScale,100};// (x, y, mass)
 8004dac:	4a40      	ldr	r2, [pc, #256]	; (8004eb0 <initVariables+0x154>)
 8004dae:	f107 0314 	add.w	r3, r7, #20
 8004db2:	6812      	ldr	r2, [r2, #0]
 8004db4:	4611      	mov	r1, r2
 8004db6:	8019      	strh	r1, [r3, #0]
 8004db8:	3302      	adds	r3, #2
 8004dba:	0c12      	lsrs	r2, r2, #16
 8004dbc:	701a      	strb	r2, [r3, #0]
	
	gameState->enemyLL = NULL;
 8004dbe:	687b      	ldr	r3, [r7, #4]
 8004dc0:	2200      	movs	r2, #0
 8004dc2:	605a      	str	r2, [r3, #4]
	gameState->bulletLL = NULL;
 8004dc4:	687b      	ldr	r3, [r7, #4]
 8004dc6:	2200      	movs	r2, #0
 8004dc8:	601a      	str	r2, [r3, #0]

	nuke_t* nuke = malloc(sizeof(nuke_t));
 8004dca:	2028      	movs	r0, #40	; 0x28
 8004dcc:	f001 fb26 	bl	800641c <malloc>
 8004dd0:	4603      	mov	r3, r0
 8004dd2:	637b      	str	r3, [r7, #52]	; 0x34
	position_t pos = {0,0};
 8004dd4:	2300      	movs	r3, #0
 8004dd6:	60fb      	str	r3, [r7, #12]
 8004dd8:	2300      	movs	r3, #0
 8004dda:	613b      	str	r3, [r7, #16]
	nuke->position = pos;
 8004ddc:	6b7b      	ldr	r3, [r7, #52]	; 0x34
 8004dde:	461a      	mov	r2, r3
 8004de0:	f107 030c 	add.w	r3, r7, #12
 8004de4:	e893 0003 	ldmia.w	r3, {r0, r1}
 8004de8:	e882 0003 	stmia.w	r2, {r0, r1}
	nuke->nextPosition = pos;
 8004dec:	6b7b      	ldr	r3, [r7, #52]	; 0x34
 8004dee:	3308      	adds	r3, #8
 8004df0:	f107 020c 	add.w	r2, r7, #12
 8004df4:	e892 0003 	ldmia.w	r2, {r0, r1}
 8004df8:	e883 0003 	stmia.w	r3, {r0, r1}
	//nuke->velocity = {0,0};
	nuke->isDeployed = 0;
 8004dfc:	6b7b      	ldr	r3, [r7, #52]	; 0x34
 8004dfe:	2200      	movs	r2, #0
 8004e00:	761a      	strb	r2, [r3, #24]
	nuke->readyState = 0;
 8004e02:	6b7b      	ldr	r3, [r7, #52]	; 0x34
 8004e04:	2200      	movs	r2, #0
 8004e06:	765a      	strb	r2, [r3, #25]
	gameState->nuke = nuke;
 8004e08:	687b      	ldr	r3, [r7, #4]
 8004e0a:	6b7a      	ldr	r2, [r7, #52]	; 0x34
 8004e0c:	62da      	str	r2, [r3, #44]	; 0x2c
	gameState->nuke->lastDetonationTime = 0xFFFFFFFF;
 8004e0e:	687b      	ldr	r3, [r7, #4]
 8004e10:	6adb      	ldr	r3, [r3, #44]	; 0x2c
 8004e12:	f04f 32ff 	mov.w	r2, #4294967295	; 0xffffffff
 8004e16:	61da      	str	r2, [r3, #28]
	gameState->nuke->circleClear = 1;
 8004e18:	687b      	ldr	r3, [r7, #4]
 8004e1a:	6adb      	ldr	r3, [r3, #44]	; 0x2c
 8004e1c:	2201      	movs	r2, #1
 8004e1e:	f883 2020 	strb.w	r2, [r3, #32]


	gameState->activeScreen=0; //menu screen
 8004e22:	687b      	ldr	r3, [r7, #4]
 8004e24:	2200      	movs	r2, #0
 8004e26:	f883 2035 	strb.w	r2, [r3, #53]	; 0x35
	gameState->difficulty=1;   // medium (if changed here, update also definition of diffBtn)
 8004e2a:	687b      	ldr	r3, [r7, #4]
 8004e2c:	2201      	movs	r2, #1
 8004e2e:	f883 2039 	strb.w	r2, [r3, #57]	; 0x39
	gameState->btnSelected=0; //start game
 8004e32:	687b      	ldr	r3, [r7, #4]
 8004e34:	2200      	movs	r2, #0
 8004e36:	f883 2037 	strb.w	r2, [r3, #55]	; 0x37
	gameState->isDead=0;
 8004e3a:	687b      	ldr	r3, [r7, #4]
 8004e3c:	2200      	movs	r2, #0
 8004e3e:	f883 2038 	strb.w	r2, [r3, #56]	; 0x38
	gameState->score=0;
 8004e42:	687b      	ldr	r3, [r7, #4]
 8004e44:	2200      	movs	r2, #0
 8004e46:	865a      	strh	r2, [r3, #50]	; 0x32
	gameState->cityLives=3;
 8004e48:	687b      	ldr	r3, [r7, #4]
 8004e4a:	2203      	movs	r2, #3
 8004e4c:	f883 2030 	strb.w	r2, [r3, #48]	; 0x30
	gameState->spaceship= initSpaceship;
 8004e50:	687b      	ldr	r3, [r7, #4]
 8004e52:	f103 0410 	add.w	r4, r3, #16
 8004e56:	f107 0518 	add.w	r5, r7, #24
 8004e5a:	cd0f      	ldmia	r5!, {r0, r1, r2, r3}
 8004e5c:	c40f      	stmia	r4!, {r0, r1, r2, r3}
 8004e5e:	e895 0007 	ldmia.w	r5, {r0, r1, r2}
 8004e62:	e884 0007 	stmia.w	r4, {r0, r1, r2}
	gameState->bossMode = 0;
 8004e66:	687b      	ldr	r3, [r7, #4]
 8004e68:	2200      	movs	r2, #0
 8004e6a:	f883 2036 	strb.w	r2, [r3, #54]	; 0x36
	gameState->moon = moon;
 8004e6e:	687b      	ldr	r3, [r7, #4]
 8004e70:	330c      	adds	r3, #12
 8004e72:	f107 0214 	add.w	r2, r7, #20
 8004e76:	6812      	ldr	r2, [r2, #0]
 8004e78:	4611      	mov	r1, r2
 8004e7a:	8019      	strh	r1, [r3, #0]
 8004e7c:	3302      	adds	r3, #2
 8004e7e:	0c12      	lsrs	r2, r2, #16
 8004e80:	701a      	strb	r2, [r3, #0]
	gameState->powerup.lastUseTime=0;
 8004e82:	687b      	ldr	r3, [r7, #4]
 8004e84:	2200      	movs	r2, #0
 8004e86:	661a      	str	r2, [r3, #96]	; 0x60
	gameState->powerup.isVisible=0;
 8004e88:	687b      	ldr	r3, [r7, #4]
 8004e8a:	2200      	movs	r2, #0
 8004e8c:	f883 2044 	strb.w	r2, [r3, #68]	; 0x44

	gameState->soundIndex = 0;
 8004e90:	687b      	ldr	r3, [r7, #4]
 8004e92:	2200      	movs	r2, #0
 8004e94:	f883 2066 	strb.w	r2, [r3, #102]	; 0x66
	gameState->soundTime = 0;
 8004e98:	687b      	ldr	r3, [r7, #4]
 8004e9a:	2200      	movs	r2, #0
 8004e9c:	669a      	str	r2, [r3, #104]	; 0x68
	gameState->soundToPlay = 0;
 8004e9e:	687b      	ldr	r3, [r7, #4]
 8004ea0:	2200      	movs	r2, #0
 8004ea2:	f883 2064 	strb.w	r2, [r3, #100]	; 0x64
}
 8004ea6:	bf00      	nop
 8004ea8:	3738      	adds	r7, #56	; 0x38
 8004eaa:	46bd      	mov	sp, r7
 8004eac:	bdb0      	pop	{r4, r5, r7, pc}
 8004eae:	bf00      	nop
 8004eb0:	08007d08 	.word	0x08007d08

08004eb4 <drawScreen>:
/**
  * @brief  draws the current state of the game
  * @param  gamestate: the current state of the game
  * @retval None
  */
void drawScreen(gameState_t* gameState) {
 8004eb4:	b580      	push	{r7, lr}
 8004eb6:	b082      	sub	sp, #8
 8004eb8:	af00      	add	r7, sp, #0
 8004eba:	6078      	str	r0, [r7, #4]
	drawSpaceship(gameState);
 8004ebc:	6878      	ldr	r0, [r7, #4]
 8004ebe:	f001 f873 	bl	8005fa8 <drawSpaceship>
	drawEnemy(gameState);
 8004ec2:	6878      	ldr	r0, [r7, #4]
 8004ec4:	f7fe fdbe 	bl	8003a44 <drawEnemy>
	drawBullets(gameState);
 8004ec8:	6878      	ldr	r0, [r7, #4]
 8004eca:	f7fd fa03 	bl	80022d4 <drawBullets>
	drawPowerup(gameState);
 8004ece:	6878      	ldr	r0, [r7, #4]
 8004ed0:	f000 fe45 	bl	8005b5e <drawPowerup>
	drawhearth(gameState);
 8004ed4:	6878      	ldr	r0, [r7, #4]
 8004ed6:	f7fe fd33 	bl	8003940 <drawhearth>
	drawMoon(gameState->moon.x, gameState->moon.y);
 8004eda:	687b      	ldr	r3, [r7, #4]
 8004edc:	7b1a      	ldrb	r2, [r3, #12]
 8004ede:	687b      	ldr	r3, [r7, #4]
 8004ee0:	7b5b      	ldrb	r3, [r3, #13]
 8004ee2:	4619      	mov	r1, r3
 8004ee4:	4610      	mov	r0, r2
 8004ee6:	f7fe fbf8 	bl	80036da <drawMoon>
	drawNuke(gameState);
 8004eea:	6878      	ldr	r0, [r7, #4]
 8004eec:	f7ff fa84 	bl	80043f8 <drawNuke>
}
 8004ef0:	bf00      	nop
 8004ef2:	3708      	adds	r7, #8
 8004ef4:	46bd      	mov	sp, r7
 8004ef6:	bd80      	pop	{r7, pc}

08004ef8 <checkIfDead>:
/**
  * @brief  checks if the player is dead, and writes the score to memory if applicable
  * @param  gamestate: the current state of the game
  * @retval None
  */
void checkIfDead(gameState_t* gameState){
 8004ef8:	b580      	push	{r7, lr}
 8004efa:	b084      	sub	sp, #16
 8004efc:	af00      	add	r7, sp, #0
 8004efe:	6078      	str	r0, [r7, #4]

	if(gameState->cityLives == 0){
 8004f00:	687b      	ldr	r3, [r7, #4]
 8004f02:	f893 3030 	ldrb.w	r3, [r3, #48]	; 0x30
 8004f06:	2b00      	cmp	r3, #0
 8004f08:	d113      	bne.n	8004f32 <checkIfDead+0x3a>
		gameState->activeScreen = 3;
 8004f0a:	687b      	ldr	r3, [r7, #4]
 8004f0c:	2203      	movs	r2, #3
 8004f0e:	f883 2035 	strb.w	r2, [r3, #53]	; 0x35
		uint16_t oldScore = readFromFlash(0x0800F800);
 8004f12:	480a      	ldr	r0, [pc, #40]	; (8004f3c <checkIfDead+0x44>)
 8004f14:	f7fd fff1 	bl	8002efa <readFromFlash>
 8004f18:	4603      	mov	r3, r0
 8004f1a:	81fb      	strh	r3, [r7, #14]
		if(gameState->score > oldScore){
 8004f1c:	687b      	ldr	r3, [r7, #4]
 8004f1e:	8e5b      	ldrh	r3, [r3, #50]	; 0x32
 8004f20:	89fa      	ldrh	r2, [r7, #14]
 8004f22:	429a      	cmp	r2, r3
 8004f24:	d205      	bcs.n	8004f32 <checkIfDead+0x3a>
			writeToFlash(gameState->score, 0x0800F800);
 8004f26:	687b      	ldr	r3, [r7, #4]
 8004f28:	8e5b      	ldrh	r3, [r3, #50]	; 0x32
 8004f2a:	4904      	ldr	r1, [pc, #16]	; (8004f3c <checkIfDead+0x44>)
 8004f2c:	4618      	mov	r0, r3
 8004f2e:	f7fd ffcb 	bl	8002ec8 <writeToFlash>
		}
	}
}
 8004f32:	bf00      	nop
 8004f34:	3710      	adds	r7, #16
 8004f36:	46bd      	mov	sp, r7
 8004f38:	bd80      	pop	{r7, pc}
 8004f3a:	bf00      	nop
 8004f3c:	0800f800 	.word	0x0800f800

08004f40 <checkBossKey>:
/**
  * @brief  Checks if 'f' is pressed and (de)activates bossKey i it's pressed
  * @param  gamestate: the current state of the game
  * @retval None
  */
void checkBossKey(gameState_t* gameState){
 8004f40:	b580      	push	{r7, lr}
 8004f42:	b084      	sub	sp, #16
 8004f44:	af00      	add	r7, sp, #0
 8004f46:	6078      	str	r0, [r7, #4]
	char c = uart_get_char();
 8004f48:	f7fc fcc6 	bl	80018d8 <uart_get_char>
 8004f4c:	4603      	mov	r3, r0
 8004f4e:	73fb      	strb	r3, [r7, #15]
	if(c == 'f'){
 8004f50:	7bfb      	ldrb	r3, [r7, #15]
 8004f52:	2b66      	cmp	r3, #102	; 0x66
 8004f54:	d117      	bne.n	8004f86 <checkBossKey+0x46>
		if(gameState->activeScreen != 4){
 8004f56:	687b      	ldr	r3, [r7, #4]
 8004f58:	f893 3035 	ldrb.w	r3, [r3, #53]	; 0x35
 8004f5c:	2b04      	cmp	r3, #4
 8004f5e:	d00c      	beq.n	8004f7a <checkBossKey+0x3a>
			clrscr();
 8004f60:	f7fc fe94 	bl	8001c8c <clrscr>
			gameState->lastScreen = gameState->activeScreen;
 8004f64:	687b      	ldr	r3, [r7, #4]
 8004f66:	f893 2035 	ldrb.w	r2, [r3, #53]	; 0x35
 8004f6a:	687b      	ldr	r3, [r7, #4]
 8004f6c:	f883 2034 	strb.w	r2, [r3, #52]	; 0x34
			gameState->activeScreen = 4;
 8004f70:	687b      	ldr	r3, [r7, #4]
 8004f72:	2204      	movs	r2, #4
 8004f74:	f883 2035 	strb.w	r2, [r3, #53]	; 0x35
		}else{
			gameState->activeScreen = gameState->lastScreen;
		}
	}
}
 8004f78:	e005      	b.n	8004f86 <checkBossKey+0x46>
			gameState->activeScreen = gameState->lastScreen;
 8004f7a:	687b      	ldr	r3, [r7, #4]
 8004f7c:	f893 2034 	ldrb.w	r2, [r3, #52]	; 0x34
 8004f80:	687b      	ldr	r3, [r7, #4]
 8004f82:	f883 2035 	strb.w	r2, [r3, #53]	; 0x35
}
 8004f86:	bf00      	nop
 8004f88:	3710      	adds	r7, #16
 8004f8a:	46bd      	mov	sp, r7
 8004f8c:	bd80      	pop	{r7, pc}
	...

08004f90 <main>:
/**
  * @brief  The main loop of the game. Runs the menus, if activeScreen == 1 runs the game.
  * @param  None
  * @retval None
  */
int main(void) {
 8004f90:	b580      	push	{r7, lr}
 8004f92:	b0a4      	sub	sp, #144	; 0x90
 8004f94:	af00      	add	r7, sp, #0

	//Defines the menu buttons
	const button_t startBtn = {75,15,"START"};
	const button_t diffBtn = {68,20,"DIFFICULTY: MEDIUM"};
	const button_t helpBtn = {75,25,"HELP"};
	button_t btnList[] = {startBtn, diffBtn, helpBtn}; //always only 3 buttons!
 8004f96:	4ada      	ldr	r2, [pc, #872]	; (8005300 <main+0x370>)
 8004f98:	f107 0308 	add.w	r3, r7, #8
 8004f9c:	e892 0003 	ldmia.w	r2, {r0, r1}
 8004fa0:	e883 0003 	stmia.w	r3, {r0, r1}
 8004fa4:	4ad7      	ldr	r2, [pc, #860]	; (8005304 <main+0x374>)
 8004fa6:	f107 0310 	add.w	r3, r7, #16
 8004faa:	e892 0003 	ldmia.w	r2, {r0, r1}
 8004fae:	e883 0003 	stmia.w	r3, {r0, r1}
 8004fb2:	4ad5      	ldr	r2, [pc, #852]	; (8005308 <main+0x378>)
 8004fb4:	f107 0318 	add.w	r3, r7, #24
 8004fb8:	e892 0003 	ldmia.w	r2, {r0, r1}
 8004fbc:	e883 0003 	stmia.w	r3, {r0, r1}

	//Sets up all the used hardware
	uart_init(512000);
 8004fc0:	f44f 20fa 	mov.w	r0, #512000	; 0x7d000
 8004fc4:	f7fc fd2c 	bl	8001a20 <uart_init>
	initVariables(&gameState);
 8004fc8:	f107 0320 	add.w	r3, r7, #32
 8004fcc:	4618      	mov	r0, r3
 8004fce:	f7ff fec5 	bl	8004d5c <initVariables>
	initJoystick();
 8004fd2:	f7fd fa0b 	bl	80023ec <initJoystick>
	initTimer();
 8004fd6:	f7fd fb29 	bl	800262c <initTimer>
	initBuzzerPin();
 8004fda:	f7fd fbc1 	bl	8002760 <initBuzzerPin>
	initRGB();
 8004fde:	f7fd fe43 	bl	8002c68 <initRGB>
	I2C_init();
 8004fe2:	f7fd fcc3 	bl	800296c <I2C_init>
	analogConfigPorts();
 8004fe6:	f7fd fd79 	bl	8002adc <analogConfigPorts>
	uint8_t color[] = {0,0,0};
 8004fea:	4ac8      	ldr	r2, [pc, #800]	; (800530c <main+0x37c>)
 8004fec:	1d3b      	adds	r3, r7, #4
 8004fee:	6812      	ldr	r2, [r2, #0]
 8004ff0:	4611      	mov	r1, r2
 8004ff2:	8019      	strh	r1, [r3, #0]
 8004ff4:	3302      	adds	r3, #2
 8004ff6:	0c12      	lsrs	r2, r2, #16
 8004ff8:	701a      	strb	r2, [r3, #0]
	RGBColor(color);
 8004ffa:	1d3b      	adds	r3, r7, #4
 8004ffc:	4618      	mov	r0, r3
 8004ffe:	f7fd ff1b 	bl	8002e38 <RGBColor>
	srand(readPotentiometer());   //RNG
 8005002:	f7fd fe0f 	bl	8002c24 <readPotentiometer>
 8005006:	4603      	mov	r3, r0
 8005008:	4618      	mov	r0, r3
 800500a:	f001 fb6d 	bl	80066e8 <srand>

	while(1){
		switch(gameState.activeScreen){
 800500e:	f897 3055 	ldrb.w	r3, [r7, #85]	; 0x55
 8005012:	2b04      	cmp	r3, #4
 8005014:	d8fb      	bhi.n	800500e <main+0x7e>
 8005016:	a201      	add	r2, pc, #4	; (adr r2, 800501c <main+0x8c>)
 8005018:	f852 f023 	ldr.w	pc, [r2, r3, lsl #2]
 800501c:	08005031 	.word	0x08005031
 8005020:	080051b1 	.word	0x080051b1
 8005024:	080052c9 	.word	0x080052c9
 8005028:	08005325 	.word	0x08005325
 800502c:	08005369 	.word	0x08005369
		case 0: //MENU SCREEN ---------------------------------------------------------------------
			//Sets up the menu
			clrscr();
 8005030:	f7fc fe2c 	bl	8001c8c <clrscr>
			drawWindow(0);
 8005034:	2000      	movs	r0, #0
 8005036:	f000 fa51 	bl	80054dc <drawWindow>
			drawbackground(); // stars in background
 800503a:	f7fe fa5c 	bl	80034f6 <drawbackground>
			drawMoon(gameState.moon.x, gameState.moon.y);
 800503e:	f897 302c 	ldrb.w	r3, [r7, #44]	; 0x2c
 8005042:	f897 202d 	ldrb.w	r2, [r7, #45]	; 0x2d
 8005046:	4611      	mov	r1, r2
 8005048:	4618      	mov	r0, r3
 800504a:	f7fe fb46 	bl	80036da <drawMoon>
			drawMenuScreen(btnList, &gameState);
 800504e:	f107 0220 	add.w	r2, r7, #32
 8005052:	f107 0308 	add.w	r3, r7, #8
 8005056:	4611      	mov	r1, r2
 8005058:	4618      	mov	r0, r3
 800505a:	f000 fa05 	bl	8005468 <drawMenuScreen>

			//Continuously checks if the joystick is used and acts accordingly
			while(gameState.activeScreen==0){
 800505e:	e0a1      	b.n	80051a4 <main+0x214>
				checkBossKey(&gameState);
 8005060:	f107 0320 	add.w	r3, r7, #32
 8005064:	4618      	mov	r0, r3
 8005066:	f7ff ff6b 	bl	8004f40 <checkBossKey>
				if(downIsPressed()){
 800506a:	f7fd fab1 	bl	80025d0 <downIsPressed>
 800506e:	4603      	mov	r3, r0
 8005070:	2b00      	cmp	r3, #0
 8005072:	d025      	beq.n	80050c0 <main+0x130>
					drawBtnAsDeselected(btnList[gameState.btnSelected]);
 8005074:	f897 3057 	ldrb.w	r3, [r7, #87]	; 0x57
 8005078:	00db      	lsls	r3, r3, #3
 800507a:	f107 0290 	add.w	r2, r7, #144	; 0x90
 800507e:	4413      	add	r3, r2
 8005080:	3b88      	subs	r3, #136	; 0x88
 8005082:	e893 0003 	ldmia.w	r3, {r0, r1}
 8005086:	f000 f9cf 	bl	8005428 <drawBtnAsDeselected>
					gameState.btnSelected=(gameState.btnSelected+1)%3;
 800508a:	f897 3057 	ldrb.w	r3, [r7, #87]	; 0x57
 800508e:	1c5a      	adds	r2, r3, #1
 8005090:	4b9f      	ldr	r3, [pc, #636]	; (8005310 <main+0x380>)
 8005092:	fb83 3102 	smull	r3, r1, r3, r2
 8005096:	17d3      	asrs	r3, r2, #31
 8005098:	1ac9      	subs	r1, r1, r3
 800509a:	460b      	mov	r3, r1
 800509c:	005b      	lsls	r3, r3, #1
 800509e:	440b      	add	r3, r1
 80050a0:	1ad1      	subs	r1, r2, r3
 80050a2:	b2cb      	uxtb	r3, r1
 80050a4:	f887 3057 	strb.w	r3, [r7, #87]	; 0x57
					drawBtnAsSelected(btnList[gameState.btnSelected]);
 80050a8:	f897 3057 	ldrb.w	r3, [r7, #87]	; 0x57
 80050ac:	00db      	lsls	r3, r3, #3
 80050ae:	f107 0290 	add.w	r2, r7, #144	; 0x90
 80050b2:	4413      	add	r3, r2
 80050b4:	3b88      	subs	r3, #136	; 0x88
 80050b6:	e893 0003 	ldmia.w	r3, {r0, r1}
 80050ba:	f000 f995 	bl	80053e8 <drawBtnAsSelected>
 80050be:	e028      	b.n	8005112 <main+0x182>
				}
				else if(upIsPressed()){
 80050c0:	f7fd fa58 	bl	8002574 <upIsPressed>
 80050c4:	4603      	mov	r3, r0
 80050c6:	2b00      	cmp	r3, #0
 80050c8:	d023      	beq.n	8005112 <main+0x182>
					drawBtnAsDeselected(btnList[gameState.btnSelected]);
 80050ca:	f897 3057 	ldrb.w	r3, [r7, #87]	; 0x57
 80050ce:	00db      	lsls	r3, r3, #3
 80050d0:	f107 0290 	add.w	r2, r7, #144	; 0x90
 80050d4:	4413      	add	r3, r2
 80050d6:	3b88      	subs	r3, #136	; 0x88
 80050d8:	e893 0003 	ldmia.w	r3, {r0, r1}
 80050dc:	f000 f9a4 	bl	8005428 <drawBtnAsDeselected>
					if(gameState.btnSelected==0) gameState.btnSelected=2;
 80050e0:	f897 3057 	ldrb.w	r3, [r7, #87]	; 0x57
 80050e4:	2b00      	cmp	r3, #0
 80050e6:	d103      	bne.n	80050f0 <main+0x160>
 80050e8:	2302      	movs	r3, #2
 80050ea:	f887 3057 	strb.w	r3, [r7, #87]	; 0x57
 80050ee:	e005      	b.n	80050fc <main+0x16c>
					else gameState.btnSelected=gameState.btnSelected-1;
 80050f0:	f897 3057 	ldrb.w	r3, [r7, #87]	; 0x57
 80050f4:	3b01      	subs	r3, #1
 80050f6:	b2db      	uxtb	r3, r3
 80050f8:	f887 3057 	strb.w	r3, [r7, #87]	; 0x57
					drawBtnAsSelected(btnList[gameState.btnSelected]);
 80050fc:	f897 3057 	ldrb.w	r3, [r7, #87]	; 0x57
 8005100:	00db      	lsls	r3, r3, #3
 8005102:	f107 0290 	add.w	r2, r7, #144	; 0x90
 8005106:	4413      	add	r3, r2
 8005108:	3b88      	subs	r3, #136	; 0x88
 800510a:	e893 0003 	ldmia.w	r3, {r0, r1}
 800510e:	f000 f96b 	bl	80053e8 <drawBtnAsSelected>
				}
				if(centerIsPressed()){
 8005112:	f7fd fa01 	bl	8002518 <centerIsPressed>
 8005116:	4603      	mov	r3, r0
 8005118:	2b00      	cmp	r3, #0
 800511a:	d043      	beq.n	80051a4 <main+0x214>
					if(gameState.btnSelected==0){ //START BUTTON
 800511c:	f897 3057 	ldrb.w	r3, [r7, #87]	; 0x57
 8005120:	2b00      	cmp	r3, #0
 8005122:	d103      	bne.n	800512c <main+0x19c>
						gameState.activeScreen=1; //Game screen
 8005124:	2301      	movs	r3, #1
 8005126:	f887 3055 	strb.w	r3, [r7, #85]	; 0x55
 800512a:	e03b      	b.n	80051a4 <main+0x214>
					}
					else if(gameState.btnSelected==1){ // DIFFICULTY BUTTON
 800512c:	f897 3057 	ldrb.w	r3, [r7, #87]	; 0x57
 8005130:	2b01      	cmp	r3, #1
 8005132:	d130      	bne.n	8005196 <main+0x206>
						gameState.difficulty=(gameState.difficulty+1)%3;
 8005134:	f897 3059 	ldrb.w	r3, [r7, #89]	; 0x59
 8005138:	1c5a      	adds	r2, r3, #1
 800513a:	4b75      	ldr	r3, [pc, #468]	; (8005310 <main+0x380>)
 800513c:	fb83 3102 	smull	r3, r1, r3, r2
 8005140:	17d3      	asrs	r3, r2, #31
 8005142:	1ac9      	subs	r1, r1, r3
 8005144:	460b      	mov	r3, r1
 8005146:	005b      	lsls	r3, r3, #1
 8005148:	440b      	add	r3, r1
 800514a:	1ad1      	subs	r1, r2, r3
 800514c:	b2cb      	uxtb	r3, r1
 800514e:	f887 3059 	strb.w	r3, [r7, #89]	; 0x59
						gotoxy(diffBtn.x+15, diffBtn.y+1);
 8005152:	4b6c      	ldr	r3, [pc, #432]	; (8005304 <main+0x374>)
 8005154:	781b      	ldrb	r3, [r3, #0]
 8005156:	330f      	adds	r3, #15
 8005158:	4a6a      	ldr	r2, [pc, #424]	; (8005304 <main+0x374>)
 800515a:	7852      	ldrb	r2, [r2, #1]
 800515c:	3201      	adds	r2, #1
 800515e:	4611      	mov	r1, r2
 8005160:	4618      	mov	r0, r3
 8005162:	f7fc fda3 	bl	8001cac <gotoxy>
						if(gameState.difficulty==0){
 8005166:	f897 3059 	ldrb.w	r3, [r7, #89]	; 0x59
 800516a:	2b00      	cmp	r3, #0
 800516c:	d103      	bne.n	8005176 <main+0x1e6>
							printf("EASY  ");
 800516e:	4869      	ldr	r0, [pc, #420]	; (8005314 <main+0x384>)
 8005170:	f001 fa16 	bl	80065a0 <iprintf>
 8005174:	e016      	b.n	80051a4 <main+0x214>
						} else if(gameState.difficulty==1){
 8005176:	f897 3059 	ldrb.w	r3, [r7, #89]	; 0x59
 800517a:	2b01      	cmp	r3, #1
 800517c:	d103      	bne.n	8005186 <main+0x1f6>
							printf("MEDIUM");
 800517e:	4866      	ldr	r0, [pc, #408]	; (8005318 <main+0x388>)
 8005180:	f001 fa0e 	bl	80065a0 <iprintf>
 8005184:	e00e      	b.n	80051a4 <main+0x214>
						} else if(gameState.difficulty==2){
 8005186:	f897 3059 	ldrb.w	r3, [r7, #89]	; 0x59
 800518a:	2b02      	cmp	r3, #2
 800518c:	d10a      	bne.n	80051a4 <main+0x214>
							printf("HARD  ");
 800518e:	4863      	ldr	r0, [pc, #396]	; (800531c <main+0x38c>)
 8005190:	f001 fa06 	bl	80065a0 <iprintf>
 8005194:	e006      	b.n	80051a4 <main+0x214>
						}
					}
					else if(gameState.btnSelected==2){ // HELP BUTTON
 8005196:	f897 3057 	ldrb.w	r3, [r7, #87]	; 0x57
 800519a:	2b02      	cmp	r3, #2
 800519c:	d102      	bne.n	80051a4 <main+0x214>
						gameState.activeScreen=2;// help screen
 800519e:	2302      	movs	r3, #2
 80051a0:	f887 3055 	strb.w	r3, [r7, #85]	; 0x55
			while(gameState.activeScreen==0){
 80051a4:	f897 3055 	ldrb.w	r3, [r7, #85]	; 0x55
 80051a8:	2b00      	cmp	r3, #0
 80051aa:	f43f af59 	beq.w	8005060 <main+0xd0>
					}
				}
			}
			break;
 80051ae:	e0e9      	b.n	8005384 <main+0x3f4>
		case 1: // GAME SCREEN -----------------------------------------------------------------------
			//Sets up the game screen
			clrscr();
 80051b0:	f7fc fd6c 	bl	8001c8c <clrscr>
			uint32_t frameLastUpdated=0;
 80051b4:	2300      	movs	r3, #0
 80051b6:	f8c7 308c 	str.w	r3, [r7, #140]	; 0x8c
			gameState.powerup.lastUseTime = runtime;
 80051ba:	4b59      	ldr	r3, [pc, #356]	; (8005320 <main+0x390>)
 80051bc:	681b      	ldr	r3, [r3, #0]
 80051be:	f8c7 3080 	str.w	r3, [r7, #128]	; 0x80
			drawWindow(1);
 80051c2:	2001      	movs	r0, #1
 80051c4:	f000 f98a 	bl	80054dc <drawWindow>
			drawMoon(gameState.moon.x, gameState.moon.y);
 80051c8:	f897 302c 	ldrb.w	r3, [r7, #44]	; 0x2c
 80051cc:	f897 202d 	ldrb.w	r2, [r7, #45]	; 0x2d
 80051d0:	4611      	mov	r1, r2
 80051d2:	4618      	mov	r0, r3
 80051d4:	f7fe fa81 	bl	80036da <drawMoon>
			drawhearth(&gameState);
 80051d8:	f107 0320 	add.w	r3, r7, #32
 80051dc:	4618      	mov	r0, r3
 80051de:	f7fe fbaf 	bl	8003940 <drawhearth>
			drawCity();
 80051e2:	f7fe fccf 	bl	8003b84 <drawCity>

			drawScore(&gameState);
 80051e6:	f107 0320 	add.w	r3, r7, #32
 80051ea:	4618      	mov	r0, r3
 80051ec:	f7fe ffb4 	bl	8004158 <drawScore>
			gameState.powerup.lastUseTime = runtime; //Starts the spawing of powerups
 80051f0:	4b4b      	ldr	r3, [pc, #300]	; (8005320 <main+0x390>)
 80051f2:	681b      	ldr	r3, [r3, #0]
 80051f4:	f8c7 3080 	str.w	r3, [r7, #128]	; 0x80
			gameState.nuke->lastActivationTime = runtime; //Start charging of nuke
 80051f8:	6cfb      	ldr	r3, [r7, #76]	; 0x4c
 80051fa:	4a49      	ldr	r2, [pc, #292]	; (8005320 <main+0x390>)
 80051fc:	6812      	ldr	r2, [r2, #0]
 80051fe:	625a      	str	r2, [r3, #36]	; 0x24
			gameState.soundTime = runtime; //Starts the soundengine
 8005200:	4b47      	ldr	r3, [pc, #284]	; (8005320 <main+0x390>)
 8005202:	681b      	ldr	r3, [r3, #0]
 8005204:	f8c7 3088 	str.w	r3, [r7, #136]	; 0x88

			gameState.nextEnemySpawn = runtime + 20; //Spawns first enemy after 0.2 seconds
 8005208:	4b45      	ldr	r3, [pc, #276]	; (8005320 <main+0x390>)
 800520a:	681b      	ldr	r3, [r3, #0]
 800520c:	3314      	adds	r3, #20
 800520e:	62bb      	str	r3, [r7, #40]	; 0x28

			//Continuously updates the game updateing sound and bosskey as quicly as possible, and the rest 4 times pr second
			while(gameState.activeScreen==1){
 8005210:	e055      	b.n	80052be <main+0x32e>
				checkBossKey(&gameState);
 8005212:	f107 0320 	add.w	r3, r7, #32
 8005216:	4618      	mov	r0, r3
 8005218:	f7ff fe92 	bl	8004f40 <checkBossKey>
				playSound(&gameState);
 800521c:	f107 0320 	add.w	r3, r7, #32
 8005220:	4618      	mov	r0, r3
 8005222:	f000 fcdb 	bl	8005bdc <playSound>
				if(runtime-frameLastUpdated>=framePeriod){//
 8005226:	4b3e      	ldr	r3, [pc, #248]	; (8005320 <main+0x390>)
 8005228:	681a      	ldr	r2, [r3, #0]
 800522a:	f8d7 308c 	ldr.w	r3, [r7, #140]	; 0x8c
 800522e:	1ad3      	subs	r3, r2, r3
 8005230:	2b03      	cmp	r3, #3
 8005232:	d944      	bls.n	80052be <main+0x32e>
					spawnEnemy(&gameState);
 8005234:	f107 0320 	add.w	r3, r7, #32
 8005238:	4618      	mov	r0, r3
 800523a:	f7fd fef9 	bl	8003030 <spawnEnemy>
					spawnPowerup(&gameState);
 800523e:	f107 0320 	add.w	r3, r7, #32
 8005242:	4618      	mov	r0, r3
 8005244:	f000 fb3e 	bl	80058c4 <spawnPowerup>

					updateSpaceship(&gameState);
 8005248:	f107 0320 	add.w	r3, r7, #32
 800524c:	4618      	mov	r0, r3
 800524e:	f000 fd49 	bl	8005ce4 <updateSpaceship>
					updateEnemy(&gameState);
 8005252:	f107 0320 	add.w	r3, r7, #32
 8005256:	4618      	mov	r0, r3
 8005258:	f7fd ffa8 	bl	80031ac <updateEnemy>
					updatePowerup(&gameState);
 800525c:	f107 0320 	add.w	r3, r7, #32
 8005260:	4618      	mov	r0, r3
 8005262:	f000 fb91 	bl	8005988 <updatePowerup>
					shootSpaceship(&gameState);
 8005266:	f107 0320 	add.w	r3, r7, #32
 800526a:	4618      	mov	r0, r3
 800526c:	f000 fdb8 	bl	8005de0 <shootSpaceship>
					shootEnemy(&gameState);
 8005270:	f107 0320 	add.w	r3, r7, #32
 8005274:	4618      	mov	r0, r3
 8005276:	f7fd ffc9 	bl	800320c <shootEnemy>
					updateBullets(&gameState);
 800527a:	f107 0320 	add.w	r3, r7, #32
 800527e:	4618      	mov	r0, r3
 8005280:	f7fc fdf1 	bl	8001e66 <updateBullets>

					detectBulletHit(&gameState);
 8005284:	f107 0320 	add.w	r3, r7, #32
 8005288:	4618      	mov	r0, r3
 800528a:	f7fc fe70 	bl	8001f6e <detectBulletHit>
					detectCityHit(&gameState);
 800528e:	f107 0320 	add.w	r3, r7, #32
 8005292:	4618      	mov	r0, r3
 8005294:	f7fe f828 	bl	80032e8 <detectCityHit>
					updateNuke(&gameState);
 8005298:	f107 0320 	add.w	r3, r7, #32
 800529c:	4618      	mov	r0, r3
 800529e:	f000 facd 	bl	800583c <updateNuke>
					checkIfDead(&gameState);
 80052a2:	f107 0320 	add.w	r3, r7, #32
 80052a6:	4618      	mov	r0, r3
 80052a8:	f7ff fe26 	bl	8004ef8 <checkIfDead>

					drawScreen(&gameState);
 80052ac:	f107 0320 	add.w	r3, r7, #32
 80052b0:	4618      	mov	r0, r3
 80052b2:	f7ff fdff 	bl	8004eb4 <drawScreen>
					frameLastUpdated=runtime;
 80052b6:	4b1a      	ldr	r3, [pc, #104]	; (8005320 <main+0x390>)
 80052b8:	681b      	ldr	r3, [r3, #0]
 80052ba:	f8c7 308c 	str.w	r3, [r7, #140]	; 0x8c
			while(gameState.activeScreen==1){
 80052be:	f897 3055 	ldrb.w	r3, [r7, #85]	; 0x55
 80052c2:	2b01      	cmp	r3, #1
 80052c4:	d0a5      	beq.n	8005212 <main+0x282>
				}
		}
			break;
 80052c6:	e05d      	b.n	8005384 <main+0x3f4>
		case 2:// HELP SCREEN ------------------------------------------------------------------------
			//Sets up the help screen
			clrscr();
 80052c8:	f7fc fce0 	bl	8001c8c <clrscr>
			drawWindow(0);
 80052cc:	2000      	movs	r0, #0
 80052ce:	f000 f905 	bl	80054dc <drawWindow>
			drawbackground(); // stars in background
 80052d2:	f7fe f910 	bl	80034f6 <drawbackground>
			drawHelpScreen();
 80052d6:	f000 f8eb 	bl	80054b0 <drawHelpScreen>

			//If center is pressed leave the help screen
			while(gameState.activeScreen==2){
 80052da:	e00c      	b.n	80052f6 <main+0x366>
				checkBossKey(&gameState);
 80052dc:	f107 0320 	add.w	r3, r7, #32
 80052e0:	4618      	mov	r0, r3
 80052e2:	f7ff fe2d 	bl	8004f40 <checkBossKey>
				if(centerIsPressed()){
 80052e6:	f7fd f917 	bl	8002518 <centerIsPressed>
 80052ea:	4603      	mov	r3, r0
 80052ec:	2b00      	cmp	r3, #0
 80052ee:	d002      	beq.n	80052f6 <main+0x366>
					gameState.activeScreen=0;//MENU SCREEN
 80052f0:	2300      	movs	r3, #0
 80052f2:	f887 3055 	strb.w	r3, [r7, #85]	; 0x55
			while(gameState.activeScreen==2){
 80052f6:	f897 3055 	ldrb.w	r3, [r7, #85]	; 0x55
 80052fa:	2b02      	cmp	r3, #2
 80052fc:	d0ee      	beq.n	80052dc <main+0x34c>
				}
			}
			break;
 80052fe:	e041      	b.n	8005384 <main+0x3f4>
 8005300:	08007d98 	.word	0x08007d98
 8005304:	08007da0 	.word	0x08007da0
 8005308:	08007da8 	.word	0x08007da8
 800530c:	08007d3c 	.word	0x08007d3c
 8005310:	55555556 	.word	0x55555556
 8005314:	08007d0c 	.word	0x08007d0c
 8005318:	08007d14 	.word	0x08007d14
 800531c:	08007d1c 	.word	0x08007d1c
 8005320:	200001c8 	.word	0x200001c8
		case 3:// GAME OVER SCREEN -------------------------------------------------------------------
			//Sets up the game over screen
			clrscr();
 8005324:	f7fc fcb2 	bl	8001c8c <clrscr>
			printf("Your highscore is %d", readFromFlash(0x0800F800));
 8005328:	4817      	ldr	r0, [pc, #92]	; (8005388 <main+0x3f8>)
 800532a:	f7fd fde6 	bl	8002efa <readFromFlash>
 800532e:	4603      	mov	r3, r0
 8005330:	4619      	mov	r1, r3
 8005332:	4816      	ldr	r0, [pc, #88]	; (800538c <main+0x3fc>)
 8005334:	f001 f934 	bl	80065a0 <iprintf>

			//If down is pressed reset all variables and return to the menu
			while(gameState.activeScreen==3){
 8005338:	e011      	b.n	800535e <main+0x3ce>
				checkBossKey(&gameState);
 800533a:	f107 0320 	add.w	r3, r7, #32
 800533e:	4618      	mov	r0, r3
 8005340:	f7ff fdfe 	bl	8004f40 <checkBossKey>
				if(downIsPressed()){
 8005344:	f7fd f944 	bl	80025d0 <downIsPressed>
 8005348:	4603      	mov	r3, r0
 800534a:	2b00      	cmp	r3, #0
 800534c:	d007      	beq.n	800535e <main+0x3ce>
					initVariables(&gameState);
 800534e:	f107 0320 	add.w	r3, r7, #32
 8005352:	4618      	mov	r0, r3
 8005354:	f7ff fd02 	bl	8004d5c <initVariables>
					gameState.activeScreen=0;//MENU SCREEN
 8005358:	2300      	movs	r3, #0
 800535a:	f887 3055 	strb.w	r3, [r7, #85]	; 0x55
			while(gameState.activeScreen==3){
 800535e:	f897 3055 	ldrb.w	r3, [r7, #85]	; 0x55
 8005362:	2b03      	cmp	r3, #3
 8005364:	d0e9      	beq.n	800533a <main+0x3aa>
				}
			}
			break;
 8005366:	e00d      	b.n	8005384 <main+0x3f4>
		case 4: // BOSS KEY --- Draws the bosskey screen and checks if it should leave it again
			drawBossKey();
 8005368:	f7ff fb30 	bl	80049cc <drawBossKey>
			while(1){
				checkBossKey(&gameState);
 800536c:	f107 0320 	add.w	r3, r7, #32
 8005370:	4618      	mov	r0, r3
 8005372:	f7ff fde5 	bl	8004f40 <checkBossKey>
				if(gameState.activeScreen !=4){
 8005376:	f897 3055 	ldrb.w	r3, [r7, #85]	; 0x55
 800537a:	2b04      	cmp	r3, #4
 800537c:	d100      	bne.n	8005380 <main+0x3f0>
				checkBossKey(&gameState);
 800537e:	e7f5      	b.n	800536c <main+0x3dc>
					break;
 8005380:	bf00      	nop
				}
			}
			break;
 8005382:	bf00      	nop
		switch(gameState.activeScreen){
 8005384:	e643      	b.n	800500e <main+0x7e>
 8005386:	bf00      	nop
 8005388:	0800f800 	.word	0x0800f800
 800538c:	08007d24 	.word	0x08007d24

08005390 <drawButton>:
/**
  * @brief  Draws a button to the screen
  * @param  btn: the button to draw
  * @retval None
  */
void drawButton(button_t btn){
 8005390:	b590      	push	{r4, r7, lr}
 8005392:	b087      	sub	sp, #28
 8005394:	af02      	add	r7, sp, #8
 8005396:	463b      	mov	r3, r7
 8005398:	e883 0003 	stmia.w	r3, {r0, r1}
	int strLength = (int)strlen(btn.text);
 800539c:	687b      	ldr	r3, [r7, #4]
 800539e:	4618      	mov	r0, r3
 80053a0:	f7fa ff16 	bl	80001d0 <strlen>
 80053a4:	4603      	mov	r3, r0
 80053a6:	60fb      	str	r3, [r7, #12]
	drawBox(btn.x, btn.y, btn.x+strLength+5, btn.y+2, 0);
 80053a8:	783b      	ldrb	r3, [r7, #0]
 80053aa:	4618      	mov	r0, r3
 80053ac:	787b      	ldrb	r3, [r7, #1]
 80053ae:	461c      	mov	r4, r3
 80053b0:	783b      	ldrb	r3, [r7, #0]
 80053b2:	461a      	mov	r2, r3
 80053b4:	68fb      	ldr	r3, [r7, #12]
 80053b6:	4413      	add	r3, r2
 80053b8:	1d5a      	adds	r2, r3, #5
 80053ba:	787b      	ldrb	r3, [r7, #1]
 80053bc:	3302      	adds	r3, #2
 80053be:	2100      	movs	r1, #0
 80053c0:	9100      	str	r1, [sp, #0]
 80053c2:	4621      	mov	r1, r4
 80053c4:	f7fc fc84 	bl	8001cd0 <drawBox>
	gotoxy(btn.x+3, btn.y+1);
 80053c8:	783b      	ldrb	r3, [r7, #0]
 80053ca:	3303      	adds	r3, #3
 80053cc:	787a      	ldrb	r2, [r7, #1]
 80053ce:	3201      	adds	r2, #1
 80053d0:	4611      	mov	r1, r2
 80053d2:	4618      	mov	r0, r3
 80053d4:	f7fc fc6a 	bl	8001cac <gotoxy>
	printf(btn.text);
 80053d8:	687b      	ldr	r3, [r7, #4]
 80053da:	4618      	mov	r0, r3
 80053dc:	f001 f8e0 	bl	80065a0 <iprintf>
}
 80053e0:	bf00      	nop
 80053e2:	3714      	adds	r7, #20
 80053e4:	46bd      	mov	sp, r7
 80053e6:	bd90      	pop	{r4, r7, pc}

080053e8 <drawBtnAsSelected>:
/**
  * @brief  Draws a button that has been selected to the screen
  * @param  btn: the button to draw
  * @retval None
  */
void drawBtnAsSelected(button_t btn){
 80053e8:	b590      	push	{r4, r7, lr}
 80053ea:	b087      	sub	sp, #28
 80053ec:	af02      	add	r7, sp, #8
 80053ee:	463b      	mov	r3, r7
 80053f0:	e883 0003 	stmia.w	r3, {r0, r1}
	int strLength = (int)strlen(btn.text);
 80053f4:	687b      	ldr	r3, [r7, #4]
 80053f6:	4618      	mov	r0, r3
 80053f8:	f7fa feea 	bl	80001d0 <strlen>
 80053fc:	4603      	mov	r3, r0
 80053fe:	60fb      	str	r3, [r7, #12]
	drawBox(btn.x, btn.y, btn.x+strLength+5, btn.y+2, 1);
 8005400:	783b      	ldrb	r3, [r7, #0]
 8005402:	4618      	mov	r0, r3
 8005404:	787b      	ldrb	r3, [r7, #1]
 8005406:	461c      	mov	r4, r3
 8005408:	783b      	ldrb	r3, [r7, #0]
 800540a:	461a      	mov	r2, r3
 800540c:	68fb      	ldr	r3, [r7, #12]
 800540e:	4413      	add	r3, r2
 8005410:	1d5a      	adds	r2, r3, #5
 8005412:	787b      	ldrb	r3, [r7, #1]
 8005414:	3302      	adds	r3, #2
 8005416:	2101      	movs	r1, #1
 8005418:	9100      	str	r1, [sp, #0]
 800541a:	4621      	mov	r1, r4
 800541c:	f7fc fc58 	bl	8001cd0 <drawBox>
}
 8005420:	bf00      	nop
 8005422:	3714      	adds	r7, #20
 8005424:	46bd      	mov	sp, r7
 8005426:	bd90      	pop	{r4, r7, pc}

08005428 <drawBtnAsDeselected>:
/**
  * @brief  Draw a button that was selected that aren't any more
  * @param  btn: the button to draw
  * @retval None
  */
void drawBtnAsDeselected(button_t btn){
 8005428:	b590      	push	{r4, r7, lr}
 800542a:	b087      	sub	sp, #28
 800542c:	af02      	add	r7, sp, #8
 800542e:	463b      	mov	r3, r7
 8005430:	e883 0003 	stmia.w	r3, {r0, r1}
	int strLength = (int)strlen(btn.text);
 8005434:	687b      	ldr	r3, [r7, #4]
 8005436:	4618      	mov	r0, r3
 8005438:	f7fa feca 	bl	80001d0 <strlen>
 800543c:	4603      	mov	r3, r0
 800543e:	60fb      	str	r3, [r7, #12]
	drawBox(btn.x, btn.y, btn.x+strLength+5, btn.y+2, 0);
 8005440:	783b      	ldrb	r3, [r7, #0]
 8005442:	4618      	mov	r0, r3
 8005444:	787b      	ldrb	r3, [r7, #1]
 8005446:	461c      	mov	r4, r3
 8005448:	783b      	ldrb	r3, [r7, #0]
 800544a:	461a      	mov	r2, r3
 800544c:	68fb      	ldr	r3, [r7, #12]
 800544e:	4413      	add	r3, r2
 8005450:	1d5a      	adds	r2, r3, #5
 8005452:	787b      	ldrb	r3, [r7, #1]
 8005454:	3302      	adds	r3, #2
 8005456:	2100      	movs	r1, #0
 8005458:	9100      	str	r1, [sp, #0]
 800545a:	4621      	mov	r1, r4
 800545c:	f7fc fc38 	bl	8001cd0 <drawBox>
}
 8005460:	bf00      	nop
 8005462:	3714      	adds	r7, #20
 8005464:	46bd      	mov	sp, r7
 8005466:	bd90      	pop	{r4, r7, pc}

08005468 <drawMenuScreen>:
/**
  * @brief  Draws the entire main menu
  * @param  btnList: A list of buttons to draw, gameState: the current state of the game
  * @retval None
  */
void drawMenuScreen(button_t btnList[], gameState_t* gameState){
 8005468:	b580      	push	{r7, lr}
 800546a:	b082      	sub	sp, #8
 800546c:	af00      	add	r7, sp, #0
 800546e:	6078      	str	r0, [r7, #4]
 8005470:	6039      	str	r1, [r7, #0]
	drawButton(btnList[0]);
 8005472:	687b      	ldr	r3, [r7, #4]
 8005474:	e893 0003 	ldmia.w	r3, {r0, r1}
 8005478:	f7ff ff8a 	bl	8005390 <drawButton>
	drawButton(btnList[1]);
 800547c:	687b      	ldr	r3, [r7, #4]
 800547e:	3308      	adds	r3, #8
 8005480:	e893 0003 	ldmia.w	r3, {r0, r1}
 8005484:	f7ff ff84 	bl	8005390 <drawButton>
	drawButton(btnList[2]);
 8005488:	687b      	ldr	r3, [r7, #4]
 800548a:	3310      	adds	r3, #16
 800548c:	e893 0003 	ldmia.w	r3, {r0, r1}
 8005490:	f7ff ff7e 	bl	8005390 <drawButton>
	drawBtnAsSelected(btnList[gameState->btnSelected]);
 8005494:	683b      	ldr	r3, [r7, #0]
 8005496:	f893 3037 	ldrb.w	r3, [r3, #55]	; 0x37
 800549a:	00db      	lsls	r3, r3, #3
 800549c:	687a      	ldr	r2, [r7, #4]
 800549e:	4413      	add	r3, r2
 80054a0:	e893 0003 	ldmia.w	r3, {r0, r1}
 80054a4:	f7ff ffa0 	bl	80053e8 <drawBtnAsSelected>
}
 80054a8:	bf00      	nop
 80054aa:	3708      	adds	r7, #8
 80054ac:	46bd      	mov	sp, r7
 80054ae:	bd80      	pop	{r7, pc}

080054b0 <drawHelpScreen>:
/**
  * @brief  Draws the help screen
  * @param  None
  * @retval None
  */
void drawHelpScreen(){
 80054b0:	b580      	push	{r7, lr}
 80054b2:	af00      	add	r7, sp, #0
	gotoxy(70,5);
 80054b4:	2105      	movs	r1, #5
 80054b6:	2046      	movs	r0, #70	; 0x46
 80054b8:	f7fc fbf8 	bl	8001cac <gotoxy>
	printf("HELP SCREEN");
 80054bc:	4805      	ldr	r0, [pc, #20]	; (80054d4 <drawHelpScreen+0x24>)
 80054be:	f001 f86f 	bl	80065a0 <iprintf>
	gotoxy(60,7);
 80054c2:	2107      	movs	r1, #7
 80054c4:	203c      	movs	r0, #60	; 0x3c
 80054c6:	f7fc fbf1 	bl	8001cac <gotoxy>
	printf("Tag dig dog sammen mand!");
 80054ca:	4803      	ldr	r0, [pc, #12]	; (80054d8 <drawHelpScreen+0x28>)
 80054cc:	f001 f868 	bl	80065a0 <iprintf>

}
 80054d0:	bf00      	nop
 80054d2:	bd80      	pop	{r7, pc}
 80054d4:	08007d64 	.word	0x08007d64
 80054d8:	08007d70 	.word	0x08007d70

080054dc <drawWindow>:
/**
  * @brief  Draws the outer bounds
  * @param  isGameWindow: 1 = deletes bottom layer
  * @retval None
  */
void drawWindow(uint8_t isGameWindow){
 80054dc:	b580      	push	{r7, lr}
 80054de:	b086      	sub	sp, #24
 80054e0:	af02      	add	r7, sp, #8
 80054e2:	4603      	mov	r3, r0
 80054e4:	71fb      	strb	r3, [r7, #7]
	drawBox(1,1,screenWidth, screenHeight,0);
 80054e6:	2300      	movs	r3, #0
 80054e8:	9300      	str	r3, [sp, #0]
 80054ea:	232b      	movs	r3, #43	; 0x2b
 80054ec:	229c      	movs	r2, #156	; 0x9c
 80054ee:	2101      	movs	r1, #1
 80054f0:	2001      	movs	r0, #1
 80054f2:	f7fc fbed 	bl	8001cd0 <drawBox>
	if(isGameWindow){//bottom line is deleted
 80054f6:	79fb      	ldrb	r3, [r7, #7]
 80054f8:	2b00      	cmp	r3, #0
 80054fa:	d039      	beq.n	8005570 <drawWindow+0x94>
		gotoxy(1,screenHeight-1);
 80054fc:	212a      	movs	r1, #42	; 0x2a
 80054fe:	2001      	movs	r0, #1
 8005500:	f7fc fbd4 	bl	8001cac <gotoxy>
		printf(" ");
 8005504:	2020      	movs	r0, #32
 8005506:	f001 f863 	bl	80065d0 <putchar>
		gotoxy(1,screenHeight-2);
 800550a:	2129      	movs	r1, #41	; 0x29
 800550c:	2001      	movs	r0, #1
 800550e:	f7fc fbcd 	bl	8001cac <gotoxy>
		printf(" ");
 8005512:	2020      	movs	r0, #32
 8005514:	f001 f85c 	bl	80065d0 <putchar>
		gotoxy(1,screenHeight-3);
 8005518:	2128      	movs	r1, #40	; 0x28
 800551a:	2001      	movs	r0, #1
 800551c:	f7fc fbc6 	bl	8001cac <gotoxy>
		printf(" ");
 8005520:	2020      	movs	r0, #32
 8005522:	f001 f855 	bl	80065d0 <putchar>
		gotoxy(screenWidth,screenHeight-1);
 8005526:	212a      	movs	r1, #42	; 0x2a
 8005528:	209c      	movs	r0, #156	; 0x9c
 800552a:	f7fc fbbf 	bl	8001cac <gotoxy>
		printf(" ");
 800552e:	2020      	movs	r0, #32
 8005530:	f001 f84e 	bl	80065d0 <putchar>
		gotoxy(screenWidth,screenHeight-2);
 8005534:	2129      	movs	r1, #41	; 0x29
 8005536:	209c      	movs	r0, #156	; 0x9c
 8005538:	f7fc fbb8 	bl	8001cac <gotoxy>
		printf(" ");
 800553c:	2020      	movs	r0, #32
 800553e:	f001 f847 	bl	80065d0 <putchar>
		gotoxy(screenWidth,screenHeight-3);
 8005542:	2128      	movs	r1, #40	; 0x28
 8005544:	209c      	movs	r0, #156	; 0x9c
 8005546:	f7fc fbb1 	bl	8001cac <gotoxy>
		printf(" ");
 800554a:	2020      	movs	r0, #32
 800554c:	f001 f840 	bl	80065d0 <putchar>
		for(int x = 1; x<screenWidth+1;x++){
 8005550:	2301      	movs	r3, #1
 8005552:	60fb      	str	r3, [r7, #12]
 8005554:	e009      	b.n	800556a <drawWindow+0x8e>
			gotoxy(x, screenHeight);
 8005556:	212b      	movs	r1, #43	; 0x2b
 8005558:	68f8      	ldr	r0, [r7, #12]
 800555a:	f7fc fba7 	bl	8001cac <gotoxy>
			printf(" ");
 800555e:	2020      	movs	r0, #32
 8005560:	f001 f836 	bl	80065d0 <putchar>
		for(int x = 1; x<screenWidth+1;x++){
 8005564:	68fb      	ldr	r3, [r7, #12]
 8005566:	3301      	adds	r3, #1
 8005568:	60fb      	str	r3, [r7, #12]
 800556a:	68fb      	ldr	r3, [r7, #12]
 800556c:	2b9c      	cmp	r3, #156	; 0x9c
 800556e:	ddf2      	ble.n	8005556 <drawWindow+0x7a>

		}
	}
}
 8005570:	bf00      	nop
 8005572:	3710      	adds	r7, #16
 8005574:	46bd      	mov	sp, r7
 8005576:	bd80      	pop	{r7, pc}

08005578 <chargeNuke>:
/**
  * @brief  Tests how charged the nuke is
  * @param  gameState: the current state of the game
  * @retval None
  */
void chargeNuke(gameState_t* gameState){
 8005578:	b580      	push	{r7, lr}
 800557a:	b084      	sub	sp, #16
 800557c:	af00      	add	r7, sp, #0
 800557e:	6078      	str	r0, [r7, #4]
	uint8_t color[] = {0,0,0};
 8005580:	4a2d      	ldr	r2, [pc, #180]	; (8005638 <chargeNuke+0xc0>)
 8005582:	f107 030c 	add.w	r3, r7, #12
 8005586:	6812      	ldr	r2, [r2, #0]
 8005588:	4611      	mov	r1, r2
 800558a:	8019      	strh	r1, [r3, #0]
 800558c:	3302      	adds	r3, #2
 800558e:	0c12      	lsrs	r2, r2, #16
 8005590:	701a      	strb	r2, [r3, #0]
	if(runtime - gameState->nuke->lastActivationTime < 500){
 8005592:	4b2a      	ldr	r3, [pc, #168]	; (800563c <chargeNuke+0xc4>)
 8005594:	681a      	ldr	r2, [r3, #0]
 8005596:	687b      	ldr	r3, [r7, #4]
 8005598:	6adb      	ldr	r3, [r3, #44]	; 0x2c
 800559a:	6a5b      	ldr	r3, [r3, #36]	; 0x24
 800559c:	1ad3      	subs	r3, r2, r3
 800559e:	f5b3 7ffa 	cmp.w	r3, #500	; 0x1f4
 80055a2:	d205      	bcs.n	80055b0 <chargeNuke+0x38>
		color[0] = 1;
 80055a4:	2301      	movs	r3, #1
 80055a6:	733b      	strb	r3, [r7, #12]
		color[1] = 0;
 80055a8:	2300      	movs	r3, #0
 80055aa:	737b      	strb	r3, [r7, #13]
		color[2] = 0;
 80055ac:	2300      	movs	r3, #0
 80055ae:	73bb      	strb	r3, [r7, #14]
	}
	if(runtime - gameState->nuke->lastActivationTime > 500){
 80055b0:	4b22      	ldr	r3, [pc, #136]	; (800563c <chargeNuke+0xc4>)
 80055b2:	681a      	ldr	r2, [r3, #0]
 80055b4:	687b      	ldr	r3, [r7, #4]
 80055b6:	6adb      	ldr	r3, [r3, #44]	; 0x2c
 80055b8:	6a5b      	ldr	r3, [r3, #36]	; 0x24
 80055ba:	1ad3      	subs	r3, r2, r3
 80055bc:	f5b3 7ffa 	cmp.w	r3, #500	; 0x1f4
 80055c0:	d905      	bls.n	80055ce <chargeNuke+0x56>
		color[0] = 1;
 80055c2:	2301      	movs	r3, #1
 80055c4:	733b      	strb	r3, [r7, #12]
		color[1] = 0;
 80055c6:	2300      	movs	r3, #0
 80055c8:	737b      	strb	r3, [r7, #13]
		color[2] = 1;
 80055ca:	2301      	movs	r3, #1
 80055cc:	73bb      	strb	r3, [r7, #14]
	}
	if(runtime - gameState->nuke->lastActivationTime > 1000){
 80055ce:	4b1b      	ldr	r3, [pc, #108]	; (800563c <chargeNuke+0xc4>)
 80055d0:	681a      	ldr	r2, [r3, #0]
 80055d2:	687b      	ldr	r3, [r7, #4]
 80055d4:	6adb      	ldr	r3, [r3, #44]	; 0x2c
 80055d6:	6a5b      	ldr	r3, [r3, #36]	; 0x24
 80055d8:	1ad3      	subs	r3, r2, r3
 80055da:	f5b3 7f7a 	cmp.w	r3, #1000	; 0x3e8
 80055de:	d905      	bls.n	80055ec <chargeNuke+0x74>
		color[0] = 1;
 80055e0:	2301      	movs	r3, #1
 80055e2:	733b      	strb	r3, [r7, #12]
		color[1] = 1;
 80055e4:	2301      	movs	r3, #1
 80055e6:	737b      	strb	r3, [r7, #13]
		color[2] = 0;
 80055e8:	2300      	movs	r3, #0
 80055ea:	73bb      	strb	r3, [r7, #14]
	}
	if(runtime - gameState->nuke->lastActivationTime > 1500){
 80055ec:	4b13      	ldr	r3, [pc, #76]	; (800563c <chargeNuke+0xc4>)
 80055ee:	681a      	ldr	r2, [r3, #0]
 80055f0:	687b      	ldr	r3, [r7, #4]
 80055f2:	6adb      	ldr	r3, [r3, #44]	; 0x2c
 80055f4:	6a5b      	ldr	r3, [r3, #36]	; 0x24
 80055f6:	1ad3      	subs	r3, r2, r3
 80055f8:	f240 52dc 	movw	r2, #1500	; 0x5dc
 80055fc:	4293      	cmp	r3, r2
 80055fe:	d912      	bls.n	8005626 <chargeNuke+0xae>
		color[0] = 0;
 8005600:	2300      	movs	r3, #0
 8005602:	733b      	strb	r3, [r7, #12]
		color[1] = 1;
 8005604:	2301      	movs	r3, #1
 8005606:	737b      	strb	r3, [r7, #13]
		color[2] = 0;
 8005608:	2300      	movs	r3, #0
 800560a:	73bb      	strb	r3, [r7, #14]
		if(gameState->nuke->readyState == 0) gameState->soundToPlay = 2; //Plays the charge sound if it's the first time.
 800560c:	687b      	ldr	r3, [r7, #4]
 800560e:	6adb      	ldr	r3, [r3, #44]	; 0x2c
 8005610:	7e5b      	ldrb	r3, [r3, #25]
 8005612:	2b00      	cmp	r3, #0
 8005614:	d103      	bne.n	800561e <chargeNuke+0xa6>
 8005616:	687b      	ldr	r3, [r7, #4]
 8005618:	2202      	movs	r2, #2
 800561a:	f883 2064 	strb.w	r2, [r3, #100]	; 0x64
		gameState->nuke->readyState = 1;
 800561e:	687b      	ldr	r3, [r7, #4]
 8005620:	6adb      	ldr	r3, [r3, #44]	; 0x2c
 8005622:	2201      	movs	r2, #1
 8005624:	765a      	strb	r2, [r3, #25]
	}
	RGBColor(color);
 8005626:	f107 030c 	add.w	r3, r7, #12
 800562a:	4618      	mov	r0, r3
 800562c:	f7fd fc04 	bl	8002e38 <RGBColor>
}
 8005630:	bf00      	nop
 8005632:	3710      	adds	r7, #16
 8005634:	46bd      	mov	sp, r7
 8005636:	bd80      	pop	{r7, pc}
 8005638:	08007d8c 	.word	0x08007d8c
 800563c:	200001c8 	.word	0x200001c8

08005640 <detonateNuke>:
/**
  * @brief  Deletes the unexploded nuke, draws the explosion circle and deletes all enemies in a given radius
  * @param  None
  * @retval None
  */
void detonateNuke(gameState_t* gameState){
 8005640:	b590      	push	{r4, r7, lr}
 8005642:	b085      	sub	sp, #20
 8005644:	af00      	add	r7, sp, #0
 8005646:	6078      	str	r0, [r7, #4]
	//Resets nuke
	gameState->nuke->isDeployed = 0;
 8005648:	687b      	ldr	r3, [r7, #4]
 800564a:	6adb      	ldr	r3, [r3, #44]	; 0x2c
 800564c:	2200      	movs	r2, #0
 800564e:	761a      	strb	r2, [r3, #24]
	gameState->nuke->readyState = 0;
 8005650:	687b      	ldr	r3, [r7, #4]
 8005652:	6adb      	ldr	r3, [r3, #44]	; 0x2c
 8005654:	2200      	movs	r2, #0
 8005656:	765a      	strb	r2, [r3, #25]

	//Deletes the unexploded nuke
	gotoxy(fpToInt(gameState->nuke->position.x),(fpToInt(gameState->nuke->position.y)) / yScale);
 8005658:	687b      	ldr	r3, [r7, #4]
 800565a:	6adb      	ldr	r3, [r3, #44]	; 0x2c
 800565c:	681b      	ldr	r3, [r3, #0]
 800565e:	4618      	mov	r0, r3
 8005660:	f7fd feaa 	bl	80033b8 <fpToInt>
 8005664:	4604      	mov	r4, r0
 8005666:	687b      	ldr	r3, [r7, #4]
 8005668:	6adb      	ldr	r3, [r3, #44]	; 0x2c
 800566a:	685b      	ldr	r3, [r3, #4]
 800566c:	4618      	mov	r0, r3
 800566e:	f7fd fea3 	bl	80033b8 <fpToInt>
 8005672:	4603      	mov	r3, r0
 8005674:	0fda      	lsrs	r2, r3, #31
 8005676:	4413      	add	r3, r2
 8005678:	105b      	asrs	r3, r3, #1
 800567a:	4619      	mov	r1, r3
 800567c:	4620      	mov	r0, r4
 800567e:	f7fc fb15 	bl	8001cac <gotoxy>
	printf("     ");
 8005682:	483d      	ldr	r0, [pc, #244]	; (8005778 <detonateNuke+0x138>)
 8005684:	f000 ff8c 	bl	80065a0 <iprintf>
	gotoxy(fpToInt(gameState->nuke->position.x),(fpToInt(gameState->nuke->position.y) + 1 * yScale) / yScale);
 8005688:	687b      	ldr	r3, [r7, #4]
 800568a:	6adb      	ldr	r3, [r3, #44]	; 0x2c
 800568c:	681b      	ldr	r3, [r3, #0]
 800568e:	4618      	mov	r0, r3
 8005690:	f7fd fe92 	bl	80033b8 <fpToInt>
 8005694:	4604      	mov	r4, r0
 8005696:	687b      	ldr	r3, [r7, #4]
 8005698:	6adb      	ldr	r3, [r3, #44]	; 0x2c
 800569a:	685b      	ldr	r3, [r3, #4]
 800569c:	4618      	mov	r0, r3
 800569e:	f7fd fe8b 	bl	80033b8 <fpToInt>
 80056a2:	4603      	mov	r3, r0
 80056a4:	3302      	adds	r3, #2
 80056a6:	0fda      	lsrs	r2, r3, #31
 80056a8:	4413      	add	r3, r2
 80056aa:	105b      	asrs	r3, r3, #1
 80056ac:	4619      	mov	r1, r3
 80056ae:	4620      	mov	r0, r4
 80056b0:	f7fc fafc 	bl	8001cac <gotoxy>
	printf("     ");
 80056b4:	4830      	ldr	r0, [pc, #192]	; (8005778 <detonateNuke+0x138>)
 80056b6:	f000 ff73 	bl	80065a0 <iprintf>
	gotoxy(fpToInt(gameState->nuke->position.x),(fpToInt(gameState->nuke->position.y) + 2 * yScale) / yScale);
 80056ba:	687b      	ldr	r3, [r7, #4]
 80056bc:	6adb      	ldr	r3, [r3, #44]	; 0x2c
 80056be:	681b      	ldr	r3, [r3, #0]
 80056c0:	4618      	mov	r0, r3
 80056c2:	f7fd fe79 	bl	80033b8 <fpToInt>
 80056c6:	4604      	mov	r4, r0
 80056c8:	687b      	ldr	r3, [r7, #4]
 80056ca:	6adb      	ldr	r3, [r3, #44]	; 0x2c
 80056cc:	685b      	ldr	r3, [r3, #4]
 80056ce:	4618      	mov	r0, r3
 80056d0:	f7fd fe72 	bl	80033b8 <fpToInt>
 80056d4:	4603      	mov	r3, r0
 80056d6:	3304      	adds	r3, #4
 80056d8:	0fda      	lsrs	r2, r3, #31
 80056da:	4413      	add	r3, r2
 80056dc:	105b      	asrs	r3, r3, #1
 80056de:	4619      	mov	r1, r3
 80056e0:	4620      	mov	r0, r4
 80056e2:	f7fc fae3 	bl	8001cac <gotoxy>
	printf("     ");
 80056e6:	4824      	ldr	r0, [pc, #144]	; (8005778 <detonateNuke+0x138>)
 80056e8:	f000 ff5a 	bl	80065a0 <iprintf>


	drawNukeCircle(gameState);
 80056ec:	6878      	ldr	r0, [r7, #4]
 80056ee:	f7fe ff37 	bl	8004560 <drawNukeCircle>

	gameState->nuke->lastDetonationTime = runtime;
 80056f2:	687b      	ldr	r3, [r7, #4]
 80056f4:	6adb      	ldr	r3, [r3, #44]	; 0x2c
 80056f6:	4a21      	ldr	r2, [pc, #132]	; (800577c <detonateNuke+0x13c>)
 80056f8:	6812      	ldr	r2, [r2, #0]
 80056fa:	61da      	str	r2, [r3, #28]
	gameState->nuke->circleClear = 0;
 80056fc:	687b      	ldr	r3, [r7, #4]
 80056fe:	6adb      	ldr	r3, [r3, #44]	; 0x2c
 8005700:	2200      	movs	r2, #0
 8005702:	f883 2020 	strb.w	r2, [r3, #32]

	//Loops over all the enemies and deletes the ones closer than 35 uints
	enemyNode_t* current = gameState->enemyLL;
 8005706:	687b      	ldr	r3, [r7, #4]
 8005708:	685b      	ldr	r3, [r3, #4]
 800570a:	60fb      	str	r3, [r7, #12]
	while(current != NULL){
 800570c:	e02c      	b.n	8005768 <detonateNuke+0x128>
		uint32_t distToEnemy= fpMultiply(fpAbs(gameState->nuke->position.x - current->enemy->position->x +
 800570e:	687b      	ldr	r3, [r7, #4]
 8005710:	6adb      	ldr	r3, [r3, #44]	; 0x2c
 8005712:	681a      	ldr	r2, [r3, #0]
 8005714:	68fb      	ldr	r3, [r7, #12]
 8005716:	681b      	ldr	r3, [r3, #0]
 8005718:	681b      	ldr	r3, [r3, #0]
 800571a:	681b      	ldr	r3, [r3, #0]
 800571c:	1ad4      	subs	r4, r2, r3
								fpAbs(gameState->nuke->position.y - current->enemy->position->y)),
 800571e:	687b      	ldr	r3, [r7, #4]
 8005720:	6adb      	ldr	r3, [r3, #44]	; 0x2c
 8005722:	685a      	ldr	r2, [r3, #4]
 8005724:	68fb      	ldr	r3, [r7, #12]
 8005726:	681b      	ldr	r3, [r3, #0]
 8005728:	681b      	ldr	r3, [r3, #0]
 800572a:	685b      	ldr	r3, [r3, #4]
 800572c:	1ad3      	subs	r3, r2, r3
 800572e:	4618      	mov	r0, r3
 8005730:	f7fd fece 	bl	80034d0 <fpAbs>
 8005734:	4603      	mov	r3, r0
		uint32_t distToEnemy= fpMultiply(fpAbs(gameState->nuke->position.x - current->enemy->position->x +
 8005736:	4423      	add	r3, r4
 8005738:	4618      	mov	r0, r3
 800573a:	f7fd fec9 	bl	80034d0 <fpAbs>
 800573e:	4603      	mov	r3, r0
 8005740:	f44f 4134 	mov.w	r1, #46080	; 0xb400
 8005744:	4618      	mov	r0, r3
 8005746:	f7fd fe58 	bl	80033fa <fpMultiply>
 800574a:	60b8      	str	r0, [r7, #8]
				0x0000b400); //Aprox of pythagoras where (x+y) * (sqrt(2)/2)
		if(distToEnemy < intToFp(35)){
 800574c:	2023      	movs	r0, #35	; 0x23
 800574e:	f7fd fe1e 	bl	800338e <intToFp>
 8005752:	4602      	mov	r2, r0
 8005754:	68bb      	ldr	r3, [r7, #8]
 8005756:	4293      	cmp	r3, r2
 8005758:	d203      	bcs.n	8005762 <detonateNuke+0x122>
			deleteEnemyNode(gameState, current);
 800575a:	68f9      	ldr	r1, [r7, #12]
 800575c:	6878      	ldr	r0, [r7, #4]
 800575e:	f7ff f9ff 	bl	8004b60 <deleteEnemyNode>
		}
		current = current->nextEnemyNode;
 8005762:	68fb      	ldr	r3, [r7, #12]
 8005764:	685b      	ldr	r3, [r3, #4]
 8005766:	60fb      	str	r3, [r7, #12]
	while(current != NULL){
 8005768:	68fb      	ldr	r3, [r7, #12]
 800576a:	2b00      	cmp	r3, #0
 800576c:	d1cf      	bne.n	800570e <detonateNuke+0xce>
	}
}
 800576e:	bf00      	nop
 8005770:	bf00      	nop
 8005772:	3714      	adds	r7, #20
 8005774:	46bd      	mov	sp, r7
 8005776:	bd90      	pop	{r4, r7, pc}
 8005778:	08007d90 	.word	0x08007d90
 800577c:	200001c8 	.word	0x200001c8

08005780 <shootNuke>:
/**
  * @brief  Checks if the nuke should be deployed and does if so
  * @param  gameState: te current state of the game
  * @retval None
  */
void shootNuke(gameState_t* gameState){
 8005780:	b580      	push	{r7, lr}
 8005782:	b088      	sub	sp, #32
 8005784:	af00      	add	r7, sp, #0
 8005786:	6078      	str	r0, [r7, #4]
	uint8_t x = I2C_Read(0x98, 0x03, 0, 1); //Read output register of the accelerometer
 8005788:	2301      	movs	r3, #1
 800578a:	2200      	movs	r2, #0
 800578c:	2103      	movs	r1, #3
 800578e:	2098      	movs	r0, #152	; 0x98
 8005790:	f7fd f878 	bl	8002884 <I2C_Read>
 8005794:	4603      	mov	r3, r0
 8005796:	77fb      	strb	r3, [r7, #31]

	//If the 8'th bit (tap-detection) is on and the nuke is ready and deployed if it isn't. If it has be deployed for a second detonate it
	if(x > 128 && gameState->nuke->readyState){
 8005798:	7ffb      	ldrb	r3, [r7, #31]
 800579a:	2b80      	cmp	r3, #128	; 0x80
 800579c:	d947      	bls.n	800582e <shootNuke+0xae>
 800579e:	687b      	ldr	r3, [r7, #4]
 80057a0:	6adb      	ldr	r3, [r3, #44]	; 0x2c
 80057a2:	7e5b      	ldrb	r3, [r3, #25]
 80057a4:	2b00      	cmp	r3, #0
 80057a6:	d042      	beq.n	800582e <shootNuke+0xae>
		if(gameState->nuke->isDeployed == 0){
 80057a8:	687b      	ldr	r3, [r7, #4]
 80057aa:	6adb      	ldr	r3, [r3, #44]	; 0x2c
 80057ac:	7e1b      	ldrb	r3, [r3, #24]
 80057ae:	2b00      	cmp	r3, #0
 80057b0:	d132      	bne.n	8005818 <shootNuke+0x98>
			position_t pos= {gameState->spaceship.position.x, gameState->spaceship.position.y};
 80057b2:	687b      	ldr	r3, [r7, #4]
 80057b4:	699b      	ldr	r3, [r3, #24]
 80057b6:	617b      	str	r3, [r7, #20]
 80057b8:	687b      	ldr	r3, [r7, #4]
 80057ba:	69db      	ldr	r3, [r3, #28]
 80057bc:	61bb      	str	r3, [r7, #24]
			vector_t vec = {0, intToFp(-1)};
 80057be:	2300      	movs	r3, #0
 80057c0:	60fb      	str	r3, [r7, #12]
 80057c2:	f64f 70ff 	movw	r0, #65535	; 0xffff
 80057c6:	f7fd fde2 	bl	800338e <intToFp>
 80057ca:	4603      	mov	r3, r0
 80057cc:	613b      	str	r3, [r7, #16]
			gameState->nuke->position = pos;
 80057ce:	687b      	ldr	r3, [r7, #4]
 80057d0:	6adb      	ldr	r3, [r3, #44]	; 0x2c
 80057d2:	461a      	mov	r2, r3
 80057d4:	f107 0314 	add.w	r3, r7, #20
 80057d8:	e893 0003 	ldmia.w	r3, {r0, r1}
 80057dc:	e882 0003 	stmia.w	r2, {r0, r1}
			gameState->nuke->nextPosition = pos;
 80057e0:	687b      	ldr	r3, [r7, #4]
 80057e2:	6adb      	ldr	r3, [r3, #44]	; 0x2c
 80057e4:	3308      	adds	r3, #8
 80057e6:	f107 0214 	add.w	r2, r7, #20
 80057ea:	e892 0003 	ldmia.w	r2, {r0, r1}
 80057ee:	e883 0003 	stmia.w	r3, {r0, r1}
			gameState->nuke->velocity = vec;
 80057f2:	687b      	ldr	r3, [r7, #4]
 80057f4:	6adb      	ldr	r3, [r3, #44]	; 0x2c
 80057f6:	3310      	adds	r3, #16
 80057f8:	f107 020c 	add.w	r2, r7, #12
 80057fc:	e892 0003 	ldmia.w	r2, {r0, r1}
 8005800:	e883 0003 	stmia.w	r3, {r0, r1}
			gameState->nuke->isDeployed = 1;
 8005804:	687b      	ldr	r3, [r7, #4]
 8005806:	6adb      	ldr	r3, [r3, #44]	; 0x2c
 8005808:	2201      	movs	r2, #1
 800580a:	761a      	strb	r2, [r3, #24]
			gameState->nuke->lastActivationTime = runtime;
 800580c:	687b      	ldr	r3, [r7, #4]
 800580e:	6adb      	ldr	r3, [r3, #44]	; 0x2c
 8005810:	4a09      	ldr	r2, [pc, #36]	; (8005838 <shootNuke+0xb8>)
 8005812:	6812      	ldr	r2, [r2, #0]
 8005814:	625a      	str	r2, [r3, #36]	; 0x24
		}else{
			if(runtime - gameState->nuke->lastActivationTime > 100) detonateNuke(gameState);
		}
	}
}
 8005816:	e00a      	b.n	800582e <shootNuke+0xae>
			if(runtime - gameState->nuke->lastActivationTime > 100) detonateNuke(gameState);
 8005818:	4b07      	ldr	r3, [pc, #28]	; (8005838 <shootNuke+0xb8>)
 800581a:	681a      	ldr	r2, [r3, #0]
 800581c:	687b      	ldr	r3, [r7, #4]
 800581e:	6adb      	ldr	r3, [r3, #44]	; 0x2c
 8005820:	6a5b      	ldr	r3, [r3, #36]	; 0x24
 8005822:	1ad3      	subs	r3, r2, r3
 8005824:	2b64      	cmp	r3, #100	; 0x64
 8005826:	d902      	bls.n	800582e <shootNuke+0xae>
 8005828:	6878      	ldr	r0, [r7, #4]
 800582a:	f7ff ff09 	bl	8005640 <detonateNuke>
}
 800582e:	bf00      	nop
 8005830:	3720      	adds	r7, #32
 8005832:	46bd      	mov	sp, r7
 8005834:	bd80      	pop	{r7, pc}
 8005836:	bf00      	nop
 8005838:	200001c8 	.word	0x200001c8

0800583c <updateNuke>:
/**
  * @brief  Update the state of the nuke
  * @param  None
  * @retval None
  */
void updateNuke(gameState_t* gameState){
 800583c:	b580      	push	{r7, lr}
 800583e:	b082      	sub	sp, #8
 8005840:	af00      	add	r7, sp, #0
 8005842:	6078      	str	r0, [r7, #4]
	chargeNuke(gameState);
 8005844:	6878      	ldr	r0, [r7, #4]
 8005846:	f7ff fe97 	bl	8005578 <chargeNuke>
	shootNuke(gameState);
 800584a:	6878      	ldr	r0, [r7, #4]
 800584c:	f7ff ff98 	bl	8005780 <shootNuke>

	//If the nuke is deployed update it's position
	if(gameState->nuke->isDeployed == 1){
 8005850:	687b      	ldr	r3, [r7, #4]
 8005852:	6adb      	ldr	r3, [r3, #44]	; 0x2c
 8005854:	7e1b      	ldrb	r3, [r3, #24]
 8005856:	2b01      	cmp	r3, #1
 8005858:	d113      	bne.n	8005882 <updateNuke+0x46>
		gameState->nuke->nextPosition.x = gameState->nuke->position.x + gameState->nuke->velocity.x;
 800585a:	687b      	ldr	r3, [r7, #4]
 800585c:	6adb      	ldr	r3, [r3, #44]	; 0x2c
 800585e:	6819      	ldr	r1, [r3, #0]
 8005860:	687b      	ldr	r3, [r7, #4]
 8005862:	6adb      	ldr	r3, [r3, #44]	; 0x2c
 8005864:	691a      	ldr	r2, [r3, #16]
 8005866:	687b      	ldr	r3, [r7, #4]
 8005868:	6adb      	ldr	r3, [r3, #44]	; 0x2c
 800586a:	440a      	add	r2, r1
 800586c:	609a      	str	r2, [r3, #8]
		gameState->nuke->nextPosition.y = gameState->nuke->position.y + gameState->nuke->velocity.y;
 800586e:	687b      	ldr	r3, [r7, #4]
 8005870:	6adb      	ldr	r3, [r3, #44]	; 0x2c
 8005872:	6859      	ldr	r1, [r3, #4]
 8005874:	687b      	ldr	r3, [r7, #4]
 8005876:	6adb      	ldr	r3, [r3, #44]	; 0x2c
 8005878:	695a      	ldr	r2, [r3, #20]
 800587a:	687b      	ldr	r3, [r7, #4]
 800587c:	6adb      	ldr	r3, [r3, #44]	; 0x2c
 800587e:	440a      	add	r2, r1
 8005880:	60da      	str	r2, [r3, #12]
	}

	//If it's more than 0.1s since detonation and the circle is not clear, clear it.
	if(runtime - gameState->nuke->lastDetonationTime > 100 && gameState->nuke->circleClear == 0){
 8005882:	4b0f      	ldr	r3, [pc, #60]	; (80058c0 <updateNuke+0x84>)
 8005884:	681a      	ldr	r2, [r3, #0]
 8005886:	687b      	ldr	r3, [r7, #4]
 8005888:	6adb      	ldr	r3, [r3, #44]	; 0x2c
 800588a:	69db      	ldr	r3, [r3, #28]
 800588c:	1ad3      	subs	r3, r2, r3
 800588e:	2b64      	cmp	r3, #100	; 0x64
 8005890:	d912      	bls.n	80058b8 <updateNuke+0x7c>
 8005892:	687b      	ldr	r3, [r7, #4]
 8005894:	6adb      	ldr	r3, [r3, #44]	; 0x2c
 8005896:	f893 3020 	ldrb.w	r3, [r3, #32]
 800589a:	2b00      	cmp	r3, #0
 800589c:	d10c      	bne.n	80058b8 <updateNuke+0x7c>
		clearNukeCircle(gameState);
 800589e:	6878      	ldr	r0, [r7, #4]
 80058a0:	f7fe ff88 	bl	80047b4 <clearNukeCircle>
		gameState->nuke->lastDetonationTime = 0xFFFFFFFF;
 80058a4:	687b      	ldr	r3, [r7, #4]
 80058a6:	6adb      	ldr	r3, [r3, #44]	; 0x2c
 80058a8:	f04f 32ff 	mov.w	r2, #4294967295	; 0xffffffff
 80058ac:	61da      	str	r2, [r3, #28]
		gameState->nuke->circleClear = 1;
 80058ae:	687b      	ldr	r3, [r7, #4]
 80058b0:	6adb      	ldr	r3, [r3, #44]	; 0x2c
 80058b2:	2201      	movs	r2, #1
 80058b4:	f883 2020 	strb.w	r2, [r3, #32]
	}
}
 80058b8:	bf00      	nop
 80058ba:	3708      	adds	r7, #8
 80058bc:	46bd      	mov	sp, r7
 80058be:	bd80      	pop	{r7, pc}
 80058c0:	200001c8 	.word	0x200001c8

080058c4 <spawnPowerup>:
/**
  * @brief  Checks if it should spawn a powerup and does if it should
  * @param  gameState: the current state of the game
  * @retval None
  */
void spawnPowerup(gameState_t* gameState){
 80058c4:	b580      	push	{r7, lr}
 80058c6:	b088      	sub	sp, #32
 80058c8:	af00      	add	r7, sp, #0
 80058ca:	6078      	str	r0, [r7, #4]
	if(runtime-gameState->powerup.lastUseTime>=spawnPeriod){
 80058cc:	4b2c      	ldr	r3, [pc, #176]	; (8005980 <spawnPowerup+0xbc>)
 80058ce:	681a      	ldr	r2, [r3, #0]
 80058d0:	687b      	ldr	r3, [r7, #4]
 80058d2:	6e1b      	ldr	r3, [r3, #96]	; 0x60
 80058d4:	1ad3      	subs	r3, r2, r3
 80058d6:	f5b3 7f16 	cmp.w	r3, #600	; 0x258
 80058da:	d34d      	bcc.n	8005978 <spawnPowerup+0xb4>
		gameState->powerup.lastUseTime=runtime;
 80058dc:	4b28      	ldr	r3, [pc, #160]	; (8005980 <spawnPowerup+0xbc>)
 80058de:	681a      	ldr	r2, [r3, #0]
 80058e0:	687b      	ldr	r3, [r7, #4]
 80058e2:	661a      	str	r2, [r3, #96]	; 0x60
		gameState->powerup.isVisible=1;
 80058e4:	687b      	ldr	r3, [r7, #4]
 80058e6:	2201      	movs	r2, #1
 80058e8:	f883 2044 	strb.w	r2, [r3, #68]	; 0x44

		uint8_t randomX;
		while(!xValIsValid(randomX, 5)){
 80058ec:	e00f      	b.n	800590e <spawnPowerup+0x4a>
			randomX = (rand() % 147) + 1;
 80058ee:	f000 ff29 	bl	8006744 <rand>
 80058f2:	4603      	mov	r3, r0
 80058f4:	4a23      	ldr	r2, [pc, #140]	; (8005984 <spawnPowerup+0xc0>)
 80058f6:	fb82 1203 	smull	r1, r2, r2, r3
 80058fa:	1191      	asrs	r1, r2, #6
 80058fc:	17da      	asrs	r2, r3, #31
 80058fe:	1a8a      	subs	r2, r1, r2
 8005900:	2193      	movs	r1, #147	; 0x93
 8005902:	fb01 f202 	mul.w	r2, r1, r2
 8005906:	1a9a      	subs	r2, r3, r2
 8005908:	b2d3      	uxtb	r3, r2
 800590a:	3301      	adds	r3, #1
 800590c:	77fb      	strb	r3, [r7, #31]
		while(!xValIsValid(randomX, 5)){
 800590e:	7ffb      	ldrb	r3, [r7, #31]
 8005910:	2105      	movs	r1, #5
 8005912:	4618      	mov	r0, r3
 8005914:	f7fd fb6b 	bl	8002fee <xValIsValid>
 8005918:	4603      	mov	r3, r0
 800591a:	2b00      	cmp	r3, #0
 800591c:	d0e7      	beq.n	80058ee <spawnPowerup+0x2a>
		}

		position_t spawnPos = {intToFp(randomX), intToFp(2)*yScale};
 800591e:	7ffb      	ldrb	r3, [r7, #31]
 8005920:	b29b      	uxth	r3, r3
 8005922:	4618      	mov	r0, r3
 8005924:	f7fd fd33 	bl	800338e <intToFp>
 8005928:	4603      	mov	r3, r0
 800592a:	617b      	str	r3, [r7, #20]
 800592c:	2002      	movs	r0, #2
 800592e:	f7fd fd2e 	bl	800338e <intToFp>
 8005932:	4603      	mov	r3, r0
 8005934:	005b      	lsls	r3, r3, #1
 8005936:	61bb      	str	r3, [r7, #24]
		vector_t vel = {intToFp(0), 0x00008000*yScale}; //0x00008000 = 0.5
 8005938:	2000      	movs	r0, #0
 800593a:	f7fd fd28 	bl	800338e <intToFp>
 800593e:	4603      	mov	r3, r0
 8005940:	60fb      	str	r3, [r7, #12]
 8005942:	f44f 3380 	mov.w	r3, #65536	; 0x10000
 8005946:	613b      	str	r3, [r7, #16]
		gameState->powerup.position=spawnPos;
 8005948:	687b      	ldr	r3, [r7, #4]
 800594a:	3348      	adds	r3, #72	; 0x48
 800594c:	f107 0214 	add.w	r2, r7, #20
 8005950:	e892 0003 	ldmia.w	r2, {r0, r1}
 8005954:	e883 0003 	stmia.w	r3, {r0, r1}
		gameState->powerup.nextPosition=spawnPos;
 8005958:	687b      	ldr	r3, [r7, #4]
 800595a:	3350      	adds	r3, #80	; 0x50
 800595c:	f107 0214 	add.w	r2, r7, #20
 8005960:	e892 0003 	ldmia.w	r2, {r0, r1}
 8005964:	e883 0003 	stmia.w	r3, {r0, r1}
		gameState->powerup.velocity=vel;
 8005968:	687b      	ldr	r3, [r7, #4]
 800596a:	3358      	adds	r3, #88	; 0x58
 800596c:	f107 020c 	add.w	r2, r7, #12
 8005970:	e892 0003 	ldmia.w	r2, {r0, r1}
 8005974:	e883 0003 	stmia.w	r3, {r0, r1}
	}
}
 8005978:	bf00      	nop
 800597a:	3720      	adds	r7, #32
 800597c:	46bd      	mov	sp, r7
 800597e:	bd80      	pop	{r7, pc}
 8005980:	200001c8 	.word	0x200001c8
 8005984:	6f74ae27 	.word	0x6f74ae27

08005988 <updatePowerup>:
/**
  * @brief  Updates the state of the powerup
  * @param  gameState: the current state of the game
  * @retval None
  */
void updatePowerup(gameState_t* gameState){
 8005988:	b590      	push	{r4, r7, lr}
 800598a:	b085      	sub	sp, #20
 800598c:	af00      	add	r7, sp, #0
 800598e:	6078      	str	r0, [r7, #4]
	if(gameState->powerup.isVisible){
 8005990:	687b      	ldr	r3, [r7, #4]
 8005992:	f893 3044 	ldrb.w	r3, [r3, #68]	; 0x44
 8005996:	2b00      	cmp	r3, #0
 8005998:	f000 80dd 	beq.w	8005b56 <updatePowerup+0x1ce>
		gameState->powerup.nextPosition.x=gameState->powerup.position.x+gameState->powerup.velocity.x;
 800599c:	687b      	ldr	r3, [r7, #4]
 800599e:	6c9a      	ldr	r2, [r3, #72]	; 0x48
 80059a0:	687b      	ldr	r3, [r7, #4]
 80059a2:	6d9b      	ldr	r3, [r3, #88]	; 0x58
 80059a4:	441a      	add	r2, r3
 80059a6:	687b      	ldr	r3, [r7, #4]
 80059a8:	651a      	str	r2, [r3, #80]	; 0x50
		gameState->powerup.nextPosition.y=gameState->powerup.position.y+gameState->powerup.velocity.y;
 80059aa:	687b      	ldr	r3, [r7, #4]
 80059ac:	6cda      	ldr	r2, [r3, #76]	; 0x4c
 80059ae:	687b      	ldr	r3, [r7, #4]
 80059b0:	6ddb      	ldr	r3, [r3, #92]	; 0x5c
 80059b2:	441a      	add	r2, r3
 80059b4:	687b      	ldr	r3, [r7, #4]
 80059b6:	655a      	str	r2, [r3, #84]	; 0x54

		//Checks if the powerup is on level with the player
		if(fpToInt(gameState->powerup.nextPosition.y)/yScale >= fpToInt(gameState->spaceship.position.y)/yScale-3){
 80059b8:	687b      	ldr	r3, [r7, #4]
 80059ba:	6d5b      	ldr	r3, [r3, #84]	; 0x54
 80059bc:	4618      	mov	r0, r3
 80059be:	f7fd fcfb 	bl	80033b8 <fpToInt>
 80059c2:	4603      	mov	r3, r0
 80059c4:	0fda      	lsrs	r2, r3, #31
 80059c6:	4413      	add	r3, r2
 80059c8:	105b      	asrs	r3, r3, #1
 80059ca:	461c      	mov	r4, r3
 80059cc:	687b      	ldr	r3, [r7, #4]
 80059ce:	69db      	ldr	r3, [r3, #28]
 80059d0:	4618      	mov	r0, r3
 80059d2:	f7fd fcf1 	bl	80033b8 <fpToInt>
 80059d6:	4603      	mov	r3, r0
 80059d8:	0fda      	lsrs	r2, r3, #31
 80059da:	4413      	add	r3, r2
 80059dc:	105b      	asrs	r3, r3, #1
 80059de:	3b03      	subs	r3, #3
 80059e0:	429c      	cmp	r4, r3
 80059e2:	f2c0 808a 	blt.w	8005afa <updatePowerup+0x172>

			//Checks if the player collides with the powerup
			uint8_t powerupIsTaken;
			if(gameState->spaceship.numberOfParts==3){
 80059e6:	687b      	ldr	r3, [r7, #4]
 80059e8:	f893 3028 	ldrb.w	r3, [r3, #40]	; 0x28
 80059ec:	2b03      	cmp	r3, #3
 80059ee:	d125      	bne.n	8005a3c <updatePowerup+0xb4>
				powerupIsTaken = fpToInt(gameState->spaceship.nextPosition.x)+1+spaceshipWidth  >= fpToInt(gameState->powerup.position.x)
 80059f0:	687b      	ldr	r3, [r7, #4]
 80059f2:	6a1b      	ldr	r3, [r3, #32]
 80059f4:	4618      	mov	r0, r3
 80059f6:	f7fd fcdf 	bl	80033b8 <fpToInt>
 80059fa:	4603      	mov	r3, r0
 80059fc:	f103 0408 	add.w	r4, r3, #8
 8005a00:	687b      	ldr	r3, [r7, #4]
 8005a02:	6c9b      	ldr	r3, [r3, #72]	; 0x48
 8005a04:	4618      	mov	r0, r3
 8005a06:	f7fd fcd7 	bl	80033b8 <fpToInt>
 8005a0a:	4603      	mov	r3, r0
				&& fpToInt(gameState->spaceship.nextPosition.x)-1-spaceshipWidth<=fpToInt(gameState->powerup.position.x)+4;
 8005a0c:	429c      	cmp	r4, r3
 8005a0e:	db12      	blt.n	8005a36 <updatePowerup+0xae>
 8005a10:	687b      	ldr	r3, [r7, #4]
 8005a12:	6a1b      	ldr	r3, [r3, #32]
 8005a14:	4618      	mov	r0, r3
 8005a16:	f7fd fccf 	bl	80033b8 <fpToInt>
 8005a1a:	4603      	mov	r3, r0
 8005a1c:	f1a3 0408 	sub.w	r4, r3, #8
 8005a20:	687b      	ldr	r3, [r7, #4]
 8005a22:	6c9b      	ldr	r3, [r3, #72]	; 0x48
 8005a24:	4618      	mov	r0, r3
 8005a26:	f7fd fcc7 	bl	80033b8 <fpToInt>
 8005a2a:	4603      	mov	r3, r0
 8005a2c:	3304      	adds	r3, #4
 8005a2e:	429c      	cmp	r4, r3
 8005a30:	dc01      	bgt.n	8005a36 <updatePowerup+0xae>
 8005a32:	2301      	movs	r3, #1
 8005a34:	e000      	b.n	8005a38 <updatePowerup+0xb0>
 8005a36:	2300      	movs	r3, #0
				powerupIsTaken = fpToInt(gameState->spaceship.nextPosition.x)+1+spaceshipWidth  >= fpToInt(gameState->powerup.position.x)
 8005a38:	73fb      	strb	r3, [r7, #15]
 8005a3a:	e02a      	b.n	8005a92 <updatePowerup+0x10a>
			} else {
			 powerupIsTaken = fpToInt(gameState->spaceship.nextPosition.x)+1+(gameState->spaceship.numberOfParts-1)*spaceshipWidth>=fpToInt(gameState->powerup.position.x)
 8005a3c:	687b      	ldr	r3, [r7, #4]
 8005a3e:	6a1b      	ldr	r3, [r3, #32]
 8005a40:	4618      	mov	r0, r3
 8005a42:	f7fd fcb9 	bl	80033b8 <fpToInt>
 8005a46:	4603      	mov	r3, r0
 8005a48:	1c59      	adds	r1, r3, #1
 8005a4a:	687b      	ldr	r3, [r7, #4]
 8005a4c:	f893 3028 	ldrb.w	r3, [r3, #40]	; 0x28
 8005a50:	1e5a      	subs	r2, r3, #1
 8005a52:	4613      	mov	r3, r2
 8005a54:	00db      	lsls	r3, r3, #3
 8005a56:	1a9b      	subs	r3, r3, r2
 8005a58:	18cc      	adds	r4, r1, r3
 8005a5a:	687b      	ldr	r3, [r7, #4]
 8005a5c:	6c9b      	ldr	r3, [r3, #72]	; 0x48
 8005a5e:	4618      	mov	r0, r3
 8005a60:	f7fd fcaa 	bl	80033b8 <fpToInt>
 8005a64:	4603      	mov	r3, r0
			&& fpToInt(gameState->spaceship.nextPosition.x)-1<=fpToInt(gameState->powerup.position.x)+4;
 8005a66:	429c      	cmp	r4, r3
 8005a68:	db11      	blt.n	8005a8e <updatePowerup+0x106>
 8005a6a:	687b      	ldr	r3, [r7, #4]
 8005a6c:	6a1b      	ldr	r3, [r3, #32]
 8005a6e:	4618      	mov	r0, r3
 8005a70:	f7fd fca2 	bl	80033b8 <fpToInt>
 8005a74:	4603      	mov	r3, r0
 8005a76:	1e5c      	subs	r4, r3, #1
 8005a78:	687b      	ldr	r3, [r7, #4]
 8005a7a:	6c9b      	ldr	r3, [r3, #72]	; 0x48
 8005a7c:	4618      	mov	r0, r3
 8005a7e:	f7fd fc9b 	bl	80033b8 <fpToInt>
 8005a82:	4603      	mov	r3, r0
 8005a84:	3304      	adds	r3, #4
 8005a86:	429c      	cmp	r4, r3
 8005a88:	dc01      	bgt.n	8005a8e <updatePowerup+0x106>
 8005a8a:	2301      	movs	r3, #1
 8005a8c:	e000      	b.n	8005a90 <updatePowerup+0x108>
 8005a8e:	2300      	movs	r3, #0
			 powerupIsTaken = fpToInt(gameState->spaceship.nextPosition.x)+1+(gameState->spaceship.numberOfParts-1)*spaceshipWidth>=fpToInt(gameState->powerup.position.x)
 8005a90:	73fb      	strb	r3, [r7, #15]
			}

			if(powerupIsTaken){
 8005a92:	7bfb      	ldrb	r3, [r7, #15]
 8005a94:	2b00      	cmp	r3, #0
 8005a96:	d030      	beq.n	8005afa <updatePowerup+0x172>
				deletePowerupGraphics(fpToInt(gameState->powerup.position.x),fpToInt(gameState->powerup.position.y)/yScale);
 8005a98:	687b      	ldr	r3, [r7, #4]
 8005a9a:	6c9b      	ldr	r3, [r3, #72]	; 0x48
 8005a9c:	4618      	mov	r0, r3
 8005a9e:	f7fd fc8b 	bl	80033b8 <fpToInt>
 8005aa2:	4603      	mov	r3, r0
 8005aa4:	b2dc      	uxtb	r4, r3
 8005aa6:	687b      	ldr	r3, [r7, #4]
 8005aa8:	6cdb      	ldr	r3, [r3, #76]	; 0x4c
 8005aaa:	4618      	mov	r0, r3
 8005aac:	f7fd fc84 	bl	80033b8 <fpToInt>
 8005ab0:	4603      	mov	r3, r0
 8005ab2:	0fda      	lsrs	r2, r3, #31
 8005ab4:	4413      	add	r3, r2
 8005ab6:	105b      	asrs	r3, r3, #1
 8005ab8:	b2db      	uxtb	r3, r3
 8005aba:	4619      	mov	r1, r3
 8005abc:	4620      	mov	r0, r4
 8005abe:	f7fe fc6f 	bl	80043a0 <deletePowerupGraphics>
				gameState->powerup.isVisible=0;
 8005ac2:	687b      	ldr	r3, [r7, #4]
 8005ac4:	2200      	movs	r2, #0
 8005ac6:	f883 2044 	strb.w	r2, [r3, #68]	; 0x44
				gameState->soundToPlay = 3;
 8005aca:	687b      	ldr	r3, [r7, #4]
 8005acc:	2203      	movs	r2, #3
 8005ace:	f883 2064 	strb.w	r2, [r3, #100]	; 0x64
				if(gameState->spaceship.numberOfParts<3){
 8005ad2:	687b      	ldr	r3, [r7, #4]
 8005ad4:	f893 3028 	ldrb.w	r3, [r3, #40]	; 0x28
 8005ad8:	2b02      	cmp	r3, #2
 8005ada:	d808      	bhi.n	8005aee <updatePowerup+0x166>
					gameState->spaceship.numberOfParts++;
 8005adc:	687b      	ldr	r3, [r7, #4]
 8005ade:	f893 3028 	ldrb.w	r3, [r3, #40]	; 0x28
 8005ae2:	3301      	adds	r3, #1
 8005ae4:	b2da      	uxtb	r2, r3
 8005ae6:	687b      	ldr	r3, [r7, #4]
 8005ae8:	f883 2028 	strb.w	r2, [r3, #40]	; 0x28
 8005aec:	e005      	b.n	8005afa <updatePowerup+0x172>
				} else {
					gameState->score += 100;
 8005aee:	687b      	ldr	r3, [r7, #4]
 8005af0:	8e5b      	ldrh	r3, [r3, #50]	; 0x32
 8005af2:	3364      	adds	r3, #100	; 0x64
 8005af4:	b29a      	uxth	r2, r3
 8005af6:	687b      	ldr	r3, [r7, #4]
 8005af8:	865a      	strh	r2, [r3, #50]	; 0x32
				}
			}
		}

		//Deletes the powerup if below the screen
		if(fpToInt(gameState->powerup.nextPosition.y)/yScale>=fpToInt(gameState->spaceship.position.y)/yScale+1){
 8005afa:	687b      	ldr	r3, [r7, #4]
 8005afc:	69db      	ldr	r3, [r3, #28]
 8005afe:	4618      	mov	r0, r3
 8005b00:	f7fd fc5a 	bl	80033b8 <fpToInt>
 8005b04:	4603      	mov	r3, r0
 8005b06:	0fda      	lsrs	r2, r3, #31
 8005b08:	4413      	add	r3, r2
 8005b0a:	105b      	asrs	r3, r3, #1
 8005b0c:	461c      	mov	r4, r3
 8005b0e:	687b      	ldr	r3, [r7, #4]
 8005b10:	6d5b      	ldr	r3, [r3, #84]	; 0x54
 8005b12:	4618      	mov	r0, r3
 8005b14:	f7fd fc50 	bl	80033b8 <fpToInt>
 8005b18:	4603      	mov	r3, r0
 8005b1a:	0fda      	lsrs	r2, r3, #31
 8005b1c:	4413      	add	r3, r2
 8005b1e:	105b      	asrs	r3, r3, #1
 8005b20:	429c      	cmp	r4, r3
 8005b22:	da18      	bge.n	8005b56 <updatePowerup+0x1ce>
			deletePowerupGraphics(fpToInt(gameState->powerup.position.x),fpToInt(gameState->powerup.position.y)/yScale);
 8005b24:	687b      	ldr	r3, [r7, #4]
 8005b26:	6c9b      	ldr	r3, [r3, #72]	; 0x48
 8005b28:	4618      	mov	r0, r3
 8005b2a:	f7fd fc45 	bl	80033b8 <fpToInt>
 8005b2e:	4603      	mov	r3, r0
 8005b30:	b2dc      	uxtb	r4, r3
 8005b32:	687b      	ldr	r3, [r7, #4]
 8005b34:	6cdb      	ldr	r3, [r3, #76]	; 0x4c
 8005b36:	4618      	mov	r0, r3
 8005b38:	f7fd fc3e 	bl	80033b8 <fpToInt>
 8005b3c:	4603      	mov	r3, r0
 8005b3e:	0fda      	lsrs	r2, r3, #31
 8005b40:	4413      	add	r3, r2
 8005b42:	105b      	asrs	r3, r3, #1
 8005b44:	b2db      	uxtb	r3, r3
 8005b46:	4619      	mov	r1, r3
 8005b48:	4620      	mov	r0, r4
 8005b4a:	f7fe fc29 	bl	80043a0 <deletePowerupGraphics>
			gameState->powerup.isVisible=0;
 8005b4e:	687b      	ldr	r3, [r7, #4]
 8005b50:	2200      	movs	r2, #0
 8005b52:	f883 2044 	strb.w	r2, [r3, #68]	; 0x44
		}
	}
}
 8005b56:	bf00      	nop
 8005b58:	3714      	adds	r7, #20
 8005b5a:	46bd      	mov	sp, r7
 8005b5c:	bd90      	pop	{r4, r7, pc}

08005b5e <drawPowerup>:
/**
  * @brief  Draw the powerup to the screen
  * @param  gameState: the current state of the game
  * @retval None
  */
void drawPowerup(gameState_t* gameState){
 8005b5e:	b590      	push	{r4, r7, lr}
 8005b60:	b083      	sub	sp, #12
 8005b62:	af00      	add	r7, sp, #0
 8005b64:	6078      	str	r0, [r7, #4]
	if(gameState->powerup.isVisible){
 8005b66:	687b      	ldr	r3, [r7, #4]
 8005b68:	f893 3044 	ldrb.w	r3, [r3, #68]	; 0x44
 8005b6c:	2b00      	cmp	r3, #0
 8005b6e:	d031      	beq.n	8005bd4 <drawPowerup+0x76>
		deletePowerupGraphics(fpToInt(gameState->powerup.position.x),fpToInt(gameState->powerup.position.y)/yScale);
 8005b70:	687b      	ldr	r3, [r7, #4]
 8005b72:	6c9b      	ldr	r3, [r3, #72]	; 0x48
 8005b74:	4618      	mov	r0, r3
 8005b76:	f7fd fc1f 	bl	80033b8 <fpToInt>
 8005b7a:	4603      	mov	r3, r0
 8005b7c:	b2dc      	uxtb	r4, r3
 8005b7e:	687b      	ldr	r3, [r7, #4]
 8005b80:	6cdb      	ldr	r3, [r3, #76]	; 0x4c
 8005b82:	4618      	mov	r0, r3
 8005b84:	f7fd fc18 	bl	80033b8 <fpToInt>
 8005b88:	4603      	mov	r3, r0
 8005b8a:	0fda      	lsrs	r2, r3, #31
 8005b8c:	4413      	add	r3, r2
 8005b8e:	105b      	asrs	r3, r3, #1
 8005b90:	b2db      	uxtb	r3, r3
 8005b92:	4619      	mov	r1, r3
 8005b94:	4620      	mov	r0, r4
 8005b96:	f7fe fc03 	bl	80043a0 <deletePowerupGraphics>
		drawPowerupGraphics(fpToInt(gameState->powerup.nextPosition.x),fpToInt(gameState->powerup.nextPosition.y)/yScale);
 8005b9a:	687b      	ldr	r3, [r7, #4]
 8005b9c:	6d1b      	ldr	r3, [r3, #80]	; 0x50
 8005b9e:	4618      	mov	r0, r3
 8005ba0:	f7fd fc0a 	bl	80033b8 <fpToInt>
 8005ba4:	4603      	mov	r3, r0
 8005ba6:	b2dc      	uxtb	r4, r3
 8005ba8:	687b      	ldr	r3, [r7, #4]
 8005baa:	6d5b      	ldr	r3, [r3, #84]	; 0x54
 8005bac:	4618      	mov	r0, r3
 8005bae:	f7fd fc03 	bl	80033b8 <fpToInt>
 8005bb2:	4603      	mov	r3, r0
 8005bb4:	0fda      	lsrs	r2, r3, #31
 8005bb6:	4413      	add	r3, r2
 8005bb8:	105b      	asrs	r3, r3, #1
 8005bba:	b2db      	uxtb	r3, r3
 8005bbc:	4619      	mov	r1, r3
 8005bbe:	4620      	mov	r0, r4
 8005bc0:	f7fe fbcc 	bl	800435c <drawPowerupGraphics>
		gameState->powerup.position=gameState->powerup.nextPosition;
 8005bc4:	687b      	ldr	r3, [r7, #4]
 8005bc6:	687a      	ldr	r2, [r7, #4]
 8005bc8:	3348      	adds	r3, #72	; 0x48
 8005bca:	3250      	adds	r2, #80	; 0x50
 8005bcc:	e892 0003 	ldmia.w	r2, {r0, r1}
 8005bd0:	e883 0003 	stmia.w	r3, {r0, r1}
	}
}
 8005bd4:	bf00      	nop
 8005bd6:	370c      	adds	r7, #12
 8005bd8:	46bd      	mov	sp, r7
 8005bda:	bd90      	pop	{r4, r7, pc}

08005bdc <playSound>:
/**
  * @brief  Checks if a sound should be played, and does if so
  * @param  gameState: the current state of the game
  * @retval None
  */
void playSound(gameState_t* gameState){
 8005bdc:	b580      	push	{r7, lr}
 8005bde:	b082      	sub	sp, #8
 8005be0:	af00      	add	r7, sp, #0
 8005be2:	6078      	str	r0, [r7, #4]
	//Checks if a sound should play
	if(gameState->soundToPlay == 0) return;
 8005be4:	687b      	ldr	r3, [r7, #4]
 8005be6:	f893 3064 	ldrb.w	r3, [r3, #100]	; 0x64
 8005bea:	2b00      	cmp	r3, #0
 8005bec:	d071      	beq.n	8005cd2 <playSound+0xf6>

	//Checks if the sound has changed
	if(gameState->soundToPlay != gameState->lastSoundToPlay){
 8005bee:	687b      	ldr	r3, [r7, #4]
 8005bf0:	f893 2064 	ldrb.w	r2, [r3, #100]	; 0x64
 8005bf4:	687b      	ldr	r3, [r7, #4]
 8005bf6:	f893 3065 	ldrb.w	r3, [r3, #101]	; 0x65
 8005bfa:	429a      	cmp	r2, r3
 8005bfc:	d003      	beq.n	8005c06 <playSound+0x2a>
		gameState->soundIndex = 0;
 8005bfe:	687b      	ldr	r3, [r7, #4]
 8005c00:	2200      	movs	r2, #0
 8005c02:	f883 2066 	strb.w	r2, [r3, #102]	; 0x66
	}

	//Checks if the current tone has completed
	if(runtime - gameState->soundTime > sounds[gameState->soundToPlay][gameState->soundIndex-1].duration){
 8005c06:	4b35      	ldr	r3, [pc, #212]	; (8005cdc <playSound+0x100>)
 8005c08:	681a      	ldr	r2, [r3, #0]
 8005c0a:	687b      	ldr	r3, [r7, #4]
 8005c0c:	6e9b      	ldr	r3, [r3, #104]	; 0x68
 8005c0e:	1ad2      	subs	r2, r2, r3
 8005c10:	687b      	ldr	r3, [r7, #4]
 8005c12:	f893 3064 	ldrb.w	r3, [r3, #100]	; 0x64
 8005c16:	4619      	mov	r1, r3
 8005c18:	687b      	ldr	r3, [r7, #4]
 8005c1a:	f893 3066 	ldrb.w	r3, [r3, #102]	; 0x66
 8005c1e:	3b01      	subs	r3, #1
 8005c20:	482f      	ldr	r0, [pc, #188]	; (8005ce0 <playSound+0x104>)
 8005c22:	0089      	lsls	r1, r1, #2
 8005c24:	440b      	add	r3, r1
 8005c26:	009b      	lsls	r3, r3, #2
 8005c28:	4403      	add	r3, r0
 8005c2a:	885b      	ldrh	r3, [r3, #2]
 8005c2c:	429a      	cmp	r2, r3
 8005c2e:	d949      	bls.n	8005cc4 <playSound+0xe8>
		toggleBuzzer(1);
 8005c30:	2001      	movs	r0, #1
 8005c32:	f7fd f9b9 	bl	8002fa8 <toggleBuzzer>
		setFreq(sounds[gameState->soundToPlay][gameState->soundIndex].frequency);
 8005c36:	687b      	ldr	r3, [r7, #4]
 8005c38:	f893 3064 	ldrb.w	r3, [r3, #100]	; 0x64
 8005c3c:	4618      	mov	r0, r3
 8005c3e:	687b      	ldr	r3, [r7, #4]
 8005c40:	f893 3066 	ldrb.w	r3, [r3, #102]	; 0x66
 8005c44:	4619      	mov	r1, r3
 8005c46:	4a26      	ldr	r2, [pc, #152]	; (8005ce0 <playSound+0x104>)
 8005c48:	0083      	lsls	r3, r0, #2
 8005c4a:	440b      	add	r3, r1
 8005c4c:	f832 3023 	ldrh.w	r3, [r2, r3, lsl #2]
 8005c50:	4618      	mov	r0, r3
 8005c52:	f7fd f961 	bl	8002f18 <setFreq>


		//If it reaches {0,0} stop playing any sound
		if(sounds[gameState->soundToPlay][gameState->soundIndex].duration == 0 &&
 8005c56:	687b      	ldr	r3, [r7, #4]
 8005c58:	f893 3064 	ldrb.w	r3, [r3, #100]	; 0x64
 8005c5c:	4618      	mov	r0, r3
 8005c5e:	687b      	ldr	r3, [r7, #4]
 8005c60:	f893 3066 	ldrb.w	r3, [r3, #102]	; 0x66
 8005c64:	4619      	mov	r1, r3
 8005c66:	4a1e      	ldr	r2, [pc, #120]	; (8005ce0 <playSound+0x104>)
 8005c68:	0083      	lsls	r3, r0, #2
 8005c6a:	440b      	add	r3, r1
 8005c6c:	009b      	lsls	r3, r3, #2
 8005c6e:	4413      	add	r3, r2
 8005c70:	885b      	ldrh	r3, [r3, #2]
 8005c72:	2b00      	cmp	r3, #0
 8005c74:	d11a      	bne.n	8005cac <playSound+0xd0>
				sounds[gameState->soundToPlay][gameState->soundIndex].frequency == 0){
 8005c76:	687b      	ldr	r3, [r7, #4]
 8005c78:	f893 3064 	ldrb.w	r3, [r3, #100]	; 0x64
 8005c7c:	4618      	mov	r0, r3
 8005c7e:	687b      	ldr	r3, [r7, #4]
 8005c80:	f893 3066 	ldrb.w	r3, [r3, #102]	; 0x66
 8005c84:	4619      	mov	r1, r3
 8005c86:	4a16      	ldr	r2, [pc, #88]	; (8005ce0 <playSound+0x104>)
 8005c88:	0083      	lsls	r3, r0, #2
 8005c8a:	440b      	add	r3, r1
 8005c8c:	f832 3023 	ldrh.w	r3, [r2, r3, lsl #2]
		if(sounds[gameState->soundToPlay][gameState->soundIndex].duration == 0 &&
 8005c90:	2b00      	cmp	r3, #0
 8005c92:	d10b      	bne.n	8005cac <playSound+0xd0>
			toggleBuzzer(0);
 8005c94:	2000      	movs	r0, #0
 8005c96:	f7fd f987 	bl	8002fa8 <toggleBuzzer>
			gameState->soundToPlay = 0;
 8005c9a:	687b      	ldr	r3, [r7, #4]
 8005c9c:	2200      	movs	r2, #0
 8005c9e:	f883 2064 	strb.w	r2, [r3, #100]	; 0x64
			gameState->soundIndex = 0;
 8005ca2:	687b      	ldr	r3, [r7, #4]
 8005ca4:	2200      	movs	r2, #0
 8005ca6:	f883 2066 	strb.w	r2, [r3, #102]	; 0x66
 8005caa:	e00b      	b.n	8005cc4 <playSound+0xe8>
		}else{
			gameState->soundIndex++;
 8005cac:	687b      	ldr	r3, [r7, #4]
 8005cae:	f893 3066 	ldrb.w	r3, [r3, #102]	; 0x66
 8005cb2:	3301      	adds	r3, #1
 8005cb4:	b2da      	uxtb	r2, r3
 8005cb6:	687b      	ldr	r3, [r7, #4]
 8005cb8:	f883 2066 	strb.w	r2, [r3, #102]	; 0x66
			gameState->soundTime = runtime;
 8005cbc:	4b07      	ldr	r3, [pc, #28]	; (8005cdc <playSound+0x100>)
 8005cbe:	681a      	ldr	r2, [r3, #0]
 8005cc0:	687b      	ldr	r3, [r7, #4]
 8005cc2:	669a      	str	r2, [r3, #104]	; 0x68
		}
	}
	gameState->lastSoundToPlay = gameState->soundToPlay;
 8005cc4:	687b      	ldr	r3, [r7, #4]
 8005cc6:	f893 2064 	ldrb.w	r2, [r3, #100]	; 0x64
 8005cca:	687b      	ldr	r3, [r7, #4]
 8005ccc:	f883 2065 	strb.w	r2, [r3, #101]	; 0x65
 8005cd0:	e000      	b.n	8005cd4 <playSound+0xf8>
	if(gameState->soundToPlay == 0) return;
 8005cd2:	bf00      	nop
}
 8005cd4:	3708      	adds	r7, #8
 8005cd6:	46bd      	mov	sp, r7
 8005cd8:	bd80      	pop	{r7, pc}
 8005cda:	bf00      	nop
 8005cdc:	200001c8 	.word	0x200001c8
 8005ce0:	08007db0 	.word	0x08007db0

08005ce4 <updateSpaceship>:
/**
  * @brief  Updates the position of the spaceship
  * @param  gameState: the current state of the game
  * @retval None
  */
void updateSpaceship(gameState_t* gameState){
 8005ce4:	b590      	push	{r4, r7, lr}
 8005ce6:	b085      	sub	sp, #20
 8005ce8:	af00      	add	r7, sp, #0
 8005cea:	6078      	str	r0, [r7, #4]
	//Reads the potentiometer and calculates the x-value by dividing it by 13 (2048 / 156) (2048 is half of the potentiometer range)
	uint16_t potVal = readPotentiometer();
 8005cec:	f7fc ff9a 	bl	8002c24 <readPotentiometer>
 8005cf0:	4603      	mov	r3, r0
 8005cf2:	817b      	strh	r3, [r7, #10]
	uint32_t x = fpDivide(intToFp(potVal), intToFp(13)) ;
 8005cf4:	897b      	ldrh	r3, [r7, #10]
 8005cf6:	4618      	mov	r0, r3
 8005cf8:	f7fd fb49 	bl	800338e <intToFp>
 8005cfc:	4604      	mov	r4, r0
 8005cfe:	200d      	movs	r0, #13
 8005d00:	f7fd fb45 	bl	800338e <intToFp>
 8005d04:	4603      	mov	r3, r0
 8005d06:	4619      	mov	r1, r3
 8005d08:	4620      	mov	r0, r4
 8005d0a:	f7fd fb97 	bl	800343c <fpDivide>
 8005d0e:	60f8      	str	r0, [r7, #12]

	//Ant jitter
	if(fpAbs(gameState->spaceship.prePosition.x - x) < intToFp(2)){
 8005d10:	687b      	ldr	r3, [r7, #4]
 8005d12:	691a      	ldr	r2, [r3, #16]
 8005d14:	68fb      	ldr	r3, [r7, #12]
 8005d16:	1ad3      	subs	r3, r2, r3
 8005d18:	4618      	mov	r0, r3
 8005d1a:	f7fd fbd9 	bl	80034d0 <fpAbs>
 8005d1e:	4604      	mov	r4, r0
 8005d20:	2002      	movs	r0, #2
 8005d22:	f7fd fb34 	bl	800338e <intToFp>
 8005d26:	4603      	mov	r3, r0
 8005d28:	429c      	cmp	r4, r3
 8005d2a:	d354      	bcc.n	8005dd6 <updateSpaceship+0xf2>
		return;
	}

	//Stops the spaceship at the edges
	if(gameState->spaceship.numberOfParts==1){
 8005d2c:	687b      	ldr	r3, [r7, #4]
 8005d2e:	f893 3028 	ldrb.w	r3, [r3, #40]	; 0x28
 8005d32:	2b01      	cmp	r3, #1
 8005d34:	d114      	bne.n	8005d60 <updateSpaceship+0x7c>
		if(fpToInt(x) <= 2){
 8005d36:	68f8      	ldr	r0, [r7, #12]
 8005d38:	f7fd fb3e 	bl	80033b8 <fpToInt>
 8005d3c:	4603      	mov	r3, r0
 8005d3e:	2b02      	cmp	r3, #2
 8005d40:	dc03      	bgt.n	8005d4a <updateSpaceship+0x66>
			x = intToFp(3);
 8005d42:	2003      	movs	r0, #3
 8005d44:	f7fd fb23 	bl	800338e <intToFp>
 8005d48:	60f8      	str	r0, [r7, #12]
		}
		if(fpToInt(x) >= 155){
 8005d4a:	68f8      	ldr	r0, [r7, #12]
 8005d4c:	f7fd fb34 	bl	80033b8 <fpToInt>
 8005d50:	4603      	mov	r3, r0
 8005d52:	2b9a      	cmp	r3, #154	; 0x9a
 8005d54:	dd37      	ble.n	8005dc6 <updateSpaceship+0xe2>
			x = intToFp(154);
 8005d56:	209a      	movs	r0, #154	; 0x9a
 8005d58:	f7fd fb19 	bl	800338e <intToFp>
 8005d5c:	60f8      	str	r0, [r7, #12]
 8005d5e:	e032      	b.n	8005dc6 <updateSpaceship+0xe2>
		}
	}
	else if(gameState->spaceship.numberOfParts==2){
 8005d60:	687b      	ldr	r3, [r7, #4]
 8005d62:	f893 3028 	ldrb.w	r3, [r3, #40]	; 0x28
 8005d66:	2b02      	cmp	r3, #2
 8005d68:	d114      	bne.n	8005d94 <updateSpaceship+0xb0>
		if(fpToInt(x) <= 2){
 8005d6a:	68f8      	ldr	r0, [r7, #12]
 8005d6c:	f7fd fb24 	bl	80033b8 <fpToInt>
 8005d70:	4603      	mov	r3, r0
 8005d72:	2b02      	cmp	r3, #2
 8005d74:	dc03      	bgt.n	8005d7e <updateSpaceship+0x9a>
			x = intToFp(3);
 8005d76:	2003      	movs	r0, #3
 8005d78:	f7fd fb09 	bl	800338e <intToFp>
 8005d7c:	60f8      	str	r0, [r7, #12]
		}
		if(fpToInt(x) >= 155-7){
 8005d7e:	68f8      	ldr	r0, [r7, #12]
 8005d80:	f7fd fb1a 	bl	80033b8 <fpToInt>
 8005d84:	4603      	mov	r3, r0
 8005d86:	2b93      	cmp	r3, #147	; 0x93
 8005d88:	dd1d      	ble.n	8005dc6 <updateSpaceship+0xe2>
			x = intToFp(154-7);
 8005d8a:	2093      	movs	r0, #147	; 0x93
 8005d8c:	f7fd faff 	bl	800338e <intToFp>
 8005d90:	60f8      	str	r0, [r7, #12]
 8005d92:	e018      	b.n	8005dc6 <updateSpaceship+0xe2>
		}
	}
	else if(gameState->spaceship.numberOfParts==3){
 8005d94:	687b      	ldr	r3, [r7, #4]
 8005d96:	f893 3028 	ldrb.w	r3, [r3, #40]	; 0x28
 8005d9a:	2b03      	cmp	r3, #3
 8005d9c:	d113      	bne.n	8005dc6 <updateSpaceship+0xe2>
		if(fpToInt(x) <= 2+7){
 8005d9e:	68f8      	ldr	r0, [r7, #12]
 8005da0:	f7fd fb0a 	bl	80033b8 <fpToInt>
 8005da4:	4603      	mov	r3, r0
 8005da6:	2b09      	cmp	r3, #9
 8005da8:	dc03      	bgt.n	8005db2 <updateSpaceship+0xce>
			x = intToFp(3+7);
 8005daa:	200a      	movs	r0, #10
 8005dac:	f7fd faef 	bl	800338e <intToFp>
 8005db0:	60f8      	str	r0, [r7, #12]
		}
		if(fpToInt(x) >= 155-7){
 8005db2:	68f8      	ldr	r0, [r7, #12]
 8005db4:	f7fd fb00 	bl	80033b8 <fpToInt>
 8005db8:	4603      	mov	r3, r0
 8005dba:	2b93      	cmp	r3, #147	; 0x93
 8005dbc:	dd03      	ble.n	8005dc6 <updateSpaceship+0xe2>
			x = intToFp(154-7);
 8005dbe:	2093      	movs	r0, #147	; 0x93
 8005dc0:	f7fd fae5 	bl	800338e <intToFp>
 8005dc4:	60f8      	str	r0, [r7, #12]
		}
	}
	gameState->spaceship.prePosition.x = gameState->spaceship.position.x;
 8005dc6:	687b      	ldr	r3, [r7, #4]
 8005dc8:	699a      	ldr	r2, [r3, #24]
 8005dca:	687b      	ldr	r3, [r7, #4]
 8005dcc:	611a      	str	r2, [r3, #16]
	gameState->spaceship.nextPosition.x = x;
 8005dce:	687b      	ldr	r3, [r7, #4]
 8005dd0:	68fa      	ldr	r2, [r7, #12]
 8005dd2:	621a      	str	r2, [r3, #32]
 8005dd4:	e000      	b.n	8005dd8 <updateSpaceship+0xf4>
		return;
 8005dd6:	bf00      	nop
}
 8005dd8:	3714      	adds	r7, #20
 8005dda:	46bd      	mov	sp, r7
 8005ddc:	bd90      	pop	{r4, r7, pc}
	...

08005de0 <shootSpaceship>:
/**
  * @brief  Shoot a bullet if center is pressed
  * @param  gameState: the current state of the game
  * @retval None
  */
void shootSpaceship(gameState_t* gameState){
 8005de0:	b5b0      	push	{r4, r5, r7, lr}
 8005de2:	b09e      	sub	sp, #120	; 0x78
 8005de4:	af04      	add	r7, sp, #16
 8005de6:	6078      	str	r0, [r7, #4]

	if(centerIsPressed()){
 8005de8:	f7fc fb96 	bl	8002518 <centerIsPressed>
 8005dec:	4603      	mov	r3, r0
 8005dee:	2b00      	cmp	r3, #0
 8005df0:	f000 80d2 	beq.w	8005f98 <shootSpaceship+0x1b8>
		gameState->soundToPlay = 1;
 8005df4:	687b      	ldr	r3, [r7, #4]
 8005df6:	2201      	movs	r2, #1
 8005df8:	f883 2064 	strb.w	r2, [r3, #100]	; 0x64

		//Shoots a bullet for each part of the ship
		for (int i = 0; i < gameState->spaceship.numberOfParts; i++){
 8005dfc:	2300      	movs	r3, #0
 8005dfe:	667b      	str	r3, [r7, #100]	; 0x64
 8005e00:	e0c2      	b.n	8005f88 <shootSpaceship+0x1a8>
			uint32_t levelMultiplier = fpMultiply(intToFp(gameState->score/100) + intToFp(gameState->difficulty), 0x00004000) + intToFp(1); //level * 0.25 + 1
 8005e02:	687b      	ldr	r3, [r7, #4]
 8005e04:	8e5b      	ldrh	r3, [r3, #50]	; 0x32
 8005e06:	4a66      	ldr	r2, [pc, #408]	; (8005fa0 <shootSpaceship+0x1c0>)
 8005e08:	fba2 2303 	umull	r2, r3, r2, r3
 8005e0c:	095b      	lsrs	r3, r3, #5
 8005e0e:	b29b      	uxth	r3, r3
 8005e10:	4618      	mov	r0, r3
 8005e12:	f7fd fabc 	bl	800338e <intToFp>
 8005e16:	4604      	mov	r4, r0
 8005e18:	687b      	ldr	r3, [r7, #4]
 8005e1a:	f893 3039 	ldrb.w	r3, [r3, #57]	; 0x39
 8005e1e:	b29b      	uxth	r3, r3
 8005e20:	4618      	mov	r0, r3
 8005e22:	f7fd fab4 	bl	800338e <intToFp>
 8005e26:	4603      	mov	r3, r0
 8005e28:	4423      	add	r3, r4
 8005e2a:	f44f 4180 	mov.w	r1, #16384	; 0x4000
 8005e2e:	4618      	mov	r0, r3
 8005e30:	f7fd fae3 	bl	80033fa <fpMultiply>
 8005e34:	4604      	mov	r4, r0
 8005e36:	2001      	movs	r0, #1
 8005e38:	f7fd faa9 	bl	800338e <intToFp>
 8005e3c:	4603      	mov	r3, r0
 8005e3e:	4423      	add	r3, r4
 8005e40:	663b      	str	r3, [r7, #96]	; 0x60
			if(i == 2){
 8005e42:	6e7b      	ldr	r3, [r7, #100]	; 0x64
 8005e44:	2b02      	cmp	r3, #2
 8005e46:	d14b      	bne.n	8005ee0 <shootSpaceship+0x100>
				vector_t bulletVelocity = {intToFp(0),fpMultiply(0xffff8000 * yScale, levelMultiplier)}; //{0, -0,5 * Multiplier}
 8005e48:	2000      	movs	r0, #0
 8005e4a:	f7fd faa0 	bl	800338e <intToFp>
 8005e4e:	4603      	mov	r3, r0
 8005e50:	65bb      	str	r3, [r7, #88]	; 0x58
 8005e52:	6e39      	ldr	r1, [r7, #96]	; 0x60
 8005e54:	4853      	ldr	r0, [pc, #332]	; (8005fa4 <shootSpaceship+0x1c4>)
 8005e56:	f7fd fad0 	bl	80033fa <fpMultiply>
 8005e5a:	4603      	mov	r3, r0
 8005e5c:	65fb      	str	r3, [r7, #92]	; 0x5c
				position_t bulletPos = {gameState->spaceship.position.x-intToFp(spaceshipWidth), gameState->spaceship.position.y-intToFp(1)*yScale};
 8005e5e:	687b      	ldr	r3, [r7, #4]
 8005e60:	699c      	ldr	r4, [r3, #24]
 8005e62:	2007      	movs	r0, #7
 8005e64:	f7fd fa93 	bl	800338e <intToFp>
 8005e68:	4603      	mov	r3, r0
 8005e6a:	1ae3      	subs	r3, r4, r3
 8005e6c:	653b      	str	r3, [r7, #80]	; 0x50
 8005e6e:	687b      	ldr	r3, [r7, #4]
 8005e70:	69dc      	ldr	r4, [r3, #28]
 8005e72:	2001      	movs	r0, #1
 8005e74:	f7fd fa8b 	bl	800338e <intToFp>
 8005e78:	4603      	mov	r3, r0
 8005e7a:	005b      	lsls	r3, r3, #1
 8005e7c:	1ae3      	subs	r3, r4, r3
 8005e7e:	657b      	str	r3, [r7, #84]	; 0x54
				bullet_t bullet = {bulletPos, bulletPos, bulletVelocity};
 8005e80:	f107 0334 	add.w	r3, r7, #52	; 0x34
 8005e84:	2200      	movs	r2, #0
 8005e86:	601a      	str	r2, [r3, #0]
 8005e88:	605a      	str	r2, [r3, #4]
 8005e8a:	609a      	str	r2, [r3, #8]
 8005e8c:	60da      	str	r2, [r3, #12]
 8005e8e:	611a      	str	r2, [r3, #16]
 8005e90:	615a      	str	r2, [r3, #20]
 8005e92:	619a      	str	r2, [r3, #24]
 8005e94:	f107 0334 	add.w	r3, r7, #52	; 0x34
 8005e98:	f107 0250 	add.w	r2, r7, #80	; 0x50
 8005e9c:	e892 0003 	ldmia.w	r2, {r0, r1}
 8005ea0:	e883 0003 	stmia.w	r3, {r0, r1}
 8005ea4:	f107 033c 	add.w	r3, r7, #60	; 0x3c
 8005ea8:	f107 0250 	add.w	r2, r7, #80	; 0x50
 8005eac:	e892 0003 	ldmia.w	r2, {r0, r1}
 8005eb0:	e883 0003 	stmia.w	r3, {r0, r1}
 8005eb4:	f107 0344 	add.w	r3, r7, #68	; 0x44
 8005eb8:	f107 0258 	add.w	r2, r7, #88	; 0x58
 8005ebc:	e892 0003 	ldmia.w	r2, {r0, r1}
 8005ec0:	e883 0003 	stmia.w	r3, {r0, r1}
				appendBullet(&(gameState->bulletLL), bullet);
 8005ec4:	687d      	ldr	r5, [r7, #4]
 8005ec6:	466c      	mov	r4, sp
 8005ec8:	f107 0340 	add.w	r3, r7, #64	; 0x40
 8005ecc:	cb0f      	ldmia	r3, {r0, r1, r2, r3}
 8005ece:	e884 000f 	stmia.w	r4, {r0, r1, r2, r3}
 8005ed2:	f107 0334 	add.w	r3, r7, #52	; 0x34
 8005ed6:	cb0e      	ldmia	r3, {r1, r2, r3}
 8005ed8:	4628      	mov	r0, r5
 8005eda:	f7fe fddb 	bl	8004a94 <appendBullet>
 8005ede:	e050      	b.n	8005f82 <shootSpaceship+0x1a2>
			} else {
				vector_t bulletVelocity = {intToFp(0),fpMultiply(0xffff8000 * yScale, levelMultiplier)}; //{0, -0,5 * Multiplier}
 8005ee0:	2000      	movs	r0, #0
 8005ee2:	f7fd fa54 	bl	800338e <intToFp>
 8005ee6:	4603      	mov	r3, r0
 8005ee8:	62fb      	str	r3, [r7, #44]	; 0x2c
 8005eea:	6e39      	ldr	r1, [r7, #96]	; 0x60
 8005eec:	482d      	ldr	r0, [pc, #180]	; (8005fa4 <shootSpaceship+0x1c4>)
 8005eee:	f7fd fa84 	bl	80033fa <fpMultiply>
 8005ef2:	4603      	mov	r3, r0
 8005ef4:	633b      	str	r3, [r7, #48]	; 0x30
				position_t bulletPos = {gameState->spaceship.position.x+intToFp(i*spaceshipWidth), gameState->spaceship.position.y-intToFp(1)*yScale};
 8005ef6:	687b      	ldr	r3, [r7, #4]
 8005ef8:	699c      	ldr	r4, [r3, #24]
 8005efa:	6e7b      	ldr	r3, [r7, #100]	; 0x64
 8005efc:	b29b      	uxth	r3, r3
 8005efe:	461a      	mov	r2, r3
 8005f00:	00d2      	lsls	r2, r2, #3
 8005f02:	1ad3      	subs	r3, r2, r3
 8005f04:	b29b      	uxth	r3, r3
 8005f06:	4618      	mov	r0, r3
 8005f08:	f7fd fa41 	bl	800338e <intToFp>
 8005f0c:	4603      	mov	r3, r0
 8005f0e:	4423      	add	r3, r4
 8005f10:	627b      	str	r3, [r7, #36]	; 0x24
 8005f12:	687b      	ldr	r3, [r7, #4]
 8005f14:	69dc      	ldr	r4, [r3, #28]
 8005f16:	2001      	movs	r0, #1
 8005f18:	f7fd fa39 	bl	800338e <intToFp>
 8005f1c:	4603      	mov	r3, r0
 8005f1e:	005b      	lsls	r3, r3, #1
 8005f20:	1ae3      	subs	r3, r4, r3
 8005f22:	62bb      	str	r3, [r7, #40]	; 0x28
				bullet_t bullet = {bulletPos, bulletPos, bulletVelocity};
 8005f24:	f107 0308 	add.w	r3, r7, #8
 8005f28:	2200      	movs	r2, #0
 8005f2a:	601a      	str	r2, [r3, #0]
 8005f2c:	605a      	str	r2, [r3, #4]
 8005f2e:	609a      	str	r2, [r3, #8]
 8005f30:	60da      	str	r2, [r3, #12]
 8005f32:	611a      	str	r2, [r3, #16]
 8005f34:	615a      	str	r2, [r3, #20]
 8005f36:	619a      	str	r2, [r3, #24]
 8005f38:	f107 0308 	add.w	r3, r7, #8
 8005f3c:	f107 0224 	add.w	r2, r7, #36	; 0x24
 8005f40:	e892 0003 	ldmia.w	r2, {r0, r1}
 8005f44:	e883 0003 	stmia.w	r3, {r0, r1}
 8005f48:	f107 0310 	add.w	r3, r7, #16
 8005f4c:	f107 0224 	add.w	r2, r7, #36	; 0x24
 8005f50:	e892 0003 	ldmia.w	r2, {r0, r1}
 8005f54:	e883 0003 	stmia.w	r3, {r0, r1}
 8005f58:	f107 0318 	add.w	r3, r7, #24
 8005f5c:	f107 022c 	add.w	r2, r7, #44	; 0x2c
 8005f60:	e892 0003 	ldmia.w	r2, {r0, r1}
 8005f64:	e883 0003 	stmia.w	r3, {r0, r1}
				appendBullet(&(gameState->bulletLL), bullet);
 8005f68:	687d      	ldr	r5, [r7, #4]
 8005f6a:	466c      	mov	r4, sp
 8005f6c:	f107 0314 	add.w	r3, r7, #20
 8005f70:	cb0f      	ldmia	r3, {r0, r1, r2, r3}
 8005f72:	e884 000f 	stmia.w	r4, {r0, r1, r2, r3}
 8005f76:	f107 0308 	add.w	r3, r7, #8
 8005f7a:	cb0e      	ldmia	r3, {r1, r2, r3}
 8005f7c:	4628      	mov	r0, r5
 8005f7e:	f7fe fd89 	bl	8004a94 <appendBullet>
		for (int i = 0; i < gameState->spaceship.numberOfParts; i++){
 8005f82:	6e7b      	ldr	r3, [r7, #100]	; 0x64
 8005f84:	3301      	adds	r3, #1
 8005f86:	667b      	str	r3, [r7, #100]	; 0x64
 8005f88:	687b      	ldr	r3, [r7, #4]
 8005f8a:	f893 3028 	ldrb.w	r3, [r3, #40]	; 0x28
 8005f8e:	461a      	mov	r2, r3
 8005f90:	6e7b      	ldr	r3, [r7, #100]	; 0x64
 8005f92:	4293      	cmp	r3, r2
 8005f94:	f6ff af35 	blt.w	8005e02 <shootSpaceship+0x22>
			}
		}
	}
}
 8005f98:	bf00      	nop
 8005f9a:	3768      	adds	r7, #104	; 0x68
 8005f9c:	46bd      	mov	sp, r7
 8005f9e:	bdb0      	pop	{r4, r5, r7, pc}
 8005fa0:	51eb851f 	.word	0x51eb851f
 8005fa4:	ffff0000 	.word	0xffff0000

08005fa8 <drawSpaceship>:
/**
  * @brief  Draws the spaceship to the screen
  * @param  gameState: the current state of the game
  * @retval None
  */
void drawSpaceship(gameState_t* gameState){
 8005fa8:	b590      	push	{r4, r7, lr}
 8005faa:	b085      	sub	sp, #20
 8005fac:	af00      	add	r7, sp, #0
 8005fae:	6078      	str	r0, [r7, #4]
	//Draw attachment points
	deleteAttachmentRods(fpToInt(gameState->spaceship.position.x), fpToInt(gameState->spaceship.position.y)/yScale);
 8005fb0:	687b      	ldr	r3, [r7, #4]
 8005fb2:	699b      	ldr	r3, [r3, #24]
 8005fb4:	4618      	mov	r0, r3
 8005fb6:	f7fd f9ff 	bl	80033b8 <fpToInt>
 8005fba:	4603      	mov	r3, r0
 8005fbc:	b2dc      	uxtb	r4, r3
 8005fbe:	687b      	ldr	r3, [r7, #4]
 8005fc0:	69db      	ldr	r3, [r3, #28]
 8005fc2:	4618      	mov	r0, r3
 8005fc4:	f7fd f9f8 	bl	80033b8 <fpToInt>
 8005fc8:	4603      	mov	r3, r0
 8005fca:	0fda      	lsrs	r2, r3, #31
 8005fcc:	4413      	add	r3, r2
 8005fce:	105b      	asrs	r3, r3, #1
 8005fd0:	b2db      	uxtb	r3, r3
 8005fd2:	4619      	mov	r1, r3
 8005fd4:	4620      	mov	r0, r4
 8005fd6:	f7fe f99f 	bl	8004318 <deleteAttachmentRods>
	drawAttachmentRods(fpToInt(gameState->spaceship.nextPosition.x), fpToInt(gameState->spaceship.nextPosition.y)/yScale);
 8005fda:	687b      	ldr	r3, [r7, #4]
 8005fdc:	6a1b      	ldr	r3, [r3, #32]
 8005fde:	4618      	mov	r0, r3
 8005fe0:	f7fd f9ea 	bl	80033b8 <fpToInt>
 8005fe4:	4603      	mov	r3, r0
 8005fe6:	b2dc      	uxtb	r4, r3
 8005fe8:	687b      	ldr	r3, [r7, #4]
 8005fea:	6a5b      	ldr	r3, [r3, #36]	; 0x24
 8005fec:	4618      	mov	r0, r3
 8005fee:	f7fd f9e3 	bl	80033b8 <fpToInt>
 8005ff2:	4603      	mov	r3, r0
 8005ff4:	0fda      	lsrs	r2, r3, #31
 8005ff6:	4413      	add	r3, r2
 8005ff8:	105b      	asrs	r3, r3, #1
 8005ffa:	b2db      	uxtb	r3, r3
 8005ffc:	4619      	mov	r1, r3
 8005ffe:	4620      	mov	r0, r4
 8006000:	f7fe f968 	bl	80042d4 <drawAttachmentRods>

	//Draw all the parts
	for (int i = 0; i < gameState->spaceship.numberOfParts; i++){
 8006004:	2300      	movs	r3, #0
 8006006:	60fb      	str	r3, [r7, #12]
 8006008:	e06e      	b.n	80060e8 <drawSpaceship+0x140>
		if(i == 2){
 800600a:	68fb      	ldr	r3, [r7, #12]
 800600c:	2b02      	cmp	r3, #2
 800600e:	d12e      	bne.n	800606e <drawSpaceship+0xc6>
			deleteMe(fpToInt(gameState->spaceship.position.x)-spaceshipWidth, fpToInt(gameState->spaceship.position.y)/yScale);
 8006010:	687b      	ldr	r3, [r7, #4]
 8006012:	699b      	ldr	r3, [r3, #24]
 8006014:	4618      	mov	r0, r3
 8006016:	f7fd f9cf 	bl	80033b8 <fpToInt>
 800601a:	4603      	mov	r3, r0
 800601c:	b2db      	uxtb	r3, r3
 800601e:	3b07      	subs	r3, #7
 8006020:	b2dc      	uxtb	r4, r3
 8006022:	687b      	ldr	r3, [r7, #4]
 8006024:	69db      	ldr	r3, [r3, #28]
 8006026:	4618      	mov	r0, r3
 8006028:	f7fd f9c6 	bl	80033b8 <fpToInt>
 800602c:	4603      	mov	r3, r0
 800602e:	0fda      	lsrs	r2, r3, #31
 8006030:	4413      	add	r3, r2
 8006032:	105b      	asrs	r3, r3, #1
 8006034:	b2db      	uxtb	r3, r3
 8006036:	4619      	mov	r1, r3
 8006038:	4620      	mov	r0, r4
 800603a:	f7fe f902 	bl	8004242 <deleteMe>
			drawMe(fpToInt(gameState->spaceship.nextPosition.x)-spaceshipWidth, fpToInt(gameState->spaceship.nextPosition.y)/yScale);
 800603e:	687b      	ldr	r3, [r7, #4]
 8006040:	6a1b      	ldr	r3, [r3, #32]
 8006042:	4618      	mov	r0, r3
 8006044:	f7fd f9b8 	bl	80033b8 <fpToInt>
 8006048:	4603      	mov	r3, r0
 800604a:	b2db      	uxtb	r3, r3
 800604c:	3b07      	subs	r3, #7
 800604e:	b2dc      	uxtb	r4, r3
 8006050:	687b      	ldr	r3, [r7, #4]
 8006052:	6a5b      	ldr	r3, [r3, #36]	; 0x24
 8006054:	4618      	mov	r0, r3
 8006056:	f7fd f9af 	bl	80033b8 <fpToInt>
 800605a:	4603      	mov	r3, r0
 800605c:	0fda      	lsrs	r2, r3, #31
 800605e:	4413      	add	r3, r2
 8006060:	105b      	asrs	r3, r3, #1
 8006062:	b2db      	uxtb	r3, r3
 8006064:	4619      	mov	r1, r3
 8006066:	4620      	mov	r0, r4
 8006068:	f7fe f8a2 	bl	80041b0 <drawMe>
 800606c:	e039      	b.n	80060e2 <drawSpaceship+0x13a>
		} else {
			deleteMe(fpToInt(gameState->spaceship.position.x)+i*spaceshipWidth, fpToInt(gameState->spaceship.position.y)/yScale);
 800606e:	687b      	ldr	r3, [r7, #4]
 8006070:	699b      	ldr	r3, [r3, #24]
 8006072:	4618      	mov	r0, r3
 8006074:	f7fd f9a0 	bl	80033b8 <fpToInt>
 8006078:	4603      	mov	r3, r0
 800607a:	b2da      	uxtb	r2, r3
 800607c:	68fb      	ldr	r3, [r7, #12]
 800607e:	b2db      	uxtb	r3, r3
 8006080:	4619      	mov	r1, r3
 8006082:	00c9      	lsls	r1, r1, #3
 8006084:	1acb      	subs	r3, r1, r3
 8006086:	b2db      	uxtb	r3, r3
 8006088:	4413      	add	r3, r2
 800608a:	b2dc      	uxtb	r4, r3
 800608c:	687b      	ldr	r3, [r7, #4]
 800608e:	69db      	ldr	r3, [r3, #28]
 8006090:	4618      	mov	r0, r3
 8006092:	f7fd f991 	bl	80033b8 <fpToInt>
 8006096:	4603      	mov	r3, r0
 8006098:	0fda      	lsrs	r2, r3, #31
 800609a:	4413      	add	r3, r2
 800609c:	105b      	asrs	r3, r3, #1
 800609e:	b2db      	uxtb	r3, r3
 80060a0:	4619      	mov	r1, r3
 80060a2:	4620      	mov	r0, r4
 80060a4:	f7fe f8cd 	bl	8004242 <deleteMe>
			drawMe(fpToInt(gameState->spaceship.nextPosition.x)+i*spaceshipWidth, fpToInt(gameState->spaceship.nextPosition.y)/yScale);
 80060a8:	687b      	ldr	r3, [r7, #4]
 80060aa:	6a1b      	ldr	r3, [r3, #32]
 80060ac:	4618      	mov	r0, r3
 80060ae:	f7fd f983 	bl	80033b8 <fpToInt>
 80060b2:	4603      	mov	r3, r0
 80060b4:	b2da      	uxtb	r2, r3
 80060b6:	68fb      	ldr	r3, [r7, #12]
 80060b8:	b2db      	uxtb	r3, r3
 80060ba:	4619      	mov	r1, r3
 80060bc:	00c9      	lsls	r1, r1, #3
 80060be:	1acb      	subs	r3, r1, r3
 80060c0:	b2db      	uxtb	r3, r3
 80060c2:	4413      	add	r3, r2
 80060c4:	b2dc      	uxtb	r4, r3
 80060c6:	687b      	ldr	r3, [r7, #4]
 80060c8:	6a5b      	ldr	r3, [r3, #36]	; 0x24
 80060ca:	4618      	mov	r0, r3
 80060cc:	f7fd f974 	bl	80033b8 <fpToInt>
 80060d0:	4603      	mov	r3, r0
 80060d2:	0fda      	lsrs	r2, r3, #31
 80060d4:	4413      	add	r3, r2
 80060d6:	105b      	asrs	r3, r3, #1
 80060d8:	b2db      	uxtb	r3, r3
 80060da:	4619      	mov	r1, r3
 80060dc:	4620      	mov	r0, r4
 80060de:	f7fe f867 	bl	80041b0 <drawMe>
	for (int i = 0; i < gameState->spaceship.numberOfParts; i++){
 80060e2:	68fb      	ldr	r3, [r7, #12]
 80060e4:	3301      	adds	r3, #1
 80060e6:	60fb      	str	r3, [r7, #12]
 80060e8:	687b      	ldr	r3, [r7, #4]
 80060ea:	f893 3028 	ldrb.w	r3, [r3, #40]	; 0x28
 80060ee:	461a      	mov	r2, r3
 80060f0:	68fb      	ldr	r3, [r7, #12]
 80060f2:	4293      	cmp	r3, r2
 80060f4:	db89      	blt.n	800600a <drawSpaceship+0x62>
		}
	}
	gameState->spaceship.position=gameState->spaceship.nextPosition;
 80060f6:	687b      	ldr	r3, [r7, #4]
 80060f8:	687a      	ldr	r2, [r7, #4]
 80060fa:	3318      	adds	r3, #24
 80060fc:	3220      	adds	r2, #32
 80060fe:	e892 0003 	ldmia.w	r2, {r0, r1}
 8006102:	e883 0003 	stmia.w	r3, {r0, r1}
}
 8006106:	bf00      	nop
 8006108:	3714      	adds	r7, #20
 800610a:	46bd      	mov	sp, r7
 800610c:	bd90      	pop	{r4, r7, pc}

0800610e <_getpid>:
void initialise_monitor_handles()
{
}

int _getpid(void)
{
 800610e:	b480      	push	{r7}
 8006110:	af00      	add	r7, sp, #0
	return 1;
 8006112:	2301      	movs	r3, #1
}
 8006114:	4618      	mov	r0, r3
 8006116:	46bd      	mov	sp, r7
 8006118:	f85d 7b04 	ldr.w	r7, [sp], #4
 800611c:	4770      	bx	lr

0800611e <_kill>:

int _kill(int pid, int sig)
{
 800611e:	b580      	push	{r7, lr}
 8006120:	b082      	sub	sp, #8
 8006122:	af00      	add	r7, sp, #0
 8006124:	6078      	str	r0, [r7, #4]
 8006126:	6039      	str	r1, [r7, #0]
	errno = EINVAL;
 8006128:	f000 f94e 	bl	80063c8 <__errno>
 800612c:	4603      	mov	r3, r0
 800612e:	2216      	movs	r2, #22
 8006130:	601a      	str	r2, [r3, #0]
	return -1;
 8006132:	f04f 33ff 	mov.w	r3, #4294967295	; 0xffffffff
}
 8006136:	4618      	mov	r0, r3
 8006138:	3708      	adds	r7, #8
 800613a:	46bd      	mov	sp, r7
 800613c:	bd80      	pop	{r7, pc}

0800613e <_exit>:

void _exit (int status)
{
 800613e:	b580      	push	{r7, lr}
 8006140:	b082      	sub	sp, #8
 8006142:	af00      	add	r7, sp, #0
 8006144:	6078      	str	r0, [r7, #4]
	_kill(status, -1);
 8006146:	f04f 31ff 	mov.w	r1, #4294967295	; 0xffffffff
 800614a:	6878      	ldr	r0, [r7, #4]
 800614c:	f7ff ffe7 	bl	800611e <_kill>
	while (1) {}		/* Make sure we hang here */
 8006150:	e7fe      	b.n	8006150 <_exit+0x12>

08006152 <_read>:
}

__attribute__((weak)) int _read(int file, char *ptr, int len)
{
 8006152:	b580      	push	{r7, lr}
 8006154:	b086      	sub	sp, #24
 8006156:	af00      	add	r7, sp, #0
 8006158:	60f8      	str	r0, [r7, #12]
 800615a:	60b9      	str	r1, [r7, #8]
 800615c:	607a      	str	r2, [r7, #4]
	int DataIdx;

	for (DataIdx = 0; DataIdx < len; DataIdx++)
 800615e:	2300      	movs	r3, #0
 8006160:	617b      	str	r3, [r7, #20]
 8006162:	e00a      	b.n	800617a <_read+0x28>
	{
		*ptr++ = __io_getchar();
 8006164:	f3af 8000 	nop.w
 8006168:	4601      	mov	r1, r0
 800616a:	68bb      	ldr	r3, [r7, #8]
 800616c:	1c5a      	adds	r2, r3, #1
 800616e:	60ba      	str	r2, [r7, #8]
 8006170:	b2ca      	uxtb	r2, r1
 8006172:	701a      	strb	r2, [r3, #0]
	for (DataIdx = 0; DataIdx < len; DataIdx++)
 8006174:	697b      	ldr	r3, [r7, #20]
 8006176:	3301      	adds	r3, #1
 8006178:	617b      	str	r3, [r7, #20]
 800617a:	697a      	ldr	r2, [r7, #20]
 800617c:	687b      	ldr	r3, [r7, #4]
 800617e:	429a      	cmp	r2, r3
 8006180:	dbf0      	blt.n	8006164 <_read+0x12>
	}

return len;
 8006182:	687b      	ldr	r3, [r7, #4]
}
 8006184:	4618      	mov	r0, r3
 8006186:	3718      	adds	r7, #24
 8006188:	46bd      	mov	sp, r7
 800618a:	bd80      	pop	{r7, pc}

0800618c <_close>:
	}
	return len;
}

int _close(int file)
{
 800618c:	b480      	push	{r7}
 800618e:	b083      	sub	sp, #12
 8006190:	af00      	add	r7, sp, #0
 8006192:	6078      	str	r0, [r7, #4]
	return -1;
 8006194:	f04f 33ff 	mov.w	r3, #4294967295	; 0xffffffff
}
 8006198:	4618      	mov	r0, r3
 800619a:	370c      	adds	r7, #12
 800619c:	46bd      	mov	sp, r7
 800619e:	f85d 7b04 	ldr.w	r7, [sp], #4
 80061a2:	4770      	bx	lr

080061a4 <_fstat>:


int _fstat(int file, struct stat *st)
{
 80061a4:	b480      	push	{r7}
 80061a6:	b083      	sub	sp, #12
 80061a8:	af00      	add	r7, sp, #0
 80061aa:	6078      	str	r0, [r7, #4]
 80061ac:	6039      	str	r1, [r7, #0]
	st->st_mode = S_IFCHR;
 80061ae:	683b      	ldr	r3, [r7, #0]
 80061b0:	f44f 5200 	mov.w	r2, #8192	; 0x2000
 80061b4:	605a      	str	r2, [r3, #4]
	return 0;
 80061b6:	2300      	movs	r3, #0
}
 80061b8:	4618      	mov	r0, r3
 80061ba:	370c      	adds	r7, #12
 80061bc:	46bd      	mov	sp, r7
 80061be:	f85d 7b04 	ldr.w	r7, [sp], #4
 80061c2:	4770      	bx	lr

080061c4 <_isatty>:

int _isatty(int file)
{
 80061c4:	b480      	push	{r7}
 80061c6:	b083      	sub	sp, #12
 80061c8:	af00      	add	r7, sp, #0
 80061ca:	6078      	str	r0, [r7, #4]
	return 1;
 80061cc:	2301      	movs	r3, #1
}
 80061ce:	4618      	mov	r0, r3
 80061d0:	370c      	adds	r7, #12
 80061d2:	46bd      	mov	sp, r7
 80061d4:	f85d 7b04 	ldr.w	r7, [sp], #4
 80061d8:	4770      	bx	lr

080061da <_lseek>:

int _lseek(int file, int ptr, int dir)
{
 80061da:	b480      	push	{r7}
 80061dc:	b085      	sub	sp, #20
 80061de:	af00      	add	r7, sp, #0
 80061e0:	60f8      	str	r0, [r7, #12]
 80061e2:	60b9      	str	r1, [r7, #8]
 80061e4:	607a      	str	r2, [r7, #4]
	return 0;
 80061e6:	2300      	movs	r3, #0
}
 80061e8:	4618      	mov	r0, r3
 80061ea:	3714      	adds	r7, #20
 80061ec:	46bd      	mov	sp, r7
 80061ee:	f85d 7b04 	ldr.w	r7, [sp], #4
 80061f2:	4770      	bx	lr

080061f4 <_sbrk>:
/**
 _sbrk
 Increase program data space. Malloc and related functions depend on this
**/
caddr_t _sbrk(int incr)
{
 80061f4:	b580      	push	{r7, lr}
 80061f6:	b084      	sub	sp, #16
 80061f8:	af00      	add	r7, sp, #0
 80061fa:	6078      	str	r0, [r7, #4]
	extern char end asm("end");
	static char *heap_end;
	char *prev_heap_end;

	if (heap_end == 0)
 80061fc:	4b11      	ldr	r3, [pc, #68]	; (8006244 <_sbrk+0x50>)
 80061fe:	681b      	ldr	r3, [r3, #0]
 8006200:	2b00      	cmp	r3, #0
 8006202:	d102      	bne.n	800620a <_sbrk+0x16>
		heap_end = &end;
 8006204:	4b0f      	ldr	r3, [pc, #60]	; (8006244 <_sbrk+0x50>)
 8006206:	4a10      	ldr	r2, [pc, #64]	; (8006248 <_sbrk+0x54>)
 8006208:	601a      	str	r2, [r3, #0]

	prev_heap_end = heap_end;
 800620a:	4b0e      	ldr	r3, [pc, #56]	; (8006244 <_sbrk+0x50>)
 800620c:	681b      	ldr	r3, [r3, #0]
 800620e:	60fb      	str	r3, [r7, #12]
	if (heap_end + incr > stack_ptr)
 8006210:	4b0c      	ldr	r3, [pc, #48]	; (8006244 <_sbrk+0x50>)
 8006212:	681a      	ldr	r2, [r3, #0]
 8006214:	687b      	ldr	r3, [r7, #4]
 8006216:	4413      	add	r3, r2
 8006218:	466a      	mov	r2, sp
 800621a:	4293      	cmp	r3, r2
 800621c:	d907      	bls.n	800622e <_sbrk+0x3a>
	{
		errno = ENOMEM;
 800621e:	f000 f8d3 	bl	80063c8 <__errno>
 8006222:	4603      	mov	r3, r0
 8006224:	220c      	movs	r2, #12
 8006226:	601a      	str	r2, [r3, #0]
		return (caddr_t) -1;
 8006228:	f04f 33ff 	mov.w	r3, #4294967295	; 0xffffffff
 800622c:	e006      	b.n	800623c <_sbrk+0x48>
	}

	heap_end += incr;
 800622e:	4b05      	ldr	r3, [pc, #20]	; (8006244 <_sbrk+0x50>)
 8006230:	681a      	ldr	r2, [r3, #0]
 8006232:	687b      	ldr	r3, [r7, #4]
 8006234:	4413      	add	r3, r2
 8006236:	4a03      	ldr	r2, [pc, #12]	; (8006244 <_sbrk+0x50>)
 8006238:	6013      	str	r3, [r2, #0]

	return (caddr_t) prev_heap_end;
 800623a:	68fb      	ldr	r3, [r7, #12]
}
 800623c:	4618      	mov	r0, r3
 800623e:	3710      	adds	r7, #16
 8006240:	46bd      	mov	sp, r7
 8006242:	bd80      	pop	{r7, pc}
 8006244:	200001bc 	.word	0x200001bc
 8006248:	200001e0 	.word	0x200001e0

0800624c <SystemInit>:
  *         SystemFrequency variable.
  * @param  None
  * @retval None
  */
void SystemInit(void)
{
 800624c:	b580      	push	{r7, lr}
 800624e:	af00      	add	r7, sp, #0
  /* FPU settings ------------------------------------------------------------*/
  #if (__FPU_PRESENT == 1) && (__FPU_USED == 1)
    SCB->CPACR |= ((3UL << 10*2)|(3UL << 11*2));  /* set CP10 and CP11 Full Access */
 8006250:	4b1f      	ldr	r3, [pc, #124]	; (80062d0 <SystemInit+0x84>)
 8006252:	f8d3 3088 	ldr.w	r3, [r3, #136]	; 0x88
 8006256:	4a1e      	ldr	r2, [pc, #120]	; (80062d0 <SystemInit+0x84>)
 8006258:	f443 0370 	orr.w	r3, r3, #15728640	; 0xf00000
 800625c:	f8c2 3088 	str.w	r3, [r2, #136]	; 0x88
  #endif

  /* Reset the RCC clock configuration to the default reset state ------------*/
  /* Set HSION bit */
  RCC->CR |= (uint32_t)0x00000001;
 8006260:	4b1c      	ldr	r3, [pc, #112]	; (80062d4 <SystemInit+0x88>)
 8006262:	681b      	ldr	r3, [r3, #0]
 8006264:	4a1b      	ldr	r2, [pc, #108]	; (80062d4 <SystemInit+0x88>)
 8006266:	f043 0301 	orr.w	r3, r3, #1
 800626a:	6013      	str	r3, [r2, #0]

  /* Reset CFGR register */
  RCC->CFGR &= 0xF87FC00C;
 800626c:	4b19      	ldr	r3, [pc, #100]	; (80062d4 <SystemInit+0x88>)
 800626e:	685a      	ldr	r2, [r3, #4]
 8006270:	4918      	ldr	r1, [pc, #96]	; (80062d4 <SystemInit+0x88>)
 8006272:	4b19      	ldr	r3, [pc, #100]	; (80062d8 <SystemInit+0x8c>)
 8006274:	4013      	ands	r3, r2
 8006276:	604b      	str	r3, [r1, #4]

  /* Reset HSEON, CSSON and PLLON bits */
  RCC->CR &= (uint32_t)0xFEF6FFFF;
 8006278:	4b16      	ldr	r3, [pc, #88]	; (80062d4 <SystemInit+0x88>)
 800627a:	681b      	ldr	r3, [r3, #0]
 800627c:	4a15      	ldr	r2, [pc, #84]	; (80062d4 <SystemInit+0x88>)
 800627e:	f023 7384 	bic.w	r3, r3, #17301504	; 0x1080000
 8006282:	f423 3380 	bic.w	r3, r3, #65536	; 0x10000
 8006286:	6013      	str	r3, [r2, #0]

  /* Reset HSEBYP bit */
  RCC->CR &= (uint32_t)0xFFFBFFFF;
 8006288:	4b12      	ldr	r3, [pc, #72]	; (80062d4 <SystemInit+0x88>)
 800628a:	681b      	ldr	r3, [r3, #0]
 800628c:	4a11      	ldr	r2, [pc, #68]	; (80062d4 <SystemInit+0x88>)
 800628e:	f423 2380 	bic.w	r3, r3, #262144	; 0x40000
 8006292:	6013      	str	r3, [r2, #0]

  /* Reset PLLSRC, PLLXTPRE, PLLMUL and USBPRE bits */
  RCC->CFGR &= (uint32_t)0xFF80FFFF;
 8006294:	4b0f      	ldr	r3, [pc, #60]	; (80062d4 <SystemInit+0x88>)
 8006296:	685b      	ldr	r3, [r3, #4]
 8006298:	4a0e      	ldr	r2, [pc, #56]	; (80062d4 <SystemInit+0x88>)
 800629a:	f423 03fe 	bic.w	r3, r3, #8323072	; 0x7f0000
 800629e:	6053      	str	r3, [r2, #4]

  /* Reset PREDIV1[3:0] bits */
  RCC->CFGR2 &= (uint32_t)0xFFFFFFF0;
 80062a0:	4b0c      	ldr	r3, [pc, #48]	; (80062d4 <SystemInit+0x88>)
 80062a2:	6adb      	ldr	r3, [r3, #44]	; 0x2c
 80062a4:	4a0b      	ldr	r2, [pc, #44]	; (80062d4 <SystemInit+0x88>)
 80062a6:	f023 030f 	bic.w	r3, r3, #15
 80062aa:	62d3      	str	r3, [r2, #44]	; 0x2c

  /* Reset USARTSW[1:0], I2CSW and TIMs bits */
  RCC->CFGR3 &= (uint32_t)0xFF00FCCC;
 80062ac:	4b09      	ldr	r3, [pc, #36]	; (80062d4 <SystemInit+0x88>)
 80062ae:	6b1a      	ldr	r2, [r3, #48]	; 0x30
 80062b0:	4908      	ldr	r1, [pc, #32]	; (80062d4 <SystemInit+0x88>)
 80062b2:	4b0a      	ldr	r3, [pc, #40]	; (80062dc <SystemInit+0x90>)
 80062b4:	4013      	ands	r3, r2
 80062b6:	630b      	str	r3, [r1, #48]	; 0x30
  
  /* Disable all interrupts */
  RCC->CIR = 0x00000000;
 80062b8:	4b06      	ldr	r3, [pc, #24]	; (80062d4 <SystemInit+0x88>)
 80062ba:	2200      	movs	r2, #0
 80062bc:	609a      	str	r2, [r3, #8]

  /* Configure the System clock source, PLL Multiplier and Divider factors, 
     AHB/APBx prescalers and Flash settings ----------------------------------*/
  SetSysClock();
 80062be:	f000 f80f 	bl	80062e0 <SetSysClock>
  
#ifdef VECT_TAB_SRAM
  SCB->VTOR = SRAM_BASE | VECT_TAB_OFFSET; /* Vector Table Relocation in Internal SRAM. */
#else
  SCB->VTOR = FLASH_BASE | VECT_TAB_OFFSET; /* Vector Table Relocation in Internal FLASH. */
 80062c2:	4b03      	ldr	r3, [pc, #12]	; (80062d0 <SystemInit+0x84>)
 80062c4:	f04f 6200 	mov.w	r2, #134217728	; 0x8000000
 80062c8:	609a      	str	r2, [r3, #8]
#endif  
}
 80062ca:	bf00      	nop
 80062cc:	bd80      	pop	{r7, pc}
 80062ce:	bf00      	nop
 80062d0:	e000ed00 	.word	0xe000ed00
 80062d4:	40021000 	.word	0x40021000
 80062d8:	f87fc00c 	.word	0xf87fc00c
 80062dc:	ff00fccc 	.word	0xff00fccc

080062e0 <SetSysClock>:
  *         is reset to the default reset state (done in SystemInit() function).             
  * @param  None
  * @retval None
  */
static void SetSysClock(void)
{
 80062e0:	b480      	push	{r7}
 80062e2:	af00      	add	r7, sp, #0
  /* At this stage the HSI is already enabled and used as System clock source */
  
  /* SYSCLK, HCLK, PCLK configuration ----------------------------------------*/

  /* Enable Prefetch Buffer and set Flash Latency */
  FLASH->ACR = FLASH_ACR_PRFTBE | (uint32_t)FLASH_ACR_LATENCY_1;
 80062e4:	4b21      	ldr	r3, [pc, #132]	; (800636c <SetSysClock+0x8c>)
 80062e6:	2212      	movs	r2, #18
 80062e8:	601a      	str	r2, [r3, #0]

  /* HCLK = SYSCLK / 1 */
  RCC->CFGR |= (uint32_t)RCC_CFGR_HPRE_DIV1;
 80062ea:	4b21      	ldr	r3, [pc, #132]	; (8006370 <SetSysClock+0x90>)
 80062ec:	4a20      	ldr	r2, [pc, #128]	; (8006370 <SetSysClock+0x90>)
 80062ee:	685b      	ldr	r3, [r3, #4]
 80062f0:	6053      	str	r3, [r2, #4]

  /* PCLK2 = HCLK / 1 */
  RCC->CFGR |= (uint32_t)RCC_CFGR_PPRE2_DIV1;
 80062f2:	4b1f      	ldr	r3, [pc, #124]	; (8006370 <SetSysClock+0x90>)
 80062f4:	4a1e      	ldr	r2, [pc, #120]	; (8006370 <SetSysClock+0x90>)
 80062f6:	685b      	ldr	r3, [r3, #4]
 80062f8:	6053      	str	r3, [r2, #4]

  /* PCLK1 = HCLK / 2 */
  RCC->CFGR |= (uint32_t)RCC_CFGR_PPRE1_DIV2;
 80062fa:	4b1d      	ldr	r3, [pc, #116]	; (8006370 <SetSysClock+0x90>)
 80062fc:	685b      	ldr	r3, [r3, #4]
 80062fe:	4a1c      	ldr	r2, [pc, #112]	; (8006370 <SetSysClock+0x90>)
 8006300:	f443 6380 	orr.w	r3, r3, #1024	; 0x400
 8006304:	6053      	str	r3, [r2, #4]

  /*  PLL configuration */
  RCC->CFGR &= (uint32_t)((uint32_t)~(RCC_CFGR_PLLSRC | RCC_CFGR_PLLXTPRE | RCC_CFGR_PLLMULL));
 8006306:	4b1a      	ldr	r3, [pc, #104]	; (8006370 <SetSysClock+0x90>)
 8006308:	685b      	ldr	r3, [r3, #4]
 800630a:	4a19      	ldr	r2, [pc, #100]	; (8006370 <SetSysClock+0x90>)
 800630c:	f423 137c 	bic.w	r3, r3, #4128768	; 0x3f0000
 8006310:	6053      	str	r3, [r2, #4]
  RCC->CFGR |= (uint32_t)(RCC_CFGR_PLLSRC_HSI_Div2 | RCC_CFGR_PLLXTPRE_PREDIV1 | RCC_CFGR_PLLMULL16);
 8006312:	4b17      	ldr	r3, [pc, #92]	; (8006370 <SetSysClock+0x90>)
 8006314:	685b      	ldr	r3, [r3, #4]
 8006316:	4a16      	ldr	r2, [pc, #88]	; (8006370 <SetSysClock+0x90>)
 8006318:	f443 1360 	orr.w	r3, r3, #3670016	; 0x380000
 800631c:	6053      	str	r3, [r2, #4]

  /* Enable PLL */
  RCC->CR |= RCC_CR_PLLON;
 800631e:	4b14      	ldr	r3, [pc, #80]	; (8006370 <SetSysClock+0x90>)
 8006320:	681b      	ldr	r3, [r3, #0]
 8006322:	4a13      	ldr	r2, [pc, #76]	; (8006370 <SetSysClock+0x90>)
 8006324:	f043 7380 	orr.w	r3, r3, #16777216	; 0x1000000
 8006328:	6013      	str	r3, [r2, #0]

  /* Wait till PLL is ready */
  while((RCC->CR & RCC_CR_PLLRDY) == 0)
 800632a:	bf00      	nop
 800632c:	4b10      	ldr	r3, [pc, #64]	; (8006370 <SetSysClock+0x90>)
 800632e:	681b      	ldr	r3, [r3, #0]
 8006330:	f003 7300 	and.w	r3, r3, #33554432	; 0x2000000
 8006334:	2b00      	cmp	r3, #0
 8006336:	d0f9      	beq.n	800632c <SetSysClock+0x4c>
  {
  }

  /* Select PLL as system clock source */
  RCC->CFGR &= (uint32_t)((uint32_t)~(RCC_CFGR_SW));
 8006338:	4b0d      	ldr	r3, [pc, #52]	; (8006370 <SetSysClock+0x90>)
 800633a:	685b      	ldr	r3, [r3, #4]
 800633c:	4a0c      	ldr	r2, [pc, #48]	; (8006370 <SetSysClock+0x90>)
 800633e:	f023 0303 	bic.w	r3, r3, #3
 8006342:	6053      	str	r3, [r2, #4]
  RCC->CFGR |= (uint32_t)RCC_CFGR_SW_PLL;
 8006344:	4b0a      	ldr	r3, [pc, #40]	; (8006370 <SetSysClock+0x90>)
 8006346:	685b      	ldr	r3, [r3, #4]
 8006348:	4a09      	ldr	r2, [pc, #36]	; (8006370 <SetSysClock+0x90>)
 800634a:	f043 0302 	orr.w	r3, r3, #2
 800634e:	6053      	str	r3, [r2, #4]

  /* Wait till PLL is used as system clock source */
  while ((RCC->CFGR & (uint32_t)RCC_CFGR_SWS) != (uint32_t)RCC_CFGR_SWS_PLL)
 8006350:	bf00      	nop
 8006352:	4b07      	ldr	r3, [pc, #28]	; (8006370 <SetSysClock+0x90>)
 8006354:	685b      	ldr	r3, [r3, #4]
 8006356:	f003 030c 	and.w	r3, r3, #12
 800635a:	2b08      	cmp	r3, #8
 800635c:	d1f9      	bne.n	8006352 <SetSysClock+0x72>
  {
  }
}
 800635e:	bf00      	nop
 8006360:	bf00      	nop
 8006362:	46bd      	mov	sp, r7
 8006364:	f85d 7b04 	ldr.w	r7, [sp], #4
 8006368:	4770      	bx	lr
 800636a:	bf00      	nop
 800636c:	40022000 	.word	0x40022000
 8006370:	40021000 	.word	0x40021000

08006374 <Reset_Handler>:

  .section .text.Reset_Handler
  .weak Reset_Handler
  .type Reset_Handler, %function
Reset_Handler:
  ldr   r0, =_estack
 8006374:	480d      	ldr	r0, [pc, #52]	; (80063ac <LoopForever+0x2>)
  mov   sp, r0          /* set stack pointer */
 8006376:	4685      	mov	sp, r0

/* Copy the data segment initializers from flash to SRAM */
  ldr r0, =_sdata
 8006378:	480d      	ldr	r0, [pc, #52]	; (80063b0 <LoopForever+0x6>)
  ldr r1, =_edata
 800637a:	490e      	ldr	r1, [pc, #56]	; (80063b4 <LoopForever+0xa>)
  ldr r2, =_sidata
 800637c:	4a0e      	ldr	r2, [pc, #56]	; (80063b8 <LoopForever+0xe>)
  movs r3, #0
 800637e:	2300      	movs	r3, #0
  b LoopCopyDataInit
 8006380:	e002      	b.n	8006388 <LoopCopyDataInit>

08006382 <CopyDataInit>:

CopyDataInit:
  ldr r4, [r2, r3]
 8006382:	58d4      	ldr	r4, [r2, r3]
  str r4, [r0, r3]
 8006384:	50c4      	str	r4, [r0, r3]
  adds r3, r3, #4
 8006386:	3304      	adds	r3, #4

08006388 <LoopCopyDataInit>:

LoopCopyDataInit:
  adds r4, r0, r3
 8006388:	18c4      	adds	r4, r0, r3
  cmp r4, r1
 800638a:	428c      	cmp	r4, r1
  bcc CopyDataInit
 800638c:	d3f9      	bcc.n	8006382 <CopyDataInit>

/* Zero fill the bss segment. */
  ldr r2, =_sbss
 800638e:	4a0b      	ldr	r2, [pc, #44]	; (80063bc <LoopForever+0x12>)
  ldr r4, =_ebss
 8006390:	4c0b      	ldr	r4, [pc, #44]	; (80063c0 <LoopForever+0x16>)
  movs r3, #0
 8006392:	2300      	movs	r3, #0
  b LoopFillZerobss
 8006394:	e001      	b.n	800639a <LoopFillZerobss>

08006396 <FillZerobss>:

FillZerobss:
  str  r3, [r2]
 8006396:	6013      	str	r3, [r2, #0]
  adds r2, r2, #4
 8006398:	3204      	adds	r2, #4

0800639a <LoopFillZerobss>:

LoopFillZerobss:
  cmp r2, r4
 800639a:	42a2      	cmp	r2, r4
  bcc FillZerobss
 800639c:	d3fb      	bcc.n	8006396 <FillZerobss>

/* Call the clock system intitialization function.*/
  bl  SystemInit
 800639e:	f7ff ff55 	bl	800624c <SystemInit>
/* Call static constructors */
  bl __libc_init_array
 80063a2:	f000 f817 	bl	80063d4 <__libc_init_array>
/* Call the application's entry point.*/
  bl main
 80063a6:	f7fe fdf3 	bl	8004f90 <main>

080063aa <LoopForever>:

LoopForever:
    b LoopForever
 80063aa:	e7fe      	b.n	80063aa <LoopForever>
  ldr   r0, =_estack
 80063ac:	20004000 	.word	0x20004000
  ldr r0, =_sdata
 80063b0:	20000000 	.word	0x20000000
  ldr r1, =_edata
 80063b4:	20000090 	.word	0x20000090
  ldr r2, =_sidata
 80063b8:	08007f5c 	.word	0x08007f5c
  ldr r2, =_sbss
 80063bc:	20000090 	.word	0x20000090
  ldr r4, =_ebss
 80063c0:	200001dc 	.word	0x200001dc

080063c4 <ADC1_2_IRQHandler>:
 * @retval : None
*/
  .section .text.Default_Handler,"ax",%progbits
Default_Handler:
Infinite_Loop:
  b Infinite_Loop
 80063c4:	e7fe      	b.n	80063c4 <ADC1_2_IRQHandler>
	...

080063c8 <__errno>:
 80063c8:	4b01      	ldr	r3, [pc, #4]	; (80063d0 <__errno+0x8>)
 80063ca:	6818      	ldr	r0, [r3, #0]
 80063cc:	4770      	bx	lr
 80063ce:	bf00      	nop
 80063d0:	2000002c 	.word	0x2000002c

080063d4 <__libc_init_array>:
 80063d4:	b570      	push	{r4, r5, r6, lr}
 80063d6:	4d0d      	ldr	r5, [pc, #52]	; (800640c <__libc_init_array+0x38>)
 80063d8:	4c0d      	ldr	r4, [pc, #52]	; (8006410 <__libc_init_array+0x3c>)
 80063da:	1b64      	subs	r4, r4, r5
 80063dc:	10a4      	asrs	r4, r4, #2
 80063de:	2600      	movs	r6, #0
 80063e0:	42a6      	cmp	r6, r4
 80063e2:	d109      	bne.n	80063f8 <__libc_init_array+0x24>
 80063e4:	4d0b      	ldr	r5, [pc, #44]	; (8006414 <__libc_init_array+0x40>)
 80063e6:	4c0c      	ldr	r4, [pc, #48]	; (8006418 <__libc_init_array+0x44>)
 80063e8:	f001 f9fe 	bl	80077e8 <_init>
 80063ec:	1b64      	subs	r4, r4, r5
 80063ee:	10a4      	asrs	r4, r4, #2
 80063f0:	2600      	movs	r6, #0
 80063f2:	42a6      	cmp	r6, r4
 80063f4:	d105      	bne.n	8006402 <__libc_init_array+0x2e>
 80063f6:	bd70      	pop	{r4, r5, r6, pc}
 80063f8:	f855 3b04 	ldr.w	r3, [r5], #4
 80063fc:	4798      	blx	r3
 80063fe:	3601      	adds	r6, #1
 8006400:	e7ee      	b.n	80063e0 <__libc_init_array+0xc>
 8006402:	f855 3b04 	ldr.w	r3, [r5], #4
 8006406:	4798      	blx	r3
 8006408:	3601      	adds	r6, #1
 800640a:	e7f2      	b.n	80063f2 <__libc_init_array+0x1e>
 800640c:	08007f54 	.word	0x08007f54
 8006410:	08007f54 	.word	0x08007f54
 8006414:	08007f54 	.word	0x08007f54
 8006418:	08007f58 	.word	0x08007f58

0800641c <malloc>:
 800641c:	4b02      	ldr	r3, [pc, #8]	; (8006428 <malloc+0xc>)
 800641e:	4601      	mov	r1, r0
 8006420:	6818      	ldr	r0, [r3, #0]
 8006422:	f000 b863 	b.w	80064ec <_malloc_r>
 8006426:	bf00      	nop
 8006428:	2000002c 	.word	0x2000002c

0800642c <free>:
 800642c:	4b02      	ldr	r3, [pc, #8]	; (8006438 <free+0xc>)
 800642e:	4601      	mov	r1, r0
 8006430:	6818      	ldr	r0, [r3, #0]
 8006432:	f000 b80b 	b.w	800644c <_free_r>
 8006436:	bf00      	nop
 8006438:	2000002c 	.word	0x2000002c

0800643c <memset>:
 800643c:	4402      	add	r2, r0
 800643e:	4603      	mov	r3, r0
 8006440:	4293      	cmp	r3, r2
 8006442:	d100      	bne.n	8006446 <memset+0xa>
 8006444:	4770      	bx	lr
 8006446:	f803 1b01 	strb.w	r1, [r3], #1
 800644a:	e7f9      	b.n	8006440 <memset+0x4>

0800644c <_free_r>:
 800644c:	b537      	push	{r0, r1, r2, r4, r5, lr}
 800644e:	2900      	cmp	r1, #0
 8006450:	d048      	beq.n	80064e4 <_free_r+0x98>
 8006452:	f851 3c04 	ldr.w	r3, [r1, #-4]
 8006456:	9001      	str	r0, [sp, #4]
 8006458:	2b00      	cmp	r3, #0
 800645a:	f1a1 0404 	sub.w	r4, r1, #4
 800645e:	bfb8      	it	lt
 8006460:	18e4      	addlt	r4, r4, r3
 8006462:	f000 fd9b 	bl	8006f9c <__malloc_lock>
 8006466:	4a20      	ldr	r2, [pc, #128]	; (80064e8 <_free_r+0x9c>)
 8006468:	9801      	ldr	r0, [sp, #4]
 800646a:	6813      	ldr	r3, [r2, #0]
 800646c:	4615      	mov	r5, r2
 800646e:	b933      	cbnz	r3, 800647e <_free_r+0x32>
 8006470:	6063      	str	r3, [r4, #4]
 8006472:	6014      	str	r4, [r2, #0]
 8006474:	b003      	add	sp, #12
 8006476:	e8bd 4030 	ldmia.w	sp!, {r4, r5, lr}
 800647a:	f000 bd95 	b.w	8006fa8 <__malloc_unlock>
 800647e:	42a3      	cmp	r3, r4
 8006480:	d90b      	bls.n	800649a <_free_r+0x4e>
 8006482:	6821      	ldr	r1, [r4, #0]
 8006484:	1862      	adds	r2, r4, r1
 8006486:	4293      	cmp	r3, r2
 8006488:	bf04      	itt	eq
 800648a:	681a      	ldreq	r2, [r3, #0]
 800648c:	685b      	ldreq	r3, [r3, #4]
 800648e:	6063      	str	r3, [r4, #4]
 8006490:	bf04      	itt	eq
 8006492:	1852      	addeq	r2, r2, r1
 8006494:	6022      	streq	r2, [r4, #0]
 8006496:	602c      	str	r4, [r5, #0]
 8006498:	e7ec      	b.n	8006474 <_free_r+0x28>
 800649a:	461a      	mov	r2, r3
 800649c:	685b      	ldr	r3, [r3, #4]
 800649e:	b10b      	cbz	r3, 80064a4 <_free_r+0x58>
 80064a0:	42a3      	cmp	r3, r4
 80064a2:	d9fa      	bls.n	800649a <_free_r+0x4e>
 80064a4:	6811      	ldr	r1, [r2, #0]
 80064a6:	1855      	adds	r5, r2, r1
 80064a8:	42a5      	cmp	r5, r4
 80064aa:	d10b      	bne.n	80064c4 <_free_r+0x78>
 80064ac:	6824      	ldr	r4, [r4, #0]
 80064ae:	4421      	add	r1, r4
 80064b0:	1854      	adds	r4, r2, r1
 80064b2:	42a3      	cmp	r3, r4
 80064b4:	6011      	str	r1, [r2, #0]
 80064b6:	d1dd      	bne.n	8006474 <_free_r+0x28>
 80064b8:	681c      	ldr	r4, [r3, #0]
 80064ba:	685b      	ldr	r3, [r3, #4]
 80064bc:	6053      	str	r3, [r2, #4]
 80064be:	4421      	add	r1, r4
 80064c0:	6011      	str	r1, [r2, #0]
 80064c2:	e7d7      	b.n	8006474 <_free_r+0x28>
 80064c4:	d902      	bls.n	80064cc <_free_r+0x80>
 80064c6:	230c      	movs	r3, #12
 80064c8:	6003      	str	r3, [r0, #0]
 80064ca:	e7d3      	b.n	8006474 <_free_r+0x28>
 80064cc:	6825      	ldr	r5, [r4, #0]
 80064ce:	1961      	adds	r1, r4, r5
 80064d0:	428b      	cmp	r3, r1
 80064d2:	bf04      	itt	eq
 80064d4:	6819      	ldreq	r1, [r3, #0]
 80064d6:	685b      	ldreq	r3, [r3, #4]
 80064d8:	6063      	str	r3, [r4, #4]
 80064da:	bf04      	itt	eq
 80064dc:	1949      	addeq	r1, r1, r5
 80064de:	6021      	streq	r1, [r4, #0]
 80064e0:	6054      	str	r4, [r2, #4]
 80064e2:	e7c7      	b.n	8006474 <_free_r+0x28>
 80064e4:	b003      	add	sp, #12
 80064e6:	bd30      	pop	{r4, r5, pc}
 80064e8:	200001c0 	.word	0x200001c0

080064ec <_malloc_r>:
 80064ec:	b5f8      	push	{r3, r4, r5, r6, r7, lr}
 80064ee:	1ccd      	adds	r5, r1, #3
 80064f0:	f025 0503 	bic.w	r5, r5, #3
 80064f4:	3508      	adds	r5, #8
 80064f6:	2d0c      	cmp	r5, #12
 80064f8:	bf38      	it	cc
 80064fa:	250c      	movcc	r5, #12
 80064fc:	2d00      	cmp	r5, #0
 80064fe:	4606      	mov	r6, r0
 8006500:	db01      	blt.n	8006506 <_malloc_r+0x1a>
 8006502:	42a9      	cmp	r1, r5
 8006504:	d903      	bls.n	800650e <_malloc_r+0x22>
 8006506:	230c      	movs	r3, #12
 8006508:	6033      	str	r3, [r6, #0]
 800650a:	2000      	movs	r0, #0
 800650c:	bdf8      	pop	{r3, r4, r5, r6, r7, pc}
 800650e:	f000 fd45 	bl	8006f9c <__malloc_lock>
 8006512:	4921      	ldr	r1, [pc, #132]	; (8006598 <_malloc_r+0xac>)
 8006514:	680a      	ldr	r2, [r1, #0]
 8006516:	4614      	mov	r4, r2
 8006518:	b99c      	cbnz	r4, 8006542 <_malloc_r+0x56>
 800651a:	4f20      	ldr	r7, [pc, #128]	; (800659c <_malloc_r+0xb0>)
 800651c:	683b      	ldr	r3, [r7, #0]
 800651e:	b923      	cbnz	r3, 800652a <_malloc_r+0x3e>
 8006520:	4621      	mov	r1, r4
 8006522:	4630      	mov	r0, r6
 8006524:	f000 f94e 	bl	80067c4 <_sbrk_r>
 8006528:	6038      	str	r0, [r7, #0]
 800652a:	4629      	mov	r1, r5
 800652c:	4630      	mov	r0, r6
 800652e:	f000 f949 	bl	80067c4 <_sbrk_r>
 8006532:	1c43      	adds	r3, r0, #1
 8006534:	d123      	bne.n	800657e <_malloc_r+0x92>
 8006536:	230c      	movs	r3, #12
 8006538:	6033      	str	r3, [r6, #0]
 800653a:	4630      	mov	r0, r6
 800653c:	f000 fd34 	bl	8006fa8 <__malloc_unlock>
 8006540:	e7e3      	b.n	800650a <_malloc_r+0x1e>
 8006542:	6823      	ldr	r3, [r4, #0]
 8006544:	1b5b      	subs	r3, r3, r5
 8006546:	d417      	bmi.n	8006578 <_malloc_r+0x8c>
 8006548:	2b0b      	cmp	r3, #11
 800654a:	d903      	bls.n	8006554 <_malloc_r+0x68>
 800654c:	6023      	str	r3, [r4, #0]
 800654e:	441c      	add	r4, r3
 8006550:	6025      	str	r5, [r4, #0]
 8006552:	e004      	b.n	800655e <_malloc_r+0x72>
 8006554:	6863      	ldr	r3, [r4, #4]
 8006556:	42a2      	cmp	r2, r4
 8006558:	bf0c      	ite	eq
 800655a:	600b      	streq	r3, [r1, #0]
 800655c:	6053      	strne	r3, [r2, #4]
 800655e:	4630      	mov	r0, r6
 8006560:	f000 fd22 	bl	8006fa8 <__malloc_unlock>
 8006564:	f104 000b 	add.w	r0, r4, #11
 8006568:	1d23      	adds	r3, r4, #4
 800656a:	f020 0007 	bic.w	r0, r0, #7
 800656e:	1ac2      	subs	r2, r0, r3
 8006570:	d0cc      	beq.n	800650c <_malloc_r+0x20>
 8006572:	1a1b      	subs	r3, r3, r0
 8006574:	50a3      	str	r3, [r4, r2]
 8006576:	e7c9      	b.n	800650c <_malloc_r+0x20>
 8006578:	4622      	mov	r2, r4
 800657a:	6864      	ldr	r4, [r4, #4]
 800657c:	e7cc      	b.n	8006518 <_malloc_r+0x2c>
 800657e:	1cc4      	adds	r4, r0, #3
 8006580:	f024 0403 	bic.w	r4, r4, #3
 8006584:	42a0      	cmp	r0, r4
 8006586:	d0e3      	beq.n	8006550 <_malloc_r+0x64>
 8006588:	1a21      	subs	r1, r4, r0
 800658a:	4630      	mov	r0, r6
 800658c:	f000 f91a 	bl	80067c4 <_sbrk_r>
 8006590:	3001      	adds	r0, #1
 8006592:	d1dd      	bne.n	8006550 <_malloc_r+0x64>
 8006594:	e7cf      	b.n	8006536 <_malloc_r+0x4a>
 8006596:	bf00      	nop
 8006598:	200001c0 	.word	0x200001c0
 800659c:	200001c4 	.word	0x200001c4

080065a0 <iprintf>:
 80065a0:	b40f      	push	{r0, r1, r2, r3}
 80065a2:	4b0a      	ldr	r3, [pc, #40]	; (80065cc <iprintf+0x2c>)
 80065a4:	b513      	push	{r0, r1, r4, lr}
 80065a6:	681c      	ldr	r4, [r3, #0]
 80065a8:	b124      	cbz	r4, 80065b4 <iprintf+0x14>
 80065aa:	69a3      	ldr	r3, [r4, #24]
 80065ac:	b913      	cbnz	r3, 80065b4 <iprintf+0x14>
 80065ae:	4620      	mov	r0, r4
 80065b0:	f000 fbde 	bl	8006d70 <__sinit>
 80065b4:	ab05      	add	r3, sp, #20
 80065b6:	9a04      	ldr	r2, [sp, #16]
 80065b8:	68a1      	ldr	r1, [r4, #8]
 80065ba:	9301      	str	r3, [sp, #4]
 80065bc:	4620      	mov	r0, r4
 80065be:	f000 fd23 	bl	8007008 <_vfiprintf_r>
 80065c2:	b002      	add	sp, #8
 80065c4:	e8bd 4010 	ldmia.w	sp!, {r4, lr}
 80065c8:	b004      	add	sp, #16
 80065ca:	4770      	bx	lr
 80065cc:	2000002c 	.word	0x2000002c

080065d0 <putchar>:
 80065d0:	4b09      	ldr	r3, [pc, #36]	; (80065f8 <putchar+0x28>)
 80065d2:	b513      	push	{r0, r1, r4, lr}
 80065d4:	681c      	ldr	r4, [r3, #0]
 80065d6:	4601      	mov	r1, r0
 80065d8:	b134      	cbz	r4, 80065e8 <putchar+0x18>
 80065da:	69a3      	ldr	r3, [r4, #24]
 80065dc:	b923      	cbnz	r3, 80065e8 <putchar+0x18>
 80065de:	9001      	str	r0, [sp, #4]
 80065e0:	4620      	mov	r0, r4
 80065e2:	f000 fbc5 	bl	8006d70 <__sinit>
 80065e6:	9901      	ldr	r1, [sp, #4]
 80065e8:	68a2      	ldr	r2, [r4, #8]
 80065ea:	4620      	mov	r0, r4
 80065ec:	b002      	add	sp, #8
 80065ee:	e8bd 4010 	ldmia.w	sp!, {r4, lr}
 80065f2:	f000 bfcd 	b.w	8007590 <_putc_r>
 80065f6:	bf00      	nop
 80065f8:	2000002c 	.word	0x2000002c

080065fc <_puts_r>:
 80065fc:	b570      	push	{r4, r5, r6, lr}
 80065fe:	460e      	mov	r6, r1
 8006600:	4605      	mov	r5, r0
 8006602:	b118      	cbz	r0, 800660c <_puts_r+0x10>
 8006604:	6983      	ldr	r3, [r0, #24]
 8006606:	b90b      	cbnz	r3, 800660c <_puts_r+0x10>
 8006608:	f000 fbb2 	bl	8006d70 <__sinit>
 800660c:	69ab      	ldr	r3, [r5, #24]
 800660e:	68ac      	ldr	r4, [r5, #8]
 8006610:	b913      	cbnz	r3, 8006618 <_puts_r+0x1c>
 8006612:	4628      	mov	r0, r5
 8006614:	f000 fbac 	bl	8006d70 <__sinit>
 8006618:	4b2c      	ldr	r3, [pc, #176]	; (80066cc <_puts_r+0xd0>)
 800661a:	429c      	cmp	r4, r3
 800661c:	d120      	bne.n	8006660 <_puts_r+0x64>
 800661e:	686c      	ldr	r4, [r5, #4]
 8006620:	6e63      	ldr	r3, [r4, #100]	; 0x64
 8006622:	07db      	lsls	r3, r3, #31
 8006624:	d405      	bmi.n	8006632 <_puts_r+0x36>
 8006626:	89a3      	ldrh	r3, [r4, #12]
 8006628:	0598      	lsls	r0, r3, #22
 800662a:	d402      	bmi.n	8006632 <_puts_r+0x36>
 800662c:	6da0      	ldr	r0, [r4, #88]	; 0x58
 800662e:	f000 fc4f 	bl	8006ed0 <__retarget_lock_acquire_recursive>
 8006632:	89a3      	ldrh	r3, [r4, #12]
 8006634:	0719      	lsls	r1, r3, #28
 8006636:	d51d      	bpl.n	8006674 <_puts_r+0x78>
 8006638:	6923      	ldr	r3, [r4, #16]
 800663a:	b1db      	cbz	r3, 8006674 <_puts_r+0x78>
 800663c:	3e01      	subs	r6, #1
 800663e:	68a3      	ldr	r3, [r4, #8]
 8006640:	f816 1f01 	ldrb.w	r1, [r6, #1]!
 8006644:	3b01      	subs	r3, #1
 8006646:	60a3      	str	r3, [r4, #8]
 8006648:	bb39      	cbnz	r1, 800669a <_puts_r+0x9e>
 800664a:	2b00      	cmp	r3, #0
 800664c:	da38      	bge.n	80066c0 <_puts_r+0xc4>
 800664e:	4622      	mov	r2, r4
 8006650:	210a      	movs	r1, #10
 8006652:	4628      	mov	r0, r5
 8006654:	f000 f994 	bl	8006980 <__swbuf_r>
 8006658:	3001      	adds	r0, #1
 800665a:	d011      	beq.n	8006680 <_puts_r+0x84>
 800665c:	250a      	movs	r5, #10
 800665e:	e011      	b.n	8006684 <_puts_r+0x88>
 8006660:	4b1b      	ldr	r3, [pc, #108]	; (80066d0 <_puts_r+0xd4>)
 8006662:	429c      	cmp	r4, r3
 8006664:	d101      	bne.n	800666a <_puts_r+0x6e>
 8006666:	68ac      	ldr	r4, [r5, #8]
 8006668:	e7da      	b.n	8006620 <_puts_r+0x24>
 800666a:	4b1a      	ldr	r3, [pc, #104]	; (80066d4 <_puts_r+0xd8>)
 800666c:	429c      	cmp	r4, r3
 800666e:	bf08      	it	eq
 8006670:	68ec      	ldreq	r4, [r5, #12]
 8006672:	e7d5      	b.n	8006620 <_puts_r+0x24>
 8006674:	4621      	mov	r1, r4
 8006676:	4628      	mov	r0, r5
 8006678:	f000 f9d4 	bl	8006a24 <__swsetup_r>
 800667c:	2800      	cmp	r0, #0
 800667e:	d0dd      	beq.n	800663c <_puts_r+0x40>
 8006680:	f04f 35ff 	mov.w	r5, #4294967295	; 0xffffffff
 8006684:	6e63      	ldr	r3, [r4, #100]	; 0x64
 8006686:	07da      	lsls	r2, r3, #31
 8006688:	d405      	bmi.n	8006696 <_puts_r+0x9a>
 800668a:	89a3      	ldrh	r3, [r4, #12]
 800668c:	059b      	lsls	r3, r3, #22
 800668e:	d402      	bmi.n	8006696 <_puts_r+0x9a>
 8006690:	6da0      	ldr	r0, [r4, #88]	; 0x58
 8006692:	f000 fc1e 	bl	8006ed2 <__retarget_lock_release_recursive>
 8006696:	4628      	mov	r0, r5
 8006698:	bd70      	pop	{r4, r5, r6, pc}
 800669a:	2b00      	cmp	r3, #0
 800669c:	da04      	bge.n	80066a8 <_puts_r+0xac>
 800669e:	69a2      	ldr	r2, [r4, #24]
 80066a0:	429a      	cmp	r2, r3
 80066a2:	dc06      	bgt.n	80066b2 <_puts_r+0xb6>
 80066a4:	290a      	cmp	r1, #10
 80066a6:	d004      	beq.n	80066b2 <_puts_r+0xb6>
 80066a8:	6823      	ldr	r3, [r4, #0]
 80066aa:	1c5a      	adds	r2, r3, #1
 80066ac:	6022      	str	r2, [r4, #0]
 80066ae:	7019      	strb	r1, [r3, #0]
 80066b0:	e7c5      	b.n	800663e <_puts_r+0x42>
 80066b2:	4622      	mov	r2, r4
 80066b4:	4628      	mov	r0, r5
 80066b6:	f000 f963 	bl	8006980 <__swbuf_r>
 80066ba:	3001      	adds	r0, #1
 80066bc:	d1bf      	bne.n	800663e <_puts_r+0x42>
 80066be:	e7df      	b.n	8006680 <_puts_r+0x84>
 80066c0:	6823      	ldr	r3, [r4, #0]
 80066c2:	250a      	movs	r5, #10
 80066c4:	1c5a      	adds	r2, r3, #1
 80066c6:	6022      	str	r2, [r4, #0]
 80066c8:	701d      	strb	r5, [r3, #0]
 80066ca:	e7db      	b.n	8006684 <_puts_r+0x88>
 80066cc:	08007ed8 	.word	0x08007ed8
 80066d0:	08007ef8 	.word	0x08007ef8
 80066d4:	08007eb8 	.word	0x08007eb8

080066d8 <puts>:
 80066d8:	4b02      	ldr	r3, [pc, #8]	; (80066e4 <puts+0xc>)
 80066da:	4601      	mov	r1, r0
 80066dc:	6818      	ldr	r0, [r3, #0]
 80066de:	f7ff bf8d 	b.w	80065fc <_puts_r>
 80066e2:	bf00      	nop
 80066e4:	2000002c 	.word	0x2000002c

080066e8 <srand>:
 80066e8:	b538      	push	{r3, r4, r5, lr}
 80066ea:	4b10      	ldr	r3, [pc, #64]	; (800672c <srand+0x44>)
 80066ec:	681d      	ldr	r5, [r3, #0]
 80066ee:	6bab      	ldr	r3, [r5, #56]	; 0x38
 80066f0:	4604      	mov	r4, r0
 80066f2:	b9b3      	cbnz	r3, 8006722 <srand+0x3a>
 80066f4:	2018      	movs	r0, #24
 80066f6:	f7ff fe91 	bl	800641c <malloc>
 80066fa:	4602      	mov	r2, r0
 80066fc:	63a8      	str	r0, [r5, #56]	; 0x38
 80066fe:	b920      	cbnz	r0, 800670a <srand+0x22>
 8006700:	4b0b      	ldr	r3, [pc, #44]	; (8006730 <srand+0x48>)
 8006702:	480c      	ldr	r0, [pc, #48]	; (8006734 <srand+0x4c>)
 8006704:	2142      	movs	r1, #66	; 0x42
 8006706:	f000 f9fb 	bl	8006b00 <__assert_func>
 800670a:	490b      	ldr	r1, [pc, #44]	; (8006738 <srand+0x50>)
 800670c:	4b0b      	ldr	r3, [pc, #44]	; (800673c <srand+0x54>)
 800670e:	e9c0 1300 	strd	r1, r3, [r0]
 8006712:	4b0b      	ldr	r3, [pc, #44]	; (8006740 <srand+0x58>)
 8006714:	6083      	str	r3, [r0, #8]
 8006716:	230b      	movs	r3, #11
 8006718:	8183      	strh	r3, [r0, #12]
 800671a:	2100      	movs	r1, #0
 800671c:	2001      	movs	r0, #1
 800671e:	e9c2 0104 	strd	r0, r1, [r2, #16]
 8006722:	6bab      	ldr	r3, [r5, #56]	; 0x38
 8006724:	2200      	movs	r2, #0
 8006726:	611c      	str	r4, [r3, #16]
 8006728:	615a      	str	r2, [r3, #20]
 800672a:	bd38      	pop	{r3, r4, r5, pc}
 800672c:	2000002c 	.word	0x2000002c
 8006730:	08007e04 	.word	0x08007e04
 8006734:	08007e1b 	.word	0x08007e1b
 8006738:	abcd330e 	.word	0xabcd330e
 800673c:	e66d1234 	.word	0xe66d1234
 8006740:	0005deec 	.word	0x0005deec

08006744 <rand>:
 8006744:	4b17      	ldr	r3, [pc, #92]	; (80067a4 <rand+0x60>)
 8006746:	b510      	push	{r4, lr}
 8006748:	681c      	ldr	r4, [r3, #0]
 800674a:	6ba3      	ldr	r3, [r4, #56]	; 0x38
 800674c:	b9b3      	cbnz	r3, 800677c <rand+0x38>
 800674e:	2018      	movs	r0, #24
 8006750:	f7ff fe64 	bl	800641c <malloc>
 8006754:	63a0      	str	r0, [r4, #56]	; 0x38
 8006756:	b928      	cbnz	r0, 8006764 <rand+0x20>
 8006758:	4602      	mov	r2, r0
 800675a:	4b13      	ldr	r3, [pc, #76]	; (80067a8 <rand+0x64>)
 800675c:	4813      	ldr	r0, [pc, #76]	; (80067ac <rand+0x68>)
 800675e:	214e      	movs	r1, #78	; 0x4e
 8006760:	f000 f9ce 	bl	8006b00 <__assert_func>
 8006764:	4a12      	ldr	r2, [pc, #72]	; (80067b0 <rand+0x6c>)
 8006766:	4b13      	ldr	r3, [pc, #76]	; (80067b4 <rand+0x70>)
 8006768:	e9c0 2300 	strd	r2, r3, [r0]
 800676c:	4b12      	ldr	r3, [pc, #72]	; (80067b8 <rand+0x74>)
 800676e:	6083      	str	r3, [r0, #8]
 8006770:	230b      	movs	r3, #11
 8006772:	8183      	strh	r3, [r0, #12]
 8006774:	2201      	movs	r2, #1
 8006776:	2300      	movs	r3, #0
 8006778:	e9c0 2304 	strd	r2, r3, [r0, #16]
 800677c:	6ba1      	ldr	r1, [r4, #56]	; 0x38
 800677e:	480f      	ldr	r0, [pc, #60]	; (80067bc <rand+0x78>)
 8006780:	690a      	ldr	r2, [r1, #16]
 8006782:	694b      	ldr	r3, [r1, #20]
 8006784:	4c0e      	ldr	r4, [pc, #56]	; (80067c0 <rand+0x7c>)
 8006786:	4350      	muls	r0, r2
 8006788:	fb04 0003 	mla	r0, r4, r3, r0
 800678c:	fba2 3404 	umull	r3, r4, r2, r4
 8006790:	1c5a      	adds	r2, r3, #1
 8006792:	4404      	add	r4, r0
 8006794:	f144 0000 	adc.w	r0, r4, #0
 8006798:	e9c1 2004 	strd	r2, r0, [r1, #16]
 800679c:	f020 4000 	bic.w	r0, r0, #2147483648	; 0x80000000
 80067a0:	bd10      	pop	{r4, pc}
 80067a2:	bf00      	nop
 80067a4:	2000002c 	.word	0x2000002c
 80067a8:	08007e04 	.word	0x08007e04
 80067ac:	08007e1b 	.word	0x08007e1b
 80067b0:	abcd330e 	.word	0xabcd330e
 80067b4:	e66d1234 	.word	0xe66d1234
 80067b8:	0005deec 	.word	0x0005deec
 80067bc:	5851f42d 	.word	0x5851f42d
 80067c0:	4c957f2d 	.word	0x4c957f2d

080067c4 <_sbrk_r>:
 80067c4:	b538      	push	{r3, r4, r5, lr}
 80067c6:	4d06      	ldr	r5, [pc, #24]	; (80067e0 <_sbrk_r+0x1c>)
 80067c8:	2300      	movs	r3, #0
 80067ca:	4604      	mov	r4, r0
 80067cc:	4608      	mov	r0, r1
 80067ce:	602b      	str	r3, [r5, #0]
 80067d0:	f7ff fd10 	bl	80061f4 <_sbrk>
 80067d4:	1c43      	adds	r3, r0, #1
 80067d6:	d102      	bne.n	80067de <_sbrk_r+0x1a>
 80067d8:	682b      	ldr	r3, [r5, #0]
 80067da:	b103      	cbz	r3, 80067de <_sbrk_r+0x1a>
 80067dc:	6023      	str	r3, [r4, #0]
 80067de:	bd38      	pop	{r3, r4, r5, pc}
 80067e0:	200001d8 	.word	0x200001d8

080067e4 <setbuf>:
 80067e4:	2900      	cmp	r1, #0
 80067e6:	f44f 6380 	mov.w	r3, #1024	; 0x400
 80067ea:	bf0c      	ite	eq
 80067ec:	2202      	moveq	r2, #2
 80067ee:	2200      	movne	r2, #0
 80067f0:	f000 b800 	b.w	80067f4 <setvbuf>

080067f4 <setvbuf>:
 80067f4:	e92d 43f7 	stmdb	sp!, {r0, r1, r2, r4, r5, r6, r7, r8, r9, lr}
 80067f8:	461d      	mov	r5, r3
 80067fa:	4b5d      	ldr	r3, [pc, #372]	; (8006970 <setvbuf+0x17c>)
 80067fc:	681f      	ldr	r7, [r3, #0]
 80067fe:	4604      	mov	r4, r0
 8006800:	460e      	mov	r6, r1
 8006802:	4690      	mov	r8, r2
 8006804:	b127      	cbz	r7, 8006810 <setvbuf+0x1c>
 8006806:	69bb      	ldr	r3, [r7, #24]
 8006808:	b913      	cbnz	r3, 8006810 <setvbuf+0x1c>
 800680a:	4638      	mov	r0, r7
 800680c:	f000 fab0 	bl	8006d70 <__sinit>
 8006810:	4b58      	ldr	r3, [pc, #352]	; (8006974 <setvbuf+0x180>)
 8006812:	429c      	cmp	r4, r3
 8006814:	d167      	bne.n	80068e6 <setvbuf+0xf2>
 8006816:	687c      	ldr	r4, [r7, #4]
 8006818:	f1b8 0f02 	cmp.w	r8, #2
 800681c:	d006      	beq.n	800682c <setvbuf+0x38>
 800681e:	f1b8 0f01 	cmp.w	r8, #1
 8006822:	f200 809f 	bhi.w	8006964 <setvbuf+0x170>
 8006826:	2d00      	cmp	r5, #0
 8006828:	f2c0 809c 	blt.w	8006964 <setvbuf+0x170>
 800682c:	6e63      	ldr	r3, [r4, #100]	; 0x64
 800682e:	07db      	lsls	r3, r3, #31
 8006830:	d405      	bmi.n	800683e <setvbuf+0x4a>
 8006832:	89a3      	ldrh	r3, [r4, #12]
 8006834:	0598      	lsls	r0, r3, #22
 8006836:	d402      	bmi.n	800683e <setvbuf+0x4a>
 8006838:	6da0      	ldr	r0, [r4, #88]	; 0x58
 800683a:	f000 fb49 	bl	8006ed0 <__retarget_lock_acquire_recursive>
 800683e:	4621      	mov	r1, r4
 8006840:	4638      	mov	r0, r7
 8006842:	f000 fa01 	bl	8006c48 <_fflush_r>
 8006846:	6b61      	ldr	r1, [r4, #52]	; 0x34
 8006848:	b141      	cbz	r1, 800685c <setvbuf+0x68>
 800684a:	f104 0344 	add.w	r3, r4, #68	; 0x44
 800684e:	4299      	cmp	r1, r3
 8006850:	d002      	beq.n	8006858 <setvbuf+0x64>
 8006852:	4638      	mov	r0, r7
 8006854:	f7ff fdfa 	bl	800644c <_free_r>
 8006858:	2300      	movs	r3, #0
 800685a:	6363      	str	r3, [r4, #52]	; 0x34
 800685c:	2300      	movs	r3, #0
 800685e:	61a3      	str	r3, [r4, #24]
 8006860:	6063      	str	r3, [r4, #4]
 8006862:	89a3      	ldrh	r3, [r4, #12]
 8006864:	0619      	lsls	r1, r3, #24
 8006866:	d503      	bpl.n	8006870 <setvbuf+0x7c>
 8006868:	6921      	ldr	r1, [r4, #16]
 800686a:	4638      	mov	r0, r7
 800686c:	f7ff fdee 	bl	800644c <_free_r>
 8006870:	89a3      	ldrh	r3, [r4, #12]
 8006872:	f423 634a 	bic.w	r3, r3, #3232	; 0xca0
 8006876:	f023 0303 	bic.w	r3, r3, #3
 800687a:	f1b8 0f02 	cmp.w	r8, #2
 800687e:	81a3      	strh	r3, [r4, #12]
 8006880:	d06c      	beq.n	800695c <setvbuf+0x168>
 8006882:	ab01      	add	r3, sp, #4
 8006884:	466a      	mov	r2, sp
 8006886:	4621      	mov	r1, r4
 8006888:	4638      	mov	r0, r7
 800688a:	f000 fb23 	bl	8006ed4 <__swhatbuf_r>
 800688e:	89a3      	ldrh	r3, [r4, #12]
 8006890:	4318      	orrs	r0, r3
 8006892:	81a0      	strh	r0, [r4, #12]
 8006894:	2d00      	cmp	r5, #0
 8006896:	d130      	bne.n	80068fa <setvbuf+0x106>
 8006898:	9d00      	ldr	r5, [sp, #0]
 800689a:	4628      	mov	r0, r5
 800689c:	f7ff fdbe 	bl	800641c <malloc>
 80068a0:	4606      	mov	r6, r0
 80068a2:	2800      	cmp	r0, #0
 80068a4:	d155      	bne.n	8006952 <setvbuf+0x15e>
 80068a6:	f8dd 9000 	ldr.w	r9, [sp]
 80068aa:	45a9      	cmp	r9, r5
 80068ac:	d14a      	bne.n	8006944 <setvbuf+0x150>
 80068ae:	f04f 35ff 	mov.w	r5, #4294967295	; 0xffffffff
 80068b2:	2200      	movs	r2, #0
 80068b4:	60a2      	str	r2, [r4, #8]
 80068b6:	f104 0247 	add.w	r2, r4, #71	; 0x47
 80068ba:	6022      	str	r2, [r4, #0]
 80068bc:	6122      	str	r2, [r4, #16]
 80068be:	2201      	movs	r2, #1
 80068c0:	f9b4 300c 	ldrsh.w	r3, [r4, #12]
 80068c4:	6162      	str	r2, [r4, #20]
 80068c6:	6e62      	ldr	r2, [r4, #100]	; 0x64
 80068c8:	f043 0302 	orr.w	r3, r3, #2
 80068cc:	07d2      	lsls	r2, r2, #31
 80068ce:	81a3      	strh	r3, [r4, #12]
 80068d0:	d405      	bmi.n	80068de <setvbuf+0xea>
 80068d2:	f413 7f00 	tst.w	r3, #512	; 0x200
 80068d6:	d102      	bne.n	80068de <setvbuf+0xea>
 80068d8:	6da0      	ldr	r0, [r4, #88]	; 0x58
 80068da:	f000 fafa 	bl	8006ed2 <__retarget_lock_release_recursive>
 80068de:	4628      	mov	r0, r5
 80068e0:	b003      	add	sp, #12
 80068e2:	e8bd 83f0 	ldmia.w	sp!, {r4, r5, r6, r7, r8, r9, pc}
 80068e6:	4b24      	ldr	r3, [pc, #144]	; (8006978 <setvbuf+0x184>)
 80068e8:	429c      	cmp	r4, r3
 80068ea:	d101      	bne.n	80068f0 <setvbuf+0xfc>
 80068ec:	68bc      	ldr	r4, [r7, #8]
 80068ee:	e793      	b.n	8006818 <setvbuf+0x24>
 80068f0:	4b22      	ldr	r3, [pc, #136]	; (800697c <setvbuf+0x188>)
 80068f2:	429c      	cmp	r4, r3
 80068f4:	bf08      	it	eq
 80068f6:	68fc      	ldreq	r4, [r7, #12]
 80068f8:	e78e      	b.n	8006818 <setvbuf+0x24>
 80068fa:	2e00      	cmp	r6, #0
 80068fc:	d0cd      	beq.n	800689a <setvbuf+0xa6>
 80068fe:	69bb      	ldr	r3, [r7, #24]
 8006900:	b913      	cbnz	r3, 8006908 <setvbuf+0x114>
 8006902:	4638      	mov	r0, r7
 8006904:	f000 fa34 	bl	8006d70 <__sinit>
 8006908:	f1b8 0f01 	cmp.w	r8, #1
 800690c:	bf08      	it	eq
 800690e:	89a3      	ldrheq	r3, [r4, #12]
 8006910:	6026      	str	r6, [r4, #0]
 8006912:	bf04      	itt	eq
 8006914:	f043 0301 	orreq.w	r3, r3, #1
 8006918:	81a3      	strheq	r3, [r4, #12]
 800691a:	89a2      	ldrh	r2, [r4, #12]
 800691c:	f012 0308 	ands.w	r3, r2, #8
 8006920:	e9c4 6504 	strd	r6, r5, [r4, #16]
 8006924:	d01c      	beq.n	8006960 <setvbuf+0x16c>
 8006926:	07d3      	lsls	r3, r2, #31
 8006928:	bf41      	itttt	mi
 800692a:	2300      	movmi	r3, #0
 800692c:	426d      	negmi	r5, r5
 800692e:	60a3      	strmi	r3, [r4, #8]
 8006930:	61a5      	strmi	r5, [r4, #24]
 8006932:	bf58      	it	pl
 8006934:	60a5      	strpl	r5, [r4, #8]
 8006936:	6e65      	ldr	r5, [r4, #100]	; 0x64
 8006938:	f015 0501 	ands.w	r5, r5, #1
 800693c:	d115      	bne.n	800696a <setvbuf+0x176>
 800693e:	f412 7f00 	tst.w	r2, #512	; 0x200
 8006942:	e7c8      	b.n	80068d6 <setvbuf+0xe2>
 8006944:	4648      	mov	r0, r9
 8006946:	f7ff fd69 	bl	800641c <malloc>
 800694a:	4606      	mov	r6, r0
 800694c:	2800      	cmp	r0, #0
 800694e:	d0ae      	beq.n	80068ae <setvbuf+0xba>
 8006950:	464d      	mov	r5, r9
 8006952:	89a3      	ldrh	r3, [r4, #12]
 8006954:	f043 0380 	orr.w	r3, r3, #128	; 0x80
 8006958:	81a3      	strh	r3, [r4, #12]
 800695a:	e7d0      	b.n	80068fe <setvbuf+0x10a>
 800695c:	2500      	movs	r5, #0
 800695e:	e7a8      	b.n	80068b2 <setvbuf+0xbe>
 8006960:	60a3      	str	r3, [r4, #8]
 8006962:	e7e8      	b.n	8006936 <setvbuf+0x142>
 8006964:	f04f 35ff 	mov.w	r5, #4294967295	; 0xffffffff
 8006968:	e7b9      	b.n	80068de <setvbuf+0xea>
 800696a:	2500      	movs	r5, #0
 800696c:	e7b7      	b.n	80068de <setvbuf+0xea>
 800696e:	bf00      	nop
 8006970:	2000002c 	.word	0x2000002c
 8006974:	08007ed8 	.word	0x08007ed8
 8006978:	08007ef8 	.word	0x08007ef8
 800697c:	08007eb8 	.word	0x08007eb8

08006980 <__swbuf_r>:
 8006980:	b5f8      	push	{r3, r4, r5, r6, r7, lr}
 8006982:	460e      	mov	r6, r1
 8006984:	4614      	mov	r4, r2
 8006986:	4605      	mov	r5, r0
 8006988:	b118      	cbz	r0, 8006992 <__swbuf_r+0x12>
 800698a:	6983      	ldr	r3, [r0, #24]
 800698c:	b90b      	cbnz	r3, 8006992 <__swbuf_r+0x12>
 800698e:	f000 f9ef 	bl	8006d70 <__sinit>
 8006992:	4b21      	ldr	r3, [pc, #132]	; (8006a18 <__swbuf_r+0x98>)
 8006994:	429c      	cmp	r4, r3
 8006996:	d12b      	bne.n	80069f0 <__swbuf_r+0x70>
 8006998:	686c      	ldr	r4, [r5, #4]
 800699a:	69a3      	ldr	r3, [r4, #24]
 800699c:	60a3      	str	r3, [r4, #8]
 800699e:	89a3      	ldrh	r3, [r4, #12]
 80069a0:	071a      	lsls	r2, r3, #28
 80069a2:	d52f      	bpl.n	8006a04 <__swbuf_r+0x84>
 80069a4:	6923      	ldr	r3, [r4, #16]
 80069a6:	b36b      	cbz	r3, 8006a04 <__swbuf_r+0x84>
 80069a8:	6923      	ldr	r3, [r4, #16]
 80069aa:	6820      	ldr	r0, [r4, #0]
 80069ac:	1ac0      	subs	r0, r0, r3
 80069ae:	6963      	ldr	r3, [r4, #20]
 80069b0:	b2f6      	uxtb	r6, r6
 80069b2:	4283      	cmp	r3, r0
 80069b4:	4637      	mov	r7, r6
 80069b6:	dc04      	bgt.n	80069c2 <__swbuf_r+0x42>
 80069b8:	4621      	mov	r1, r4
 80069ba:	4628      	mov	r0, r5
 80069bc:	f000 f944 	bl	8006c48 <_fflush_r>
 80069c0:	bb30      	cbnz	r0, 8006a10 <__swbuf_r+0x90>
 80069c2:	68a3      	ldr	r3, [r4, #8]
 80069c4:	3b01      	subs	r3, #1
 80069c6:	60a3      	str	r3, [r4, #8]
 80069c8:	6823      	ldr	r3, [r4, #0]
 80069ca:	1c5a      	adds	r2, r3, #1
 80069cc:	6022      	str	r2, [r4, #0]
 80069ce:	701e      	strb	r6, [r3, #0]
 80069d0:	6963      	ldr	r3, [r4, #20]
 80069d2:	3001      	adds	r0, #1
 80069d4:	4283      	cmp	r3, r0
 80069d6:	d004      	beq.n	80069e2 <__swbuf_r+0x62>
 80069d8:	89a3      	ldrh	r3, [r4, #12]
 80069da:	07db      	lsls	r3, r3, #31
 80069dc:	d506      	bpl.n	80069ec <__swbuf_r+0x6c>
 80069de:	2e0a      	cmp	r6, #10
 80069e0:	d104      	bne.n	80069ec <__swbuf_r+0x6c>
 80069e2:	4621      	mov	r1, r4
 80069e4:	4628      	mov	r0, r5
 80069e6:	f000 f92f 	bl	8006c48 <_fflush_r>
 80069ea:	b988      	cbnz	r0, 8006a10 <__swbuf_r+0x90>
 80069ec:	4638      	mov	r0, r7
 80069ee:	bdf8      	pop	{r3, r4, r5, r6, r7, pc}
 80069f0:	4b0a      	ldr	r3, [pc, #40]	; (8006a1c <__swbuf_r+0x9c>)
 80069f2:	429c      	cmp	r4, r3
 80069f4:	d101      	bne.n	80069fa <__swbuf_r+0x7a>
 80069f6:	68ac      	ldr	r4, [r5, #8]
 80069f8:	e7cf      	b.n	800699a <__swbuf_r+0x1a>
 80069fa:	4b09      	ldr	r3, [pc, #36]	; (8006a20 <__swbuf_r+0xa0>)
 80069fc:	429c      	cmp	r4, r3
 80069fe:	bf08      	it	eq
 8006a00:	68ec      	ldreq	r4, [r5, #12]
 8006a02:	e7ca      	b.n	800699a <__swbuf_r+0x1a>
 8006a04:	4621      	mov	r1, r4
 8006a06:	4628      	mov	r0, r5
 8006a08:	f000 f80c 	bl	8006a24 <__swsetup_r>
 8006a0c:	2800      	cmp	r0, #0
 8006a0e:	d0cb      	beq.n	80069a8 <__swbuf_r+0x28>
 8006a10:	f04f 37ff 	mov.w	r7, #4294967295	; 0xffffffff
 8006a14:	e7ea      	b.n	80069ec <__swbuf_r+0x6c>
 8006a16:	bf00      	nop
 8006a18:	08007ed8 	.word	0x08007ed8
 8006a1c:	08007ef8 	.word	0x08007ef8
 8006a20:	08007eb8 	.word	0x08007eb8

08006a24 <__swsetup_r>:
 8006a24:	4b32      	ldr	r3, [pc, #200]	; (8006af0 <__swsetup_r+0xcc>)
 8006a26:	b570      	push	{r4, r5, r6, lr}
 8006a28:	681d      	ldr	r5, [r3, #0]
 8006a2a:	4606      	mov	r6, r0
 8006a2c:	460c      	mov	r4, r1
 8006a2e:	b125      	cbz	r5, 8006a3a <__swsetup_r+0x16>
 8006a30:	69ab      	ldr	r3, [r5, #24]
 8006a32:	b913      	cbnz	r3, 8006a3a <__swsetup_r+0x16>
 8006a34:	4628      	mov	r0, r5
 8006a36:	f000 f99b 	bl	8006d70 <__sinit>
 8006a3a:	4b2e      	ldr	r3, [pc, #184]	; (8006af4 <__swsetup_r+0xd0>)
 8006a3c:	429c      	cmp	r4, r3
 8006a3e:	d10f      	bne.n	8006a60 <__swsetup_r+0x3c>
 8006a40:	686c      	ldr	r4, [r5, #4]
 8006a42:	89a3      	ldrh	r3, [r4, #12]
 8006a44:	f9b4 200c 	ldrsh.w	r2, [r4, #12]
 8006a48:	0719      	lsls	r1, r3, #28
 8006a4a:	d42c      	bmi.n	8006aa6 <__swsetup_r+0x82>
 8006a4c:	06dd      	lsls	r5, r3, #27
 8006a4e:	d411      	bmi.n	8006a74 <__swsetup_r+0x50>
 8006a50:	2309      	movs	r3, #9
 8006a52:	6033      	str	r3, [r6, #0]
 8006a54:	f042 0340 	orr.w	r3, r2, #64	; 0x40
 8006a58:	81a3      	strh	r3, [r4, #12]
 8006a5a:	f04f 30ff 	mov.w	r0, #4294967295	; 0xffffffff
 8006a5e:	e03e      	b.n	8006ade <__swsetup_r+0xba>
 8006a60:	4b25      	ldr	r3, [pc, #148]	; (8006af8 <__swsetup_r+0xd4>)
 8006a62:	429c      	cmp	r4, r3
 8006a64:	d101      	bne.n	8006a6a <__swsetup_r+0x46>
 8006a66:	68ac      	ldr	r4, [r5, #8]
 8006a68:	e7eb      	b.n	8006a42 <__swsetup_r+0x1e>
 8006a6a:	4b24      	ldr	r3, [pc, #144]	; (8006afc <__swsetup_r+0xd8>)
 8006a6c:	429c      	cmp	r4, r3
 8006a6e:	bf08      	it	eq
 8006a70:	68ec      	ldreq	r4, [r5, #12]
 8006a72:	e7e6      	b.n	8006a42 <__swsetup_r+0x1e>
 8006a74:	0758      	lsls	r0, r3, #29
 8006a76:	d512      	bpl.n	8006a9e <__swsetup_r+0x7a>
 8006a78:	6b61      	ldr	r1, [r4, #52]	; 0x34
 8006a7a:	b141      	cbz	r1, 8006a8e <__swsetup_r+0x6a>
 8006a7c:	f104 0344 	add.w	r3, r4, #68	; 0x44
 8006a80:	4299      	cmp	r1, r3
 8006a82:	d002      	beq.n	8006a8a <__swsetup_r+0x66>
 8006a84:	4630      	mov	r0, r6
 8006a86:	f7ff fce1 	bl	800644c <_free_r>
 8006a8a:	2300      	movs	r3, #0
 8006a8c:	6363      	str	r3, [r4, #52]	; 0x34
 8006a8e:	89a3      	ldrh	r3, [r4, #12]
 8006a90:	f023 0324 	bic.w	r3, r3, #36	; 0x24
 8006a94:	81a3      	strh	r3, [r4, #12]
 8006a96:	2300      	movs	r3, #0
 8006a98:	6063      	str	r3, [r4, #4]
 8006a9a:	6923      	ldr	r3, [r4, #16]
 8006a9c:	6023      	str	r3, [r4, #0]
 8006a9e:	89a3      	ldrh	r3, [r4, #12]
 8006aa0:	f043 0308 	orr.w	r3, r3, #8
 8006aa4:	81a3      	strh	r3, [r4, #12]
 8006aa6:	6923      	ldr	r3, [r4, #16]
 8006aa8:	b94b      	cbnz	r3, 8006abe <__swsetup_r+0x9a>
 8006aaa:	89a3      	ldrh	r3, [r4, #12]
 8006aac:	f403 7320 	and.w	r3, r3, #640	; 0x280
 8006ab0:	f5b3 7f00 	cmp.w	r3, #512	; 0x200
 8006ab4:	d003      	beq.n	8006abe <__swsetup_r+0x9a>
 8006ab6:	4621      	mov	r1, r4
 8006ab8:	4630      	mov	r0, r6
 8006aba:	f000 fa2f 	bl	8006f1c <__smakebuf_r>
 8006abe:	89a0      	ldrh	r0, [r4, #12]
 8006ac0:	f9b4 200c 	ldrsh.w	r2, [r4, #12]
 8006ac4:	f010 0301 	ands.w	r3, r0, #1
 8006ac8:	d00a      	beq.n	8006ae0 <__swsetup_r+0xbc>
 8006aca:	2300      	movs	r3, #0
 8006acc:	60a3      	str	r3, [r4, #8]
 8006ace:	6963      	ldr	r3, [r4, #20]
 8006ad0:	425b      	negs	r3, r3
 8006ad2:	61a3      	str	r3, [r4, #24]
 8006ad4:	6923      	ldr	r3, [r4, #16]
 8006ad6:	b943      	cbnz	r3, 8006aea <__swsetup_r+0xc6>
 8006ad8:	f010 0080 	ands.w	r0, r0, #128	; 0x80
 8006adc:	d1ba      	bne.n	8006a54 <__swsetup_r+0x30>
 8006ade:	bd70      	pop	{r4, r5, r6, pc}
 8006ae0:	0781      	lsls	r1, r0, #30
 8006ae2:	bf58      	it	pl
 8006ae4:	6963      	ldrpl	r3, [r4, #20]
 8006ae6:	60a3      	str	r3, [r4, #8]
 8006ae8:	e7f4      	b.n	8006ad4 <__swsetup_r+0xb0>
 8006aea:	2000      	movs	r0, #0
 8006aec:	e7f7      	b.n	8006ade <__swsetup_r+0xba>
 8006aee:	bf00      	nop
 8006af0:	2000002c 	.word	0x2000002c
 8006af4:	08007ed8 	.word	0x08007ed8
 8006af8:	08007ef8 	.word	0x08007ef8
 8006afc:	08007eb8 	.word	0x08007eb8

08006b00 <__assert_func>:
 8006b00:	b51f      	push	{r0, r1, r2, r3, r4, lr}
 8006b02:	4614      	mov	r4, r2
 8006b04:	461a      	mov	r2, r3
 8006b06:	4b09      	ldr	r3, [pc, #36]	; (8006b2c <__assert_func+0x2c>)
 8006b08:	681b      	ldr	r3, [r3, #0]
 8006b0a:	4605      	mov	r5, r0
 8006b0c:	68d8      	ldr	r0, [r3, #12]
 8006b0e:	b14c      	cbz	r4, 8006b24 <__assert_func+0x24>
 8006b10:	4b07      	ldr	r3, [pc, #28]	; (8006b30 <__assert_func+0x30>)
 8006b12:	9100      	str	r1, [sp, #0]
 8006b14:	e9cd 3401 	strd	r3, r4, [sp, #4]
 8006b18:	4906      	ldr	r1, [pc, #24]	; (8006b34 <__assert_func+0x34>)
 8006b1a:	462b      	mov	r3, r5
 8006b1c:	f000 f9a6 	bl	8006e6c <fiprintf>
 8006b20:	f000 fdc1 	bl	80076a6 <abort>
 8006b24:	4b04      	ldr	r3, [pc, #16]	; (8006b38 <__assert_func+0x38>)
 8006b26:	461c      	mov	r4, r3
 8006b28:	e7f3      	b.n	8006b12 <__assert_func+0x12>
 8006b2a:	bf00      	nop
 8006b2c:	2000002c 	.word	0x2000002c
 8006b30:	08007e7a 	.word	0x08007e7a
 8006b34:	08007e87 	.word	0x08007e87
 8006b38:	08007eb5 	.word	0x08007eb5

08006b3c <__sflush_r>:
 8006b3c:	898a      	ldrh	r2, [r1, #12]
 8006b3e:	e92d 41f0 	stmdb	sp!, {r4, r5, r6, r7, r8, lr}
 8006b42:	4605      	mov	r5, r0
 8006b44:	0710      	lsls	r0, r2, #28
 8006b46:	460c      	mov	r4, r1
 8006b48:	d458      	bmi.n	8006bfc <__sflush_r+0xc0>
 8006b4a:	684b      	ldr	r3, [r1, #4]
 8006b4c:	2b00      	cmp	r3, #0
 8006b4e:	dc05      	bgt.n	8006b5c <__sflush_r+0x20>
 8006b50:	6c0b      	ldr	r3, [r1, #64]	; 0x40
 8006b52:	2b00      	cmp	r3, #0
 8006b54:	dc02      	bgt.n	8006b5c <__sflush_r+0x20>
 8006b56:	2000      	movs	r0, #0
 8006b58:	e8bd 81f0 	ldmia.w	sp!, {r4, r5, r6, r7, r8, pc}
 8006b5c:	6ae6      	ldr	r6, [r4, #44]	; 0x2c
 8006b5e:	2e00      	cmp	r6, #0
 8006b60:	d0f9      	beq.n	8006b56 <__sflush_r+0x1a>
 8006b62:	2300      	movs	r3, #0
 8006b64:	f412 5280 	ands.w	r2, r2, #4096	; 0x1000
 8006b68:	682f      	ldr	r7, [r5, #0]
 8006b6a:	602b      	str	r3, [r5, #0]
 8006b6c:	d032      	beq.n	8006bd4 <__sflush_r+0x98>
 8006b6e:	6d60      	ldr	r0, [r4, #84]	; 0x54
 8006b70:	89a3      	ldrh	r3, [r4, #12]
 8006b72:	075a      	lsls	r2, r3, #29
 8006b74:	d505      	bpl.n	8006b82 <__sflush_r+0x46>
 8006b76:	6863      	ldr	r3, [r4, #4]
 8006b78:	1ac0      	subs	r0, r0, r3
 8006b7a:	6b63      	ldr	r3, [r4, #52]	; 0x34
 8006b7c:	b10b      	cbz	r3, 8006b82 <__sflush_r+0x46>
 8006b7e:	6c23      	ldr	r3, [r4, #64]	; 0x40
 8006b80:	1ac0      	subs	r0, r0, r3
 8006b82:	2300      	movs	r3, #0
 8006b84:	4602      	mov	r2, r0
 8006b86:	6ae6      	ldr	r6, [r4, #44]	; 0x2c
 8006b88:	6a21      	ldr	r1, [r4, #32]
 8006b8a:	4628      	mov	r0, r5
 8006b8c:	47b0      	blx	r6
 8006b8e:	1c43      	adds	r3, r0, #1
 8006b90:	89a3      	ldrh	r3, [r4, #12]
 8006b92:	d106      	bne.n	8006ba2 <__sflush_r+0x66>
 8006b94:	6829      	ldr	r1, [r5, #0]
 8006b96:	291d      	cmp	r1, #29
 8006b98:	d82c      	bhi.n	8006bf4 <__sflush_r+0xb8>
 8006b9a:	4a2a      	ldr	r2, [pc, #168]	; (8006c44 <__sflush_r+0x108>)
 8006b9c:	40ca      	lsrs	r2, r1
 8006b9e:	07d6      	lsls	r6, r2, #31
 8006ba0:	d528      	bpl.n	8006bf4 <__sflush_r+0xb8>
 8006ba2:	2200      	movs	r2, #0
 8006ba4:	6062      	str	r2, [r4, #4]
 8006ba6:	04d9      	lsls	r1, r3, #19
 8006ba8:	6922      	ldr	r2, [r4, #16]
 8006baa:	6022      	str	r2, [r4, #0]
 8006bac:	d504      	bpl.n	8006bb8 <__sflush_r+0x7c>
 8006bae:	1c42      	adds	r2, r0, #1
 8006bb0:	d101      	bne.n	8006bb6 <__sflush_r+0x7a>
 8006bb2:	682b      	ldr	r3, [r5, #0]
 8006bb4:	b903      	cbnz	r3, 8006bb8 <__sflush_r+0x7c>
 8006bb6:	6560      	str	r0, [r4, #84]	; 0x54
 8006bb8:	6b61      	ldr	r1, [r4, #52]	; 0x34
 8006bba:	602f      	str	r7, [r5, #0]
 8006bbc:	2900      	cmp	r1, #0
 8006bbe:	d0ca      	beq.n	8006b56 <__sflush_r+0x1a>
 8006bc0:	f104 0344 	add.w	r3, r4, #68	; 0x44
 8006bc4:	4299      	cmp	r1, r3
 8006bc6:	d002      	beq.n	8006bce <__sflush_r+0x92>
 8006bc8:	4628      	mov	r0, r5
 8006bca:	f7ff fc3f 	bl	800644c <_free_r>
 8006bce:	2000      	movs	r0, #0
 8006bd0:	6360      	str	r0, [r4, #52]	; 0x34
 8006bd2:	e7c1      	b.n	8006b58 <__sflush_r+0x1c>
 8006bd4:	6a21      	ldr	r1, [r4, #32]
 8006bd6:	2301      	movs	r3, #1
 8006bd8:	4628      	mov	r0, r5
 8006bda:	47b0      	blx	r6
 8006bdc:	1c41      	adds	r1, r0, #1
 8006bde:	d1c7      	bne.n	8006b70 <__sflush_r+0x34>
 8006be0:	682b      	ldr	r3, [r5, #0]
 8006be2:	2b00      	cmp	r3, #0
 8006be4:	d0c4      	beq.n	8006b70 <__sflush_r+0x34>
 8006be6:	2b1d      	cmp	r3, #29
 8006be8:	d001      	beq.n	8006bee <__sflush_r+0xb2>
 8006bea:	2b16      	cmp	r3, #22
 8006bec:	d101      	bne.n	8006bf2 <__sflush_r+0xb6>
 8006bee:	602f      	str	r7, [r5, #0]
 8006bf0:	e7b1      	b.n	8006b56 <__sflush_r+0x1a>
 8006bf2:	89a3      	ldrh	r3, [r4, #12]
 8006bf4:	f043 0340 	orr.w	r3, r3, #64	; 0x40
 8006bf8:	81a3      	strh	r3, [r4, #12]
 8006bfa:	e7ad      	b.n	8006b58 <__sflush_r+0x1c>
 8006bfc:	690f      	ldr	r7, [r1, #16]
 8006bfe:	2f00      	cmp	r7, #0
 8006c00:	d0a9      	beq.n	8006b56 <__sflush_r+0x1a>
 8006c02:	0793      	lsls	r3, r2, #30
 8006c04:	680e      	ldr	r6, [r1, #0]
 8006c06:	bf08      	it	eq
 8006c08:	694b      	ldreq	r3, [r1, #20]
 8006c0a:	600f      	str	r7, [r1, #0]
 8006c0c:	bf18      	it	ne
 8006c0e:	2300      	movne	r3, #0
 8006c10:	eba6 0807 	sub.w	r8, r6, r7
 8006c14:	608b      	str	r3, [r1, #8]
 8006c16:	f1b8 0f00 	cmp.w	r8, #0
 8006c1a:	dd9c      	ble.n	8006b56 <__sflush_r+0x1a>
 8006c1c:	6a21      	ldr	r1, [r4, #32]
 8006c1e:	6aa6      	ldr	r6, [r4, #40]	; 0x28
 8006c20:	4643      	mov	r3, r8
 8006c22:	463a      	mov	r2, r7
 8006c24:	4628      	mov	r0, r5
 8006c26:	47b0      	blx	r6
 8006c28:	2800      	cmp	r0, #0
 8006c2a:	dc06      	bgt.n	8006c3a <__sflush_r+0xfe>
 8006c2c:	89a3      	ldrh	r3, [r4, #12]
 8006c2e:	f043 0340 	orr.w	r3, r3, #64	; 0x40
 8006c32:	81a3      	strh	r3, [r4, #12]
 8006c34:	f04f 30ff 	mov.w	r0, #4294967295	; 0xffffffff
 8006c38:	e78e      	b.n	8006b58 <__sflush_r+0x1c>
 8006c3a:	4407      	add	r7, r0
 8006c3c:	eba8 0800 	sub.w	r8, r8, r0
 8006c40:	e7e9      	b.n	8006c16 <__sflush_r+0xda>
 8006c42:	bf00      	nop
 8006c44:	20400001 	.word	0x20400001

08006c48 <_fflush_r>:
 8006c48:	b538      	push	{r3, r4, r5, lr}
 8006c4a:	690b      	ldr	r3, [r1, #16]
 8006c4c:	4605      	mov	r5, r0
 8006c4e:	460c      	mov	r4, r1
 8006c50:	b913      	cbnz	r3, 8006c58 <_fflush_r+0x10>
 8006c52:	2500      	movs	r5, #0
 8006c54:	4628      	mov	r0, r5
 8006c56:	bd38      	pop	{r3, r4, r5, pc}
 8006c58:	b118      	cbz	r0, 8006c62 <_fflush_r+0x1a>
 8006c5a:	6983      	ldr	r3, [r0, #24]
 8006c5c:	b90b      	cbnz	r3, 8006c62 <_fflush_r+0x1a>
 8006c5e:	f000 f887 	bl	8006d70 <__sinit>
 8006c62:	4b14      	ldr	r3, [pc, #80]	; (8006cb4 <_fflush_r+0x6c>)
 8006c64:	429c      	cmp	r4, r3
 8006c66:	d11b      	bne.n	8006ca0 <_fflush_r+0x58>
 8006c68:	686c      	ldr	r4, [r5, #4]
 8006c6a:	f9b4 300c 	ldrsh.w	r3, [r4, #12]
 8006c6e:	2b00      	cmp	r3, #0
 8006c70:	d0ef      	beq.n	8006c52 <_fflush_r+0xa>
 8006c72:	6e62      	ldr	r2, [r4, #100]	; 0x64
 8006c74:	07d0      	lsls	r0, r2, #31
 8006c76:	d404      	bmi.n	8006c82 <_fflush_r+0x3a>
 8006c78:	0599      	lsls	r1, r3, #22
 8006c7a:	d402      	bmi.n	8006c82 <_fflush_r+0x3a>
 8006c7c:	6da0      	ldr	r0, [r4, #88]	; 0x58
 8006c7e:	f000 f927 	bl	8006ed0 <__retarget_lock_acquire_recursive>
 8006c82:	4628      	mov	r0, r5
 8006c84:	4621      	mov	r1, r4
 8006c86:	f7ff ff59 	bl	8006b3c <__sflush_r>
 8006c8a:	6e63      	ldr	r3, [r4, #100]	; 0x64
 8006c8c:	07da      	lsls	r2, r3, #31
 8006c8e:	4605      	mov	r5, r0
 8006c90:	d4e0      	bmi.n	8006c54 <_fflush_r+0xc>
 8006c92:	89a3      	ldrh	r3, [r4, #12]
 8006c94:	059b      	lsls	r3, r3, #22
 8006c96:	d4dd      	bmi.n	8006c54 <_fflush_r+0xc>
 8006c98:	6da0      	ldr	r0, [r4, #88]	; 0x58
 8006c9a:	f000 f91a 	bl	8006ed2 <__retarget_lock_release_recursive>
 8006c9e:	e7d9      	b.n	8006c54 <_fflush_r+0xc>
 8006ca0:	4b05      	ldr	r3, [pc, #20]	; (8006cb8 <_fflush_r+0x70>)
 8006ca2:	429c      	cmp	r4, r3
 8006ca4:	d101      	bne.n	8006caa <_fflush_r+0x62>
 8006ca6:	68ac      	ldr	r4, [r5, #8]
 8006ca8:	e7df      	b.n	8006c6a <_fflush_r+0x22>
 8006caa:	4b04      	ldr	r3, [pc, #16]	; (8006cbc <_fflush_r+0x74>)
 8006cac:	429c      	cmp	r4, r3
 8006cae:	bf08      	it	eq
 8006cb0:	68ec      	ldreq	r4, [r5, #12]
 8006cb2:	e7da      	b.n	8006c6a <_fflush_r+0x22>
 8006cb4:	08007ed8 	.word	0x08007ed8
 8006cb8:	08007ef8 	.word	0x08007ef8
 8006cbc:	08007eb8 	.word	0x08007eb8

08006cc0 <std>:
 8006cc0:	2300      	movs	r3, #0
 8006cc2:	b510      	push	{r4, lr}
 8006cc4:	4604      	mov	r4, r0
 8006cc6:	e9c0 3300 	strd	r3, r3, [r0]
 8006cca:	e9c0 3304 	strd	r3, r3, [r0, #16]
 8006cce:	6083      	str	r3, [r0, #8]
 8006cd0:	8181      	strh	r1, [r0, #12]
 8006cd2:	6643      	str	r3, [r0, #100]	; 0x64
 8006cd4:	81c2      	strh	r2, [r0, #14]
 8006cd6:	6183      	str	r3, [r0, #24]
 8006cd8:	4619      	mov	r1, r3
 8006cda:	2208      	movs	r2, #8
 8006cdc:	305c      	adds	r0, #92	; 0x5c
 8006cde:	f7ff fbad 	bl	800643c <memset>
 8006ce2:	4b05      	ldr	r3, [pc, #20]	; (8006cf8 <std+0x38>)
 8006ce4:	6263      	str	r3, [r4, #36]	; 0x24
 8006ce6:	4b05      	ldr	r3, [pc, #20]	; (8006cfc <std+0x3c>)
 8006ce8:	62a3      	str	r3, [r4, #40]	; 0x28
 8006cea:	4b05      	ldr	r3, [pc, #20]	; (8006d00 <std+0x40>)
 8006cec:	62e3      	str	r3, [r4, #44]	; 0x2c
 8006cee:	4b05      	ldr	r3, [pc, #20]	; (8006d04 <std+0x44>)
 8006cf0:	6224      	str	r4, [r4, #32]
 8006cf2:	6323      	str	r3, [r4, #48]	; 0x30
 8006cf4:	bd10      	pop	{r4, pc}
 8006cf6:	bf00      	nop
 8006cf8:	08007621 	.word	0x08007621
 8006cfc:	08007643 	.word	0x08007643
 8006d00:	0800767b 	.word	0x0800767b
 8006d04:	0800769f 	.word	0x0800769f

08006d08 <_cleanup_r>:
 8006d08:	4901      	ldr	r1, [pc, #4]	; (8006d10 <_cleanup_r+0x8>)
 8006d0a:	f000 b8c1 	b.w	8006e90 <_fwalk_reent>
 8006d0e:	bf00      	nop
 8006d10:	08006c49 	.word	0x08006c49

08006d14 <__sfmoreglue>:
 8006d14:	b570      	push	{r4, r5, r6, lr}
 8006d16:	1e4a      	subs	r2, r1, #1
 8006d18:	2568      	movs	r5, #104	; 0x68
 8006d1a:	4355      	muls	r5, r2
 8006d1c:	460e      	mov	r6, r1
 8006d1e:	f105 0174 	add.w	r1, r5, #116	; 0x74
 8006d22:	f7ff fbe3 	bl	80064ec <_malloc_r>
 8006d26:	4604      	mov	r4, r0
 8006d28:	b140      	cbz	r0, 8006d3c <__sfmoreglue+0x28>
 8006d2a:	2100      	movs	r1, #0
 8006d2c:	e9c0 1600 	strd	r1, r6, [r0]
 8006d30:	300c      	adds	r0, #12
 8006d32:	60a0      	str	r0, [r4, #8]
 8006d34:	f105 0268 	add.w	r2, r5, #104	; 0x68
 8006d38:	f7ff fb80 	bl	800643c <memset>
 8006d3c:	4620      	mov	r0, r4
 8006d3e:	bd70      	pop	{r4, r5, r6, pc}

08006d40 <__sfp_lock_acquire>:
 8006d40:	4801      	ldr	r0, [pc, #4]	; (8006d48 <__sfp_lock_acquire+0x8>)
 8006d42:	f000 b8c5 	b.w	8006ed0 <__retarget_lock_acquire_recursive>
 8006d46:	bf00      	nop
 8006d48:	200001d4 	.word	0x200001d4

08006d4c <__sfp_lock_release>:
 8006d4c:	4801      	ldr	r0, [pc, #4]	; (8006d54 <__sfp_lock_release+0x8>)
 8006d4e:	f000 b8c0 	b.w	8006ed2 <__retarget_lock_release_recursive>
 8006d52:	bf00      	nop
 8006d54:	200001d4 	.word	0x200001d4

08006d58 <__sinit_lock_acquire>:
 8006d58:	4801      	ldr	r0, [pc, #4]	; (8006d60 <__sinit_lock_acquire+0x8>)
 8006d5a:	f000 b8b9 	b.w	8006ed0 <__retarget_lock_acquire_recursive>
 8006d5e:	bf00      	nop
 8006d60:	200001cf 	.word	0x200001cf

08006d64 <__sinit_lock_release>:
 8006d64:	4801      	ldr	r0, [pc, #4]	; (8006d6c <__sinit_lock_release+0x8>)
 8006d66:	f000 b8b4 	b.w	8006ed2 <__retarget_lock_release_recursive>
 8006d6a:	bf00      	nop
 8006d6c:	200001cf 	.word	0x200001cf

08006d70 <__sinit>:
 8006d70:	b510      	push	{r4, lr}
 8006d72:	4604      	mov	r4, r0
 8006d74:	f7ff fff0 	bl	8006d58 <__sinit_lock_acquire>
 8006d78:	69a3      	ldr	r3, [r4, #24]
 8006d7a:	b11b      	cbz	r3, 8006d84 <__sinit+0x14>
 8006d7c:	e8bd 4010 	ldmia.w	sp!, {r4, lr}
 8006d80:	f7ff bff0 	b.w	8006d64 <__sinit_lock_release>
 8006d84:	e9c4 3312 	strd	r3, r3, [r4, #72]	; 0x48
 8006d88:	6523      	str	r3, [r4, #80]	; 0x50
 8006d8a:	4b13      	ldr	r3, [pc, #76]	; (8006dd8 <__sinit+0x68>)
 8006d8c:	4a13      	ldr	r2, [pc, #76]	; (8006ddc <__sinit+0x6c>)
 8006d8e:	681b      	ldr	r3, [r3, #0]
 8006d90:	62a2      	str	r2, [r4, #40]	; 0x28
 8006d92:	42a3      	cmp	r3, r4
 8006d94:	bf04      	itt	eq
 8006d96:	2301      	moveq	r3, #1
 8006d98:	61a3      	streq	r3, [r4, #24]
 8006d9a:	4620      	mov	r0, r4
 8006d9c:	f000 f820 	bl	8006de0 <__sfp>
 8006da0:	6060      	str	r0, [r4, #4]
 8006da2:	4620      	mov	r0, r4
 8006da4:	f000 f81c 	bl	8006de0 <__sfp>
 8006da8:	60a0      	str	r0, [r4, #8]
 8006daa:	4620      	mov	r0, r4
 8006dac:	f000 f818 	bl	8006de0 <__sfp>
 8006db0:	2200      	movs	r2, #0
 8006db2:	60e0      	str	r0, [r4, #12]
 8006db4:	2104      	movs	r1, #4
 8006db6:	6860      	ldr	r0, [r4, #4]
 8006db8:	f7ff ff82 	bl	8006cc0 <std>
 8006dbc:	68a0      	ldr	r0, [r4, #8]
 8006dbe:	2201      	movs	r2, #1
 8006dc0:	2109      	movs	r1, #9
 8006dc2:	f7ff ff7d 	bl	8006cc0 <std>
 8006dc6:	68e0      	ldr	r0, [r4, #12]
 8006dc8:	2202      	movs	r2, #2
 8006dca:	2112      	movs	r1, #18
 8006dcc:	f7ff ff78 	bl	8006cc0 <std>
 8006dd0:	2301      	movs	r3, #1
 8006dd2:	61a3      	str	r3, [r4, #24]
 8006dd4:	e7d2      	b.n	8006d7c <__sinit+0xc>
 8006dd6:	bf00      	nop
 8006dd8:	08007e00 	.word	0x08007e00
 8006ddc:	08006d09 	.word	0x08006d09

08006de0 <__sfp>:
 8006de0:	b5f8      	push	{r3, r4, r5, r6, r7, lr}
 8006de2:	4607      	mov	r7, r0
 8006de4:	f7ff ffac 	bl	8006d40 <__sfp_lock_acquire>
 8006de8:	4b1e      	ldr	r3, [pc, #120]	; (8006e64 <__sfp+0x84>)
 8006dea:	681e      	ldr	r6, [r3, #0]
 8006dec:	69b3      	ldr	r3, [r6, #24]
 8006dee:	b913      	cbnz	r3, 8006df6 <__sfp+0x16>
 8006df0:	4630      	mov	r0, r6
 8006df2:	f7ff ffbd 	bl	8006d70 <__sinit>
 8006df6:	3648      	adds	r6, #72	; 0x48
 8006df8:	e9d6 3401 	ldrd	r3, r4, [r6, #4]
 8006dfc:	3b01      	subs	r3, #1
 8006dfe:	d503      	bpl.n	8006e08 <__sfp+0x28>
 8006e00:	6833      	ldr	r3, [r6, #0]
 8006e02:	b30b      	cbz	r3, 8006e48 <__sfp+0x68>
 8006e04:	6836      	ldr	r6, [r6, #0]
 8006e06:	e7f7      	b.n	8006df8 <__sfp+0x18>
 8006e08:	f9b4 500c 	ldrsh.w	r5, [r4, #12]
 8006e0c:	b9d5      	cbnz	r5, 8006e44 <__sfp+0x64>
 8006e0e:	4b16      	ldr	r3, [pc, #88]	; (8006e68 <__sfp+0x88>)
 8006e10:	60e3      	str	r3, [r4, #12]
 8006e12:	f104 0058 	add.w	r0, r4, #88	; 0x58
 8006e16:	6665      	str	r5, [r4, #100]	; 0x64
 8006e18:	f000 f859 	bl	8006ece <__retarget_lock_init_recursive>
 8006e1c:	f7ff ff96 	bl	8006d4c <__sfp_lock_release>
 8006e20:	e9c4 5501 	strd	r5, r5, [r4, #4]
 8006e24:	e9c4 5504 	strd	r5, r5, [r4, #16]
 8006e28:	6025      	str	r5, [r4, #0]
 8006e2a:	61a5      	str	r5, [r4, #24]
 8006e2c:	2208      	movs	r2, #8
 8006e2e:	4629      	mov	r1, r5
 8006e30:	f104 005c 	add.w	r0, r4, #92	; 0x5c
 8006e34:	f7ff fb02 	bl	800643c <memset>
 8006e38:	e9c4 550d 	strd	r5, r5, [r4, #52]	; 0x34
 8006e3c:	e9c4 5512 	strd	r5, r5, [r4, #72]	; 0x48
 8006e40:	4620      	mov	r0, r4
 8006e42:	bdf8      	pop	{r3, r4, r5, r6, r7, pc}
 8006e44:	3468      	adds	r4, #104	; 0x68
 8006e46:	e7d9      	b.n	8006dfc <__sfp+0x1c>
 8006e48:	2104      	movs	r1, #4
 8006e4a:	4638      	mov	r0, r7
 8006e4c:	f7ff ff62 	bl	8006d14 <__sfmoreglue>
 8006e50:	4604      	mov	r4, r0
 8006e52:	6030      	str	r0, [r6, #0]
 8006e54:	2800      	cmp	r0, #0
 8006e56:	d1d5      	bne.n	8006e04 <__sfp+0x24>
 8006e58:	f7ff ff78 	bl	8006d4c <__sfp_lock_release>
 8006e5c:	230c      	movs	r3, #12
 8006e5e:	603b      	str	r3, [r7, #0]
 8006e60:	e7ee      	b.n	8006e40 <__sfp+0x60>
 8006e62:	bf00      	nop
 8006e64:	08007e00 	.word	0x08007e00
 8006e68:	ffff0001 	.word	0xffff0001

08006e6c <fiprintf>:
 8006e6c:	b40e      	push	{r1, r2, r3}
 8006e6e:	b503      	push	{r0, r1, lr}
 8006e70:	4601      	mov	r1, r0
 8006e72:	ab03      	add	r3, sp, #12
 8006e74:	4805      	ldr	r0, [pc, #20]	; (8006e8c <fiprintf+0x20>)
 8006e76:	f853 2b04 	ldr.w	r2, [r3], #4
 8006e7a:	6800      	ldr	r0, [r0, #0]
 8006e7c:	9301      	str	r3, [sp, #4]
 8006e7e:	f000 f8c3 	bl	8007008 <_vfiprintf_r>
 8006e82:	b002      	add	sp, #8
 8006e84:	f85d eb04 	ldr.w	lr, [sp], #4
 8006e88:	b003      	add	sp, #12
 8006e8a:	4770      	bx	lr
 8006e8c:	2000002c 	.word	0x2000002c

08006e90 <_fwalk_reent>:
 8006e90:	e92d 43f8 	stmdb	sp!, {r3, r4, r5, r6, r7, r8, r9, lr}
 8006e94:	4606      	mov	r6, r0
 8006e96:	4688      	mov	r8, r1
 8006e98:	f100 0448 	add.w	r4, r0, #72	; 0x48
 8006e9c:	2700      	movs	r7, #0
 8006e9e:	e9d4 9501 	ldrd	r9, r5, [r4, #4]
 8006ea2:	f1b9 0901 	subs.w	r9, r9, #1
 8006ea6:	d505      	bpl.n	8006eb4 <_fwalk_reent+0x24>
 8006ea8:	6824      	ldr	r4, [r4, #0]
 8006eaa:	2c00      	cmp	r4, #0
 8006eac:	d1f7      	bne.n	8006e9e <_fwalk_reent+0xe>
 8006eae:	4638      	mov	r0, r7
 8006eb0:	e8bd 83f8 	ldmia.w	sp!, {r3, r4, r5, r6, r7, r8, r9, pc}
 8006eb4:	89ab      	ldrh	r3, [r5, #12]
 8006eb6:	2b01      	cmp	r3, #1
 8006eb8:	d907      	bls.n	8006eca <_fwalk_reent+0x3a>
 8006eba:	f9b5 300e 	ldrsh.w	r3, [r5, #14]
 8006ebe:	3301      	adds	r3, #1
 8006ec0:	d003      	beq.n	8006eca <_fwalk_reent+0x3a>
 8006ec2:	4629      	mov	r1, r5
 8006ec4:	4630      	mov	r0, r6
 8006ec6:	47c0      	blx	r8
 8006ec8:	4307      	orrs	r7, r0
 8006eca:	3568      	adds	r5, #104	; 0x68
 8006ecc:	e7e9      	b.n	8006ea2 <_fwalk_reent+0x12>

08006ece <__retarget_lock_init_recursive>:
 8006ece:	4770      	bx	lr

08006ed0 <__retarget_lock_acquire_recursive>:
 8006ed0:	4770      	bx	lr

08006ed2 <__retarget_lock_release_recursive>:
 8006ed2:	4770      	bx	lr

08006ed4 <__swhatbuf_r>:
 8006ed4:	b570      	push	{r4, r5, r6, lr}
 8006ed6:	460e      	mov	r6, r1
 8006ed8:	f9b1 100e 	ldrsh.w	r1, [r1, #14]
 8006edc:	2900      	cmp	r1, #0
 8006ede:	b096      	sub	sp, #88	; 0x58
 8006ee0:	4614      	mov	r4, r2
 8006ee2:	461d      	mov	r5, r3
 8006ee4:	da07      	bge.n	8006ef6 <__swhatbuf_r+0x22>
 8006ee6:	2300      	movs	r3, #0
 8006ee8:	602b      	str	r3, [r5, #0]
 8006eea:	89b3      	ldrh	r3, [r6, #12]
 8006eec:	061a      	lsls	r2, r3, #24
 8006eee:	d410      	bmi.n	8006f12 <__swhatbuf_r+0x3e>
 8006ef0:	f44f 6380 	mov.w	r3, #1024	; 0x400
 8006ef4:	e00e      	b.n	8006f14 <__swhatbuf_r+0x40>
 8006ef6:	466a      	mov	r2, sp
 8006ef8:	f000 fbec 	bl	80076d4 <_fstat_r>
 8006efc:	2800      	cmp	r0, #0
 8006efe:	dbf2      	blt.n	8006ee6 <__swhatbuf_r+0x12>
 8006f00:	9a01      	ldr	r2, [sp, #4]
 8006f02:	f402 4270 	and.w	r2, r2, #61440	; 0xf000
 8006f06:	f5a2 5300 	sub.w	r3, r2, #8192	; 0x2000
 8006f0a:	425a      	negs	r2, r3
 8006f0c:	415a      	adcs	r2, r3
 8006f0e:	602a      	str	r2, [r5, #0]
 8006f10:	e7ee      	b.n	8006ef0 <__swhatbuf_r+0x1c>
 8006f12:	2340      	movs	r3, #64	; 0x40
 8006f14:	2000      	movs	r0, #0
 8006f16:	6023      	str	r3, [r4, #0]
 8006f18:	b016      	add	sp, #88	; 0x58
 8006f1a:	bd70      	pop	{r4, r5, r6, pc}

08006f1c <__smakebuf_r>:
 8006f1c:	898b      	ldrh	r3, [r1, #12]
 8006f1e:	b573      	push	{r0, r1, r4, r5, r6, lr}
 8006f20:	079d      	lsls	r5, r3, #30
 8006f22:	4606      	mov	r6, r0
 8006f24:	460c      	mov	r4, r1
 8006f26:	d507      	bpl.n	8006f38 <__smakebuf_r+0x1c>
 8006f28:	f104 0347 	add.w	r3, r4, #71	; 0x47
 8006f2c:	6023      	str	r3, [r4, #0]
 8006f2e:	6123      	str	r3, [r4, #16]
 8006f30:	2301      	movs	r3, #1
 8006f32:	6163      	str	r3, [r4, #20]
 8006f34:	b002      	add	sp, #8
 8006f36:	bd70      	pop	{r4, r5, r6, pc}
 8006f38:	ab01      	add	r3, sp, #4
 8006f3a:	466a      	mov	r2, sp
 8006f3c:	f7ff ffca 	bl	8006ed4 <__swhatbuf_r>
 8006f40:	9900      	ldr	r1, [sp, #0]
 8006f42:	4605      	mov	r5, r0
 8006f44:	4630      	mov	r0, r6
 8006f46:	f7ff fad1 	bl	80064ec <_malloc_r>
 8006f4a:	b948      	cbnz	r0, 8006f60 <__smakebuf_r+0x44>
 8006f4c:	f9b4 300c 	ldrsh.w	r3, [r4, #12]
 8006f50:	059a      	lsls	r2, r3, #22
 8006f52:	d4ef      	bmi.n	8006f34 <__smakebuf_r+0x18>
 8006f54:	f023 0303 	bic.w	r3, r3, #3
 8006f58:	f043 0302 	orr.w	r3, r3, #2
 8006f5c:	81a3      	strh	r3, [r4, #12]
 8006f5e:	e7e3      	b.n	8006f28 <__smakebuf_r+0xc>
 8006f60:	4b0d      	ldr	r3, [pc, #52]	; (8006f98 <__smakebuf_r+0x7c>)
 8006f62:	62b3      	str	r3, [r6, #40]	; 0x28
 8006f64:	89a3      	ldrh	r3, [r4, #12]
 8006f66:	6020      	str	r0, [r4, #0]
 8006f68:	f043 0380 	orr.w	r3, r3, #128	; 0x80
 8006f6c:	81a3      	strh	r3, [r4, #12]
 8006f6e:	9b00      	ldr	r3, [sp, #0]
 8006f70:	6163      	str	r3, [r4, #20]
 8006f72:	9b01      	ldr	r3, [sp, #4]
 8006f74:	6120      	str	r0, [r4, #16]
 8006f76:	b15b      	cbz	r3, 8006f90 <__smakebuf_r+0x74>
 8006f78:	f9b4 100e 	ldrsh.w	r1, [r4, #14]
 8006f7c:	4630      	mov	r0, r6
 8006f7e:	f000 fbbb 	bl	80076f8 <_isatty_r>
 8006f82:	b128      	cbz	r0, 8006f90 <__smakebuf_r+0x74>
 8006f84:	89a3      	ldrh	r3, [r4, #12]
 8006f86:	f023 0303 	bic.w	r3, r3, #3
 8006f8a:	f043 0301 	orr.w	r3, r3, #1
 8006f8e:	81a3      	strh	r3, [r4, #12]
 8006f90:	89a0      	ldrh	r0, [r4, #12]
 8006f92:	4305      	orrs	r5, r0
 8006f94:	81a5      	strh	r5, [r4, #12]
 8006f96:	e7cd      	b.n	8006f34 <__smakebuf_r+0x18>
 8006f98:	08006d09 	.word	0x08006d09

08006f9c <__malloc_lock>:
 8006f9c:	4801      	ldr	r0, [pc, #4]	; (8006fa4 <__malloc_lock+0x8>)
 8006f9e:	f7ff bf97 	b.w	8006ed0 <__retarget_lock_acquire_recursive>
 8006fa2:	bf00      	nop
 8006fa4:	200001d0 	.word	0x200001d0

08006fa8 <__malloc_unlock>:
 8006fa8:	4801      	ldr	r0, [pc, #4]	; (8006fb0 <__malloc_unlock+0x8>)
 8006faa:	f7ff bf92 	b.w	8006ed2 <__retarget_lock_release_recursive>
 8006fae:	bf00      	nop
 8006fb0:	200001d0 	.word	0x200001d0

08006fb4 <__sfputc_r>:
 8006fb4:	6893      	ldr	r3, [r2, #8]
 8006fb6:	3b01      	subs	r3, #1
 8006fb8:	2b00      	cmp	r3, #0
 8006fba:	b410      	push	{r4}
 8006fbc:	6093      	str	r3, [r2, #8]
 8006fbe:	da08      	bge.n	8006fd2 <__sfputc_r+0x1e>
 8006fc0:	6994      	ldr	r4, [r2, #24]
 8006fc2:	42a3      	cmp	r3, r4
 8006fc4:	db01      	blt.n	8006fca <__sfputc_r+0x16>
 8006fc6:	290a      	cmp	r1, #10
 8006fc8:	d103      	bne.n	8006fd2 <__sfputc_r+0x1e>
 8006fca:	f85d 4b04 	ldr.w	r4, [sp], #4
 8006fce:	f7ff bcd7 	b.w	8006980 <__swbuf_r>
 8006fd2:	6813      	ldr	r3, [r2, #0]
 8006fd4:	1c58      	adds	r0, r3, #1
 8006fd6:	6010      	str	r0, [r2, #0]
 8006fd8:	7019      	strb	r1, [r3, #0]
 8006fda:	4608      	mov	r0, r1
 8006fdc:	f85d 4b04 	ldr.w	r4, [sp], #4
 8006fe0:	4770      	bx	lr

08006fe2 <__sfputs_r>:
 8006fe2:	b5f8      	push	{r3, r4, r5, r6, r7, lr}
 8006fe4:	4606      	mov	r6, r0
 8006fe6:	460f      	mov	r7, r1
 8006fe8:	4614      	mov	r4, r2
 8006fea:	18d5      	adds	r5, r2, r3
 8006fec:	42ac      	cmp	r4, r5
 8006fee:	d101      	bne.n	8006ff4 <__sfputs_r+0x12>
 8006ff0:	2000      	movs	r0, #0
 8006ff2:	e007      	b.n	8007004 <__sfputs_r+0x22>
 8006ff4:	f814 1b01 	ldrb.w	r1, [r4], #1
 8006ff8:	463a      	mov	r2, r7
 8006ffa:	4630      	mov	r0, r6
 8006ffc:	f7ff ffda 	bl	8006fb4 <__sfputc_r>
 8007000:	1c43      	adds	r3, r0, #1
 8007002:	d1f3      	bne.n	8006fec <__sfputs_r+0xa>
 8007004:	bdf8      	pop	{r3, r4, r5, r6, r7, pc}
	...

08007008 <_vfiprintf_r>:
 8007008:	e92d 4ff0 	stmdb	sp!, {r4, r5, r6, r7, r8, r9, sl, fp, lr}
 800700c:	460d      	mov	r5, r1
 800700e:	b09d      	sub	sp, #116	; 0x74
 8007010:	4614      	mov	r4, r2
 8007012:	4698      	mov	r8, r3
 8007014:	4606      	mov	r6, r0
 8007016:	b118      	cbz	r0, 8007020 <_vfiprintf_r+0x18>
 8007018:	6983      	ldr	r3, [r0, #24]
 800701a:	b90b      	cbnz	r3, 8007020 <_vfiprintf_r+0x18>
 800701c:	f7ff fea8 	bl	8006d70 <__sinit>
 8007020:	4b89      	ldr	r3, [pc, #548]	; (8007248 <_vfiprintf_r+0x240>)
 8007022:	429d      	cmp	r5, r3
 8007024:	d11b      	bne.n	800705e <_vfiprintf_r+0x56>
 8007026:	6875      	ldr	r5, [r6, #4]
 8007028:	6e6b      	ldr	r3, [r5, #100]	; 0x64
 800702a:	07d9      	lsls	r1, r3, #31
 800702c:	d405      	bmi.n	800703a <_vfiprintf_r+0x32>
 800702e:	89ab      	ldrh	r3, [r5, #12]
 8007030:	059a      	lsls	r2, r3, #22
 8007032:	d402      	bmi.n	800703a <_vfiprintf_r+0x32>
 8007034:	6da8      	ldr	r0, [r5, #88]	; 0x58
 8007036:	f7ff ff4b 	bl	8006ed0 <__retarget_lock_acquire_recursive>
 800703a:	89ab      	ldrh	r3, [r5, #12]
 800703c:	071b      	lsls	r3, r3, #28
 800703e:	d501      	bpl.n	8007044 <_vfiprintf_r+0x3c>
 8007040:	692b      	ldr	r3, [r5, #16]
 8007042:	b9eb      	cbnz	r3, 8007080 <_vfiprintf_r+0x78>
 8007044:	4629      	mov	r1, r5
 8007046:	4630      	mov	r0, r6
 8007048:	f7ff fcec 	bl	8006a24 <__swsetup_r>
 800704c:	b1c0      	cbz	r0, 8007080 <_vfiprintf_r+0x78>
 800704e:	6e6b      	ldr	r3, [r5, #100]	; 0x64
 8007050:	07dc      	lsls	r4, r3, #31
 8007052:	d50e      	bpl.n	8007072 <_vfiprintf_r+0x6a>
 8007054:	f04f 30ff 	mov.w	r0, #4294967295	; 0xffffffff
 8007058:	b01d      	add	sp, #116	; 0x74
 800705a:	e8bd 8ff0 	ldmia.w	sp!, {r4, r5, r6, r7, r8, r9, sl, fp, pc}
 800705e:	4b7b      	ldr	r3, [pc, #492]	; (800724c <_vfiprintf_r+0x244>)
 8007060:	429d      	cmp	r5, r3
 8007062:	d101      	bne.n	8007068 <_vfiprintf_r+0x60>
 8007064:	68b5      	ldr	r5, [r6, #8]
 8007066:	e7df      	b.n	8007028 <_vfiprintf_r+0x20>
 8007068:	4b79      	ldr	r3, [pc, #484]	; (8007250 <_vfiprintf_r+0x248>)
 800706a:	429d      	cmp	r5, r3
 800706c:	bf08      	it	eq
 800706e:	68f5      	ldreq	r5, [r6, #12]
 8007070:	e7da      	b.n	8007028 <_vfiprintf_r+0x20>
 8007072:	89ab      	ldrh	r3, [r5, #12]
 8007074:	0598      	lsls	r0, r3, #22
 8007076:	d4ed      	bmi.n	8007054 <_vfiprintf_r+0x4c>
 8007078:	6da8      	ldr	r0, [r5, #88]	; 0x58
 800707a:	f7ff ff2a 	bl	8006ed2 <__retarget_lock_release_recursive>
 800707e:	e7e9      	b.n	8007054 <_vfiprintf_r+0x4c>
 8007080:	2300      	movs	r3, #0
 8007082:	9309      	str	r3, [sp, #36]	; 0x24
 8007084:	2320      	movs	r3, #32
 8007086:	f88d 3029 	strb.w	r3, [sp, #41]	; 0x29
 800708a:	f8cd 800c 	str.w	r8, [sp, #12]
 800708e:	2330      	movs	r3, #48	; 0x30
 8007090:	f8df 81c0 	ldr.w	r8, [pc, #448]	; 8007254 <_vfiprintf_r+0x24c>
 8007094:	f88d 302a 	strb.w	r3, [sp, #42]	; 0x2a
 8007098:	f04f 0901 	mov.w	r9, #1
 800709c:	4623      	mov	r3, r4
 800709e:	469a      	mov	sl, r3
 80070a0:	f813 2b01 	ldrb.w	r2, [r3], #1
 80070a4:	b10a      	cbz	r2, 80070aa <_vfiprintf_r+0xa2>
 80070a6:	2a25      	cmp	r2, #37	; 0x25
 80070a8:	d1f9      	bne.n	800709e <_vfiprintf_r+0x96>
 80070aa:	ebba 0b04 	subs.w	fp, sl, r4
 80070ae:	d00b      	beq.n	80070c8 <_vfiprintf_r+0xc0>
 80070b0:	465b      	mov	r3, fp
 80070b2:	4622      	mov	r2, r4
 80070b4:	4629      	mov	r1, r5
 80070b6:	4630      	mov	r0, r6
 80070b8:	f7ff ff93 	bl	8006fe2 <__sfputs_r>
 80070bc:	3001      	adds	r0, #1
 80070be:	f000 80aa 	beq.w	8007216 <_vfiprintf_r+0x20e>
 80070c2:	9a09      	ldr	r2, [sp, #36]	; 0x24
 80070c4:	445a      	add	r2, fp
 80070c6:	9209      	str	r2, [sp, #36]	; 0x24
 80070c8:	f89a 3000 	ldrb.w	r3, [sl]
 80070cc:	2b00      	cmp	r3, #0
 80070ce:	f000 80a2 	beq.w	8007216 <_vfiprintf_r+0x20e>
 80070d2:	2300      	movs	r3, #0
 80070d4:	f04f 32ff 	mov.w	r2, #4294967295	; 0xffffffff
 80070d8:	e9cd 2305 	strd	r2, r3, [sp, #20]
 80070dc:	f10a 0a01 	add.w	sl, sl, #1
 80070e0:	9304      	str	r3, [sp, #16]
 80070e2:	9307      	str	r3, [sp, #28]
 80070e4:	f88d 3053 	strb.w	r3, [sp, #83]	; 0x53
 80070e8:	931a      	str	r3, [sp, #104]	; 0x68
 80070ea:	4654      	mov	r4, sl
 80070ec:	2205      	movs	r2, #5
 80070ee:	f814 1b01 	ldrb.w	r1, [r4], #1
 80070f2:	4858      	ldr	r0, [pc, #352]	; (8007254 <_vfiprintf_r+0x24c>)
 80070f4:	f7f9 f874 	bl	80001e0 <memchr>
 80070f8:	9a04      	ldr	r2, [sp, #16]
 80070fa:	b9d8      	cbnz	r0, 8007134 <_vfiprintf_r+0x12c>
 80070fc:	06d1      	lsls	r1, r2, #27
 80070fe:	bf44      	itt	mi
 8007100:	2320      	movmi	r3, #32
 8007102:	f88d 3053 	strbmi.w	r3, [sp, #83]	; 0x53
 8007106:	0713      	lsls	r3, r2, #28
 8007108:	bf44      	itt	mi
 800710a:	232b      	movmi	r3, #43	; 0x2b
 800710c:	f88d 3053 	strbmi.w	r3, [sp, #83]	; 0x53
 8007110:	f89a 3000 	ldrb.w	r3, [sl]
 8007114:	2b2a      	cmp	r3, #42	; 0x2a
 8007116:	d015      	beq.n	8007144 <_vfiprintf_r+0x13c>
 8007118:	9a07      	ldr	r2, [sp, #28]
 800711a:	4654      	mov	r4, sl
 800711c:	2000      	movs	r0, #0
 800711e:	f04f 0c0a 	mov.w	ip, #10
 8007122:	4621      	mov	r1, r4
 8007124:	f811 3b01 	ldrb.w	r3, [r1], #1
 8007128:	3b30      	subs	r3, #48	; 0x30
 800712a:	2b09      	cmp	r3, #9
 800712c:	d94e      	bls.n	80071cc <_vfiprintf_r+0x1c4>
 800712e:	b1b0      	cbz	r0, 800715e <_vfiprintf_r+0x156>
 8007130:	9207      	str	r2, [sp, #28]
 8007132:	e014      	b.n	800715e <_vfiprintf_r+0x156>
 8007134:	eba0 0308 	sub.w	r3, r0, r8
 8007138:	fa09 f303 	lsl.w	r3, r9, r3
 800713c:	4313      	orrs	r3, r2
 800713e:	9304      	str	r3, [sp, #16]
 8007140:	46a2      	mov	sl, r4
 8007142:	e7d2      	b.n	80070ea <_vfiprintf_r+0xe2>
 8007144:	9b03      	ldr	r3, [sp, #12]
 8007146:	1d19      	adds	r1, r3, #4
 8007148:	681b      	ldr	r3, [r3, #0]
 800714a:	9103      	str	r1, [sp, #12]
 800714c:	2b00      	cmp	r3, #0
 800714e:	bfbb      	ittet	lt
 8007150:	425b      	neglt	r3, r3
 8007152:	f042 0202 	orrlt.w	r2, r2, #2
 8007156:	9307      	strge	r3, [sp, #28]
 8007158:	9307      	strlt	r3, [sp, #28]
 800715a:	bfb8      	it	lt
 800715c:	9204      	strlt	r2, [sp, #16]
 800715e:	7823      	ldrb	r3, [r4, #0]
 8007160:	2b2e      	cmp	r3, #46	; 0x2e
 8007162:	d10c      	bne.n	800717e <_vfiprintf_r+0x176>
 8007164:	7863      	ldrb	r3, [r4, #1]
 8007166:	2b2a      	cmp	r3, #42	; 0x2a
 8007168:	d135      	bne.n	80071d6 <_vfiprintf_r+0x1ce>
 800716a:	9b03      	ldr	r3, [sp, #12]
 800716c:	1d1a      	adds	r2, r3, #4
 800716e:	681b      	ldr	r3, [r3, #0]
 8007170:	9203      	str	r2, [sp, #12]
 8007172:	2b00      	cmp	r3, #0
 8007174:	bfb8      	it	lt
 8007176:	f04f 33ff 	movlt.w	r3, #4294967295	; 0xffffffff
 800717a:	3402      	adds	r4, #2
 800717c:	9305      	str	r3, [sp, #20]
 800717e:	f8df a0e4 	ldr.w	sl, [pc, #228]	; 8007264 <_vfiprintf_r+0x25c>
 8007182:	7821      	ldrb	r1, [r4, #0]
 8007184:	2203      	movs	r2, #3
 8007186:	4650      	mov	r0, sl
 8007188:	f7f9 f82a 	bl	80001e0 <memchr>
 800718c:	b140      	cbz	r0, 80071a0 <_vfiprintf_r+0x198>
 800718e:	2340      	movs	r3, #64	; 0x40
 8007190:	eba0 000a 	sub.w	r0, r0, sl
 8007194:	fa03 f000 	lsl.w	r0, r3, r0
 8007198:	9b04      	ldr	r3, [sp, #16]
 800719a:	4303      	orrs	r3, r0
 800719c:	3401      	adds	r4, #1
 800719e:	9304      	str	r3, [sp, #16]
 80071a0:	f814 1b01 	ldrb.w	r1, [r4], #1
 80071a4:	482c      	ldr	r0, [pc, #176]	; (8007258 <_vfiprintf_r+0x250>)
 80071a6:	f88d 1028 	strb.w	r1, [sp, #40]	; 0x28
 80071aa:	2206      	movs	r2, #6
 80071ac:	f7f9 f818 	bl	80001e0 <memchr>
 80071b0:	2800      	cmp	r0, #0
 80071b2:	d03f      	beq.n	8007234 <_vfiprintf_r+0x22c>
 80071b4:	4b29      	ldr	r3, [pc, #164]	; (800725c <_vfiprintf_r+0x254>)
 80071b6:	bb1b      	cbnz	r3, 8007200 <_vfiprintf_r+0x1f8>
 80071b8:	9b03      	ldr	r3, [sp, #12]
 80071ba:	3307      	adds	r3, #7
 80071bc:	f023 0307 	bic.w	r3, r3, #7
 80071c0:	3308      	adds	r3, #8
 80071c2:	9303      	str	r3, [sp, #12]
 80071c4:	9b09      	ldr	r3, [sp, #36]	; 0x24
 80071c6:	443b      	add	r3, r7
 80071c8:	9309      	str	r3, [sp, #36]	; 0x24
 80071ca:	e767      	b.n	800709c <_vfiprintf_r+0x94>
 80071cc:	fb0c 3202 	mla	r2, ip, r2, r3
 80071d0:	460c      	mov	r4, r1
 80071d2:	2001      	movs	r0, #1
 80071d4:	e7a5      	b.n	8007122 <_vfiprintf_r+0x11a>
 80071d6:	2300      	movs	r3, #0
 80071d8:	3401      	adds	r4, #1
 80071da:	9305      	str	r3, [sp, #20]
 80071dc:	4619      	mov	r1, r3
 80071de:	f04f 0c0a 	mov.w	ip, #10
 80071e2:	4620      	mov	r0, r4
 80071e4:	f810 2b01 	ldrb.w	r2, [r0], #1
 80071e8:	3a30      	subs	r2, #48	; 0x30
 80071ea:	2a09      	cmp	r2, #9
 80071ec:	d903      	bls.n	80071f6 <_vfiprintf_r+0x1ee>
 80071ee:	2b00      	cmp	r3, #0
 80071f0:	d0c5      	beq.n	800717e <_vfiprintf_r+0x176>
 80071f2:	9105      	str	r1, [sp, #20]
 80071f4:	e7c3      	b.n	800717e <_vfiprintf_r+0x176>
 80071f6:	fb0c 2101 	mla	r1, ip, r1, r2
 80071fa:	4604      	mov	r4, r0
 80071fc:	2301      	movs	r3, #1
 80071fe:	e7f0      	b.n	80071e2 <_vfiprintf_r+0x1da>
 8007200:	ab03      	add	r3, sp, #12
 8007202:	9300      	str	r3, [sp, #0]
 8007204:	462a      	mov	r2, r5
 8007206:	4b16      	ldr	r3, [pc, #88]	; (8007260 <_vfiprintf_r+0x258>)
 8007208:	a904      	add	r1, sp, #16
 800720a:	4630      	mov	r0, r6
 800720c:	f3af 8000 	nop.w
 8007210:	4607      	mov	r7, r0
 8007212:	1c78      	adds	r0, r7, #1
 8007214:	d1d6      	bne.n	80071c4 <_vfiprintf_r+0x1bc>
 8007216:	6e6b      	ldr	r3, [r5, #100]	; 0x64
 8007218:	07d9      	lsls	r1, r3, #31
 800721a:	d405      	bmi.n	8007228 <_vfiprintf_r+0x220>
 800721c:	89ab      	ldrh	r3, [r5, #12]
 800721e:	059a      	lsls	r2, r3, #22
 8007220:	d402      	bmi.n	8007228 <_vfiprintf_r+0x220>
 8007222:	6da8      	ldr	r0, [r5, #88]	; 0x58
 8007224:	f7ff fe55 	bl	8006ed2 <__retarget_lock_release_recursive>
 8007228:	89ab      	ldrh	r3, [r5, #12]
 800722a:	065b      	lsls	r3, r3, #25
 800722c:	f53f af12 	bmi.w	8007054 <_vfiprintf_r+0x4c>
 8007230:	9809      	ldr	r0, [sp, #36]	; 0x24
 8007232:	e711      	b.n	8007058 <_vfiprintf_r+0x50>
 8007234:	ab03      	add	r3, sp, #12
 8007236:	9300      	str	r3, [sp, #0]
 8007238:	462a      	mov	r2, r5
 800723a:	4b09      	ldr	r3, [pc, #36]	; (8007260 <_vfiprintf_r+0x258>)
 800723c:	a904      	add	r1, sp, #16
 800723e:	4630      	mov	r0, r6
 8007240:	f000 f880 	bl	8007344 <_printf_i>
 8007244:	e7e4      	b.n	8007210 <_vfiprintf_r+0x208>
 8007246:	bf00      	nop
 8007248:	08007ed8 	.word	0x08007ed8
 800724c:	08007ef8 	.word	0x08007ef8
 8007250:	08007eb8 	.word	0x08007eb8
 8007254:	08007f18 	.word	0x08007f18
 8007258:	08007f22 	.word	0x08007f22
 800725c:	00000000 	.word	0x00000000
 8007260:	08006fe3 	.word	0x08006fe3
 8007264:	08007f1e 	.word	0x08007f1e

08007268 <_printf_common>:
 8007268:	e92d 47f0 	stmdb	sp!, {r4, r5, r6, r7, r8, r9, sl, lr}
 800726c:	4616      	mov	r6, r2
 800726e:	4699      	mov	r9, r3
 8007270:	688a      	ldr	r2, [r1, #8]
 8007272:	690b      	ldr	r3, [r1, #16]
 8007274:	f8dd 8020 	ldr.w	r8, [sp, #32]
 8007278:	4293      	cmp	r3, r2
 800727a:	bfb8      	it	lt
 800727c:	4613      	movlt	r3, r2
 800727e:	6033      	str	r3, [r6, #0]
 8007280:	f891 2043 	ldrb.w	r2, [r1, #67]	; 0x43
 8007284:	4607      	mov	r7, r0
 8007286:	460c      	mov	r4, r1
 8007288:	b10a      	cbz	r2, 800728e <_printf_common+0x26>
 800728a:	3301      	adds	r3, #1
 800728c:	6033      	str	r3, [r6, #0]
 800728e:	6823      	ldr	r3, [r4, #0]
 8007290:	0699      	lsls	r1, r3, #26
 8007292:	bf42      	ittt	mi
 8007294:	6833      	ldrmi	r3, [r6, #0]
 8007296:	3302      	addmi	r3, #2
 8007298:	6033      	strmi	r3, [r6, #0]
 800729a:	6825      	ldr	r5, [r4, #0]
 800729c:	f015 0506 	ands.w	r5, r5, #6
 80072a0:	d106      	bne.n	80072b0 <_printf_common+0x48>
 80072a2:	f104 0a19 	add.w	sl, r4, #25
 80072a6:	68e3      	ldr	r3, [r4, #12]
 80072a8:	6832      	ldr	r2, [r6, #0]
 80072aa:	1a9b      	subs	r3, r3, r2
 80072ac:	42ab      	cmp	r3, r5
 80072ae:	dc26      	bgt.n	80072fe <_printf_common+0x96>
 80072b0:	f894 2043 	ldrb.w	r2, [r4, #67]	; 0x43
 80072b4:	1e13      	subs	r3, r2, #0
 80072b6:	6822      	ldr	r2, [r4, #0]
 80072b8:	bf18      	it	ne
 80072ba:	2301      	movne	r3, #1
 80072bc:	0692      	lsls	r2, r2, #26
 80072be:	d42b      	bmi.n	8007318 <_printf_common+0xb0>
 80072c0:	f104 0243 	add.w	r2, r4, #67	; 0x43
 80072c4:	4649      	mov	r1, r9
 80072c6:	4638      	mov	r0, r7
 80072c8:	47c0      	blx	r8
 80072ca:	3001      	adds	r0, #1
 80072cc:	d01e      	beq.n	800730c <_printf_common+0xa4>
 80072ce:	6823      	ldr	r3, [r4, #0]
 80072d0:	68e5      	ldr	r5, [r4, #12]
 80072d2:	6832      	ldr	r2, [r6, #0]
 80072d4:	f003 0306 	and.w	r3, r3, #6
 80072d8:	2b04      	cmp	r3, #4
 80072da:	bf08      	it	eq
 80072dc:	1aad      	subeq	r5, r5, r2
 80072de:	68a3      	ldr	r3, [r4, #8]
 80072e0:	6922      	ldr	r2, [r4, #16]
 80072e2:	bf0c      	ite	eq
 80072e4:	ea25 75e5 	biceq.w	r5, r5, r5, asr #31
 80072e8:	2500      	movne	r5, #0
 80072ea:	4293      	cmp	r3, r2
 80072ec:	bfc4      	itt	gt
 80072ee:	1a9b      	subgt	r3, r3, r2
 80072f0:	18ed      	addgt	r5, r5, r3
 80072f2:	2600      	movs	r6, #0
 80072f4:	341a      	adds	r4, #26
 80072f6:	42b5      	cmp	r5, r6
 80072f8:	d11a      	bne.n	8007330 <_printf_common+0xc8>
 80072fa:	2000      	movs	r0, #0
 80072fc:	e008      	b.n	8007310 <_printf_common+0xa8>
 80072fe:	2301      	movs	r3, #1
 8007300:	4652      	mov	r2, sl
 8007302:	4649      	mov	r1, r9
 8007304:	4638      	mov	r0, r7
 8007306:	47c0      	blx	r8
 8007308:	3001      	adds	r0, #1
 800730a:	d103      	bne.n	8007314 <_printf_common+0xac>
 800730c:	f04f 30ff 	mov.w	r0, #4294967295	; 0xffffffff
 8007310:	e8bd 87f0 	ldmia.w	sp!, {r4, r5, r6, r7, r8, r9, sl, pc}
 8007314:	3501      	adds	r5, #1
 8007316:	e7c6      	b.n	80072a6 <_printf_common+0x3e>
 8007318:	18e1      	adds	r1, r4, r3
 800731a:	1c5a      	adds	r2, r3, #1
 800731c:	2030      	movs	r0, #48	; 0x30
 800731e:	f881 0043 	strb.w	r0, [r1, #67]	; 0x43
 8007322:	4422      	add	r2, r4
 8007324:	f894 1045 	ldrb.w	r1, [r4, #69]	; 0x45
 8007328:	f882 1043 	strb.w	r1, [r2, #67]	; 0x43
 800732c:	3302      	adds	r3, #2
 800732e:	e7c7      	b.n	80072c0 <_printf_common+0x58>
 8007330:	2301      	movs	r3, #1
 8007332:	4622      	mov	r2, r4
 8007334:	4649      	mov	r1, r9
 8007336:	4638      	mov	r0, r7
 8007338:	47c0      	blx	r8
 800733a:	3001      	adds	r0, #1
 800733c:	d0e6      	beq.n	800730c <_printf_common+0xa4>
 800733e:	3601      	adds	r6, #1
 8007340:	e7d9      	b.n	80072f6 <_printf_common+0x8e>
	...

08007344 <_printf_i>:
 8007344:	e92d 47ff 	stmdb	sp!, {r0, r1, r2, r3, r4, r5, r6, r7, r8, r9, sl, lr}
 8007348:	460c      	mov	r4, r1
 800734a:	4691      	mov	r9, r2
 800734c:	7e27      	ldrb	r7, [r4, #24]
 800734e:	990c      	ldr	r1, [sp, #48]	; 0x30
 8007350:	2f78      	cmp	r7, #120	; 0x78
 8007352:	4680      	mov	r8, r0
 8007354:	469a      	mov	sl, r3
 8007356:	f104 0243 	add.w	r2, r4, #67	; 0x43
 800735a:	d807      	bhi.n	800736c <_printf_i+0x28>
 800735c:	2f62      	cmp	r7, #98	; 0x62
 800735e:	d80a      	bhi.n	8007376 <_printf_i+0x32>
 8007360:	2f00      	cmp	r7, #0
 8007362:	f000 80d8 	beq.w	8007516 <_printf_i+0x1d2>
 8007366:	2f58      	cmp	r7, #88	; 0x58
 8007368:	f000 80a3 	beq.w	80074b2 <_printf_i+0x16e>
 800736c:	f104 0642 	add.w	r6, r4, #66	; 0x42
 8007370:	f884 7042 	strb.w	r7, [r4, #66]	; 0x42
 8007374:	e03a      	b.n	80073ec <_printf_i+0xa8>
 8007376:	f1a7 0363 	sub.w	r3, r7, #99	; 0x63
 800737a:	2b15      	cmp	r3, #21
 800737c:	d8f6      	bhi.n	800736c <_printf_i+0x28>
 800737e:	a001      	add	r0, pc, #4	; (adr r0, 8007384 <_printf_i+0x40>)
 8007380:	f850 f023 	ldr.w	pc, [r0, r3, lsl #2]
 8007384:	080073dd 	.word	0x080073dd
 8007388:	080073f1 	.word	0x080073f1
 800738c:	0800736d 	.word	0x0800736d
 8007390:	0800736d 	.word	0x0800736d
 8007394:	0800736d 	.word	0x0800736d
 8007398:	0800736d 	.word	0x0800736d
 800739c:	080073f1 	.word	0x080073f1
 80073a0:	0800736d 	.word	0x0800736d
 80073a4:	0800736d 	.word	0x0800736d
 80073a8:	0800736d 	.word	0x0800736d
 80073ac:	0800736d 	.word	0x0800736d
 80073b0:	080074fd 	.word	0x080074fd
 80073b4:	08007421 	.word	0x08007421
 80073b8:	080074df 	.word	0x080074df
 80073bc:	0800736d 	.word	0x0800736d
 80073c0:	0800736d 	.word	0x0800736d
 80073c4:	0800751f 	.word	0x0800751f
 80073c8:	0800736d 	.word	0x0800736d
 80073cc:	08007421 	.word	0x08007421
 80073d0:	0800736d 	.word	0x0800736d
 80073d4:	0800736d 	.word	0x0800736d
 80073d8:	080074e7 	.word	0x080074e7
 80073dc:	680b      	ldr	r3, [r1, #0]
 80073de:	1d1a      	adds	r2, r3, #4
 80073e0:	681b      	ldr	r3, [r3, #0]
 80073e2:	600a      	str	r2, [r1, #0]
 80073e4:	f104 0642 	add.w	r6, r4, #66	; 0x42
 80073e8:	f884 3042 	strb.w	r3, [r4, #66]	; 0x42
 80073ec:	2301      	movs	r3, #1
 80073ee:	e0a3      	b.n	8007538 <_printf_i+0x1f4>
 80073f0:	6825      	ldr	r5, [r4, #0]
 80073f2:	6808      	ldr	r0, [r1, #0]
 80073f4:	062e      	lsls	r6, r5, #24
 80073f6:	f100 0304 	add.w	r3, r0, #4
 80073fa:	d50a      	bpl.n	8007412 <_printf_i+0xce>
 80073fc:	6805      	ldr	r5, [r0, #0]
 80073fe:	600b      	str	r3, [r1, #0]
 8007400:	2d00      	cmp	r5, #0
 8007402:	da03      	bge.n	800740c <_printf_i+0xc8>
 8007404:	232d      	movs	r3, #45	; 0x2d
 8007406:	426d      	negs	r5, r5
 8007408:	f884 3043 	strb.w	r3, [r4, #67]	; 0x43
 800740c:	485e      	ldr	r0, [pc, #376]	; (8007588 <_printf_i+0x244>)
 800740e:	230a      	movs	r3, #10
 8007410:	e019      	b.n	8007446 <_printf_i+0x102>
 8007412:	f015 0f40 	tst.w	r5, #64	; 0x40
 8007416:	6805      	ldr	r5, [r0, #0]
 8007418:	600b      	str	r3, [r1, #0]
 800741a:	bf18      	it	ne
 800741c:	b22d      	sxthne	r5, r5
 800741e:	e7ef      	b.n	8007400 <_printf_i+0xbc>
 8007420:	680b      	ldr	r3, [r1, #0]
 8007422:	6825      	ldr	r5, [r4, #0]
 8007424:	1d18      	adds	r0, r3, #4
 8007426:	6008      	str	r0, [r1, #0]
 8007428:	0628      	lsls	r0, r5, #24
 800742a:	d501      	bpl.n	8007430 <_printf_i+0xec>
 800742c:	681d      	ldr	r5, [r3, #0]
 800742e:	e002      	b.n	8007436 <_printf_i+0xf2>
 8007430:	0669      	lsls	r1, r5, #25
 8007432:	d5fb      	bpl.n	800742c <_printf_i+0xe8>
 8007434:	881d      	ldrh	r5, [r3, #0]
 8007436:	4854      	ldr	r0, [pc, #336]	; (8007588 <_printf_i+0x244>)
 8007438:	2f6f      	cmp	r7, #111	; 0x6f
 800743a:	bf0c      	ite	eq
 800743c:	2308      	moveq	r3, #8
 800743e:	230a      	movne	r3, #10
 8007440:	2100      	movs	r1, #0
 8007442:	f884 1043 	strb.w	r1, [r4, #67]	; 0x43
 8007446:	6866      	ldr	r6, [r4, #4]
 8007448:	60a6      	str	r6, [r4, #8]
 800744a:	2e00      	cmp	r6, #0
 800744c:	bfa2      	ittt	ge
 800744e:	6821      	ldrge	r1, [r4, #0]
 8007450:	f021 0104 	bicge.w	r1, r1, #4
 8007454:	6021      	strge	r1, [r4, #0]
 8007456:	b90d      	cbnz	r5, 800745c <_printf_i+0x118>
 8007458:	2e00      	cmp	r6, #0
 800745a:	d04d      	beq.n	80074f8 <_printf_i+0x1b4>
 800745c:	4616      	mov	r6, r2
 800745e:	fbb5 f1f3 	udiv	r1, r5, r3
 8007462:	fb03 5711 	mls	r7, r3, r1, r5
 8007466:	5dc7      	ldrb	r7, [r0, r7]
 8007468:	f806 7d01 	strb.w	r7, [r6, #-1]!
 800746c:	462f      	mov	r7, r5
 800746e:	42bb      	cmp	r3, r7
 8007470:	460d      	mov	r5, r1
 8007472:	d9f4      	bls.n	800745e <_printf_i+0x11a>
 8007474:	2b08      	cmp	r3, #8
 8007476:	d10b      	bne.n	8007490 <_printf_i+0x14c>
 8007478:	6823      	ldr	r3, [r4, #0]
 800747a:	07df      	lsls	r7, r3, #31
 800747c:	d508      	bpl.n	8007490 <_printf_i+0x14c>
 800747e:	6923      	ldr	r3, [r4, #16]
 8007480:	6861      	ldr	r1, [r4, #4]
 8007482:	4299      	cmp	r1, r3
 8007484:	bfde      	ittt	le
 8007486:	2330      	movle	r3, #48	; 0x30
 8007488:	f806 3c01 	strble.w	r3, [r6, #-1]
 800748c:	f106 36ff 	addle.w	r6, r6, #4294967295	; 0xffffffff
 8007490:	1b92      	subs	r2, r2, r6
 8007492:	6122      	str	r2, [r4, #16]
 8007494:	f8cd a000 	str.w	sl, [sp]
 8007498:	464b      	mov	r3, r9
 800749a:	aa03      	add	r2, sp, #12
 800749c:	4621      	mov	r1, r4
 800749e:	4640      	mov	r0, r8
 80074a0:	f7ff fee2 	bl	8007268 <_printf_common>
 80074a4:	3001      	adds	r0, #1
 80074a6:	d14c      	bne.n	8007542 <_printf_i+0x1fe>
 80074a8:	f04f 30ff 	mov.w	r0, #4294967295	; 0xffffffff
 80074ac:	b004      	add	sp, #16
 80074ae:	e8bd 87f0 	ldmia.w	sp!, {r4, r5, r6, r7, r8, r9, sl, pc}
 80074b2:	4835      	ldr	r0, [pc, #212]	; (8007588 <_printf_i+0x244>)
 80074b4:	f884 7045 	strb.w	r7, [r4, #69]	; 0x45
 80074b8:	6823      	ldr	r3, [r4, #0]
 80074ba:	680e      	ldr	r6, [r1, #0]
 80074bc:	061f      	lsls	r7, r3, #24
 80074be:	f856 5b04 	ldr.w	r5, [r6], #4
 80074c2:	600e      	str	r6, [r1, #0]
 80074c4:	d514      	bpl.n	80074f0 <_printf_i+0x1ac>
 80074c6:	07d9      	lsls	r1, r3, #31
 80074c8:	bf44      	itt	mi
 80074ca:	f043 0320 	orrmi.w	r3, r3, #32
 80074ce:	6023      	strmi	r3, [r4, #0]
 80074d0:	b91d      	cbnz	r5, 80074da <_printf_i+0x196>
 80074d2:	6823      	ldr	r3, [r4, #0]
 80074d4:	f023 0320 	bic.w	r3, r3, #32
 80074d8:	6023      	str	r3, [r4, #0]
 80074da:	2310      	movs	r3, #16
 80074dc:	e7b0      	b.n	8007440 <_printf_i+0xfc>
 80074de:	6823      	ldr	r3, [r4, #0]
 80074e0:	f043 0320 	orr.w	r3, r3, #32
 80074e4:	6023      	str	r3, [r4, #0]
 80074e6:	2378      	movs	r3, #120	; 0x78
 80074e8:	4828      	ldr	r0, [pc, #160]	; (800758c <_printf_i+0x248>)
 80074ea:	f884 3045 	strb.w	r3, [r4, #69]	; 0x45
 80074ee:	e7e3      	b.n	80074b8 <_printf_i+0x174>
 80074f0:	065e      	lsls	r6, r3, #25
 80074f2:	bf48      	it	mi
 80074f4:	b2ad      	uxthmi	r5, r5
 80074f6:	e7e6      	b.n	80074c6 <_printf_i+0x182>
 80074f8:	4616      	mov	r6, r2
 80074fa:	e7bb      	b.n	8007474 <_printf_i+0x130>
 80074fc:	680b      	ldr	r3, [r1, #0]
 80074fe:	6826      	ldr	r6, [r4, #0]
 8007500:	6960      	ldr	r0, [r4, #20]
 8007502:	1d1d      	adds	r5, r3, #4
 8007504:	600d      	str	r5, [r1, #0]
 8007506:	0635      	lsls	r5, r6, #24
 8007508:	681b      	ldr	r3, [r3, #0]
 800750a:	d501      	bpl.n	8007510 <_printf_i+0x1cc>
 800750c:	6018      	str	r0, [r3, #0]
 800750e:	e002      	b.n	8007516 <_printf_i+0x1d2>
 8007510:	0671      	lsls	r1, r6, #25
 8007512:	d5fb      	bpl.n	800750c <_printf_i+0x1c8>
 8007514:	8018      	strh	r0, [r3, #0]
 8007516:	2300      	movs	r3, #0
 8007518:	6123      	str	r3, [r4, #16]
 800751a:	4616      	mov	r6, r2
 800751c:	e7ba      	b.n	8007494 <_printf_i+0x150>
 800751e:	680b      	ldr	r3, [r1, #0]
 8007520:	1d1a      	adds	r2, r3, #4
 8007522:	600a      	str	r2, [r1, #0]
 8007524:	681e      	ldr	r6, [r3, #0]
 8007526:	6862      	ldr	r2, [r4, #4]
 8007528:	2100      	movs	r1, #0
 800752a:	4630      	mov	r0, r6
 800752c:	f7f8 fe58 	bl	80001e0 <memchr>
 8007530:	b108      	cbz	r0, 8007536 <_printf_i+0x1f2>
 8007532:	1b80      	subs	r0, r0, r6
 8007534:	6060      	str	r0, [r4, #4]
 8007536:	6863      	ldr	r3, [r4, #4]
 8007538:	6123      	str	r3, [r4, #16]
 800753a:	2300      	movs	r3, #0
 800753c:	f884 3043 	strb.w	r3, [r4, #67]	; 0x43
 8007540:	e7a8      	b.n	8007494 <_printf_i+0x150>
 8007542:	6923      	ldr	r3, [r4, #16]
 8007544:	4632      	mov	r2, r6
 8007546:	4649      	mov	r1, r9
 8007548:	4640      	mov	r0, r8
 800754a:	47d0      	blx	sl
 800754c:	3001      	adds	r0, #1
 800754e:	d0ab      	beq.n	80074a8 <_printf_i+0x164>
 8007550:	6823      	ldr	r3, [r4, #0]
 8007552:	079b      	lsls	r3, r3, #30
 8007554:	d413      	bmi.n	800757e <_printf_i+0x23a>
 8007556:	68e0      	ldr	r0, [r4, #12]
 8007558:	9b03      	ldr	r3, [sp, #12]
 800755a:	4298      	cmp	r0, r3
 800755c:	bfb8      	it	lt
 800755e:	4618      	movlt	r0, r3
 8007560:	e7a4      	b.n	80074ac <_printf_i+0x168>
 8007562:	2301      	movs	r3, #1
 8007564:	4632      	mov	r2, r6
 8007566:	4649      	mov	r1, r9
 8007568:	4640      	mov	r0, r8
 800756a:	47d0      	blx	sl
 800756c:	3001      	adds	r0, #1
 800756e:	d09b      	beq.n	80074a8 <_printf_i+0x164>
 8007570:	3501      	adds	r5, #1
 8007572:	68e3      	ldr	r3, [r4, #12]
 8007574:	9903      	ldr	r1, [sp, #12]
 8007576:	1a5b      	subs	r3, r3, r1
 8007578:	42ab      	cmp	r3, r5
 800757a:	dcf2      	bgt.n	8007562 <_printf_i+0x21e>
 800757c:	e7eb      	b.n	8007556 <_printf_i+0x212>
 800757e:	2500      	movs	r5, #0
 8007580:	f104 0619 	add.w	r6, r4, #25
 8007584:	e7f5      	b.n	8007572 <_printf_i+0x22e>
 8007586:	bf00      	nop
 8007588:	08007f29 	.word	0x08007f29
 800758c:	08007f3a 	.word	0x08007f3a

08007590 <_putc_r>:
 8007590:	b570      	push	{r4, r5, r6, lr}
 8007592:	460d      	mov	r5, r1
 8007594:	4614      	mov	r4, r2
 8007596:	4606      	mov	r6, r0
 8007598:	b118      	cbz	r0, 80075a2 <_putc_r+0x12>
 800759a:	6983      	ldr	r3, [r0, #24]
 800759c:	b90b      	cbnz	r3, 80075a2 <_putc_r+0x12>
 800759e:	f7ff fbe7 	bl	8006d70 <__sinit>
 80075a2:	4b1c      	ldr	r3, [pc, #112]	; (8007614 <_putc_r+0x84>)
 80075a4:	429c      	cmp	r4, r3
 80075a6:	d124      	bne.n	80075f2 <_putc_r+0x62>
 80075a8:	6874      	ldr	r4, [r6, #4]
 80075aa:	6e63      	ldr	r3, [r4, #100]	; 0x64
 80075ac:	07d8      	lsls	r0, r3, #31
 80075ae:	d405      	bmi.n	80075bc <_putc_r+0x2c>
 80075b0:	89a3      	ldrh	r3, [r4, #12]
 80075b2:	0599      	lsls	r1, r3, #22
 80075b4:	d402      	bmi.n	80075bc <_putc_r+0x2c>
 80075b6:	6da0      	ldr	r0, [r4, #88]	; 0x58
 80075b8:	f7ff fc8a 	bl	8006ed0 <__retarget_lock_acquire_recursive>
 80075bc:	68a3      	ldr	r3, [r4, #8]
 80075be:	3b01      	subs	r3, #1
 80075c0:	2b00      	cmp	r3, #0
 80075c2:	60a3      	str	r3, [r4, #8]
 80075c4:	da05      	bge.n	80075d2 <_putc_r+0x42>
 80075c6:	69a2      	ldr	r2, [r4, #24]
 80075c8:	4293      	cmp	r3, r2
 80075ca:	db1c      	blt.n	8007606 <_putc_r+0x76>
 80075cc:	b2eb      	uxtb	r3, r5
 80075ce:	2b0a      	cmp	r3, #10
 80075d0:	d019      	beq.n	8007606 <_putc_r+0x76>
 80075d2:	6823      	ldr	r3, [r4, #0]
 80075d4:	1c5a      	adds	r2, r3, #1
 80075d6:	6022      	str	r2, [r4, #0]
 80075d8:	701d      	strb	r5, [r3, #0]
 80075da:	b2ed      	uxtb	r5, r5
 80075dc:	6e63      	ldr	r3, [r4, #100]	; 0x64
 80075de:	07da      	lsls	r2, r3, #31
 80075e0:	d405      	bmi.n	80075ee <_putc_r+0x5e>
 80075e2:	89a3      	ldrh	r3, [r4, #12]
 80075e4:	059b      	lsls	r3, r3, #22
 80075e6:	d402      	bmi.n	80075ee <_putc_r+0x5e>
 80075e8:	6da0      	ldr	r0, [r4, #88]	; 0x58
 80075ea:	f7ff fc72 	bl	8006ed2 <__retarget_lock_release_recursive>
 80075ee:	4628      	mov	r0, r5
 80075f0:	bd70      	pop	{r4, r5, r6, pc}
 80075f2:	4b09      	ldr	r3, [pc, #36]	; (8007618 <_putc_r+0x88>)
 80075f4:	429c      	cmp	r4, r3
 80075f6:	d101      	bne.n	80075fc <_putc_r+0x6c>
 80075f8:	68b4      	ldr	r4, [r6, #8]
 80075fa:	e7d6      	b.n	80075aa <_putc_r+0x1a>
 80075fc:	4b07      	ldr	r3, [pc, #28]	; (800761c <_putc_r+0x8c>)
 80075fe:	429c      	cmp	r4, r3
 8007600:	bf08      	it	eq
 8007602:	68f4      	ldreq	r4, [r6, #12]
 8007604:	e7d1      	b.n	80075aa <_putc_r+0x1a>
 8007606:	4629      	mov	r1, r5
 8007608:	4622      	mov	r2, r4
 800760a:	4630      	mov	r0, r6
 800760c:	f7ff f9b8 	bl	8006980 <__swbuf_r>
 8007610:	4605      	mov	r5, r0
 8007612:	e7e3      	b.n	80075dc <_putc_r+0x4c>
 8007614:	08007ed8 	.word	0x08007ed8
 8007618:	08007ef8 	.word	0x08007ef8
 800761c:	08007eb8 	.word	0x08007eb8

08007620 <__sread>:
 8007620:	b510      	push	{r4, lr}
 8007622:	460c      	mov	r4, r1
 8007624:	f9b1 100e 	ldrsh.w	r1, [r1, #14]
 8007628:	f000 f888 	bl	800773c <_read_r>
 800762c:	2800      	cmp	r0, #0
 800762e:	bfab      	itete	ge
 8007630:	6d63      	ldrge	r3, [r4, #84]	; 0x54
 8007632:	89a3      	ldrhlt	r3, [r4, #12]
 8007634:	181b      	addge	r3, r3, r0
 8007636:	f423 5380 	biclt.w	r3, r3, #4096	; 0x1000
 800763a:	bfac      	ite	ge
 800763c:	6563      	strge	r3, [r4, #84]	; 0x54
 800763e:	81a3      	strhlt	r3, [r4, #12]
 8007640:	bd10      	pop	{r4, pc}

08007642 <__swrite>:
 8007642:	e92d 41f0 	stmdb	sp!, {r4, r5, r6, r7, r8, lr}
 8007646:	461f      	mov	r7, r3
 8007648:	898b      	ldrh	r3, [r1, #12]
 800764a:	05db      	lsls	r3, r3, #23
 800764c:	4605      	mov	r5, r0
 800764e:	460c      	mov	r4, r1
 8007650:	4616      	mov	r6, r2
 8007652:	d505      	bpl.n	8007660 <__swrite+0x1e>
 8007654:	f9b1 100e 	ldrsh.w	r1, [r1, #14]
 8007658:	2302      	movs	r3, #2
 800765a:	2200      	movs	r2, #0
 800765c:	f000 f85c 	bl	8007718 <_lseek_r>
 8007660:	89a3      	ldrh	r3, [r4, #12]
 8007662:	f9b4 100e 	ldrsh.w	r1, [r4, #14]
 8007666:	f423 5380 	bic.w	r3, r3, #4096	; 0x1000
 800766a:	81a3      	strh	r3, [r4, #12]
 800766c:	4632      	mov	r2, r6
 800766e:	463b      	mov	r3, r7
 8007670:	4628      	mov	r0, r5
 8007672:	e8bd 41f0 	ldmia.w	sp!, {r4, r5, r6, r7, r8, lr}
 8007676:	f7fa b973 	b.w	8001960 <_write_r>

0800767a <__sseek>:
 800767a:	b510      	push	{r4, lr}
 800767c:	460c      	mov	r4, r1
 800767e:	f9b1 100e 	ldrsh.w	r1, [r1, #14]
 8007682:	f000 f849 	bl	8007718 <_lseek_r>
 8007686:	1c43      	adds	r3, r0, #1
 8007688:	89a3      	ldrh	r3, [r4, #12]
 800768a:	bf15      	itete	ne
 800768c:	6560      	strne	r0, [r4, #84]	; 0x54
 800768e:	f423 5380 	biceq.w	r3, r3, #4096	; 0x1000
 8007692:	f443 5380 	orrne.w	r3, r3, #4096	; 0x1000
 8007696:	81a3      	strheq	r3, [r4, #12]
 8007698:	bf18      	it	ne
 800769a:	81a3      	strhne	r3, [r4, #12]
 800769c:	bd10      	pop	{r4, pc}

0800769e <__sclose>:
 800769e:	f9b1 100e 	ldrsh.w	r1, [r1, #14]
 80076a2:	f000 b807 	b.w	80076b4 <_close_r>

080076a6 <abort>:
 80076a6:	b508      	push	{r3, lr}
 80076a8:	2006      	movs	r0, #6
 80076aa:	f000 f881 	bl	80077b0 <raise>
 80076ae:	2001      	movs	r0, #1
 80076b0:	f7fe fd45 	bl	800613e <_exit>

080076b4 <_close_r>:
 80076b4:	b538      	push	{r3, r4, r5, lr}
 80076b6:	4d06      	ldr	r5, [pc, #24]	; (80076d0 <_close_r+0x1c>)
 80076b8:	2300      	movs	r3, #0
 80076ba:	4604      	mov	r4, r0
 80076bc:	4608      	mov	r0, r1
 80076be:	602b      	str	r3, [r5, #0]
 80076c0:	f7fe fd64 	bl	800618c <_close>
 80076c4:	1c43      	adds	r3, r0, #1
 80076c6:	d102      	bne.n	80076ce <_close_r+0x1a>
 80076c8:	682b      	ldr	r3, [r5, #0]
 80076ca:	b103      	cbz	r3, 80076ce <_close_r+0x1a>
 80076cc:	6023      	str	r3, [r4, #0]
 80076ce:	bd38      	pop	{r3, r4, r5, pc}
 80076d0:	200001d8 	.word	0x200001d8

080076d4 <_fstat_r>:
 80076d4:	b538      	push	{r3, r4, r5, lr}
 80076d6:	4d07      	ldr	r5, [pc, #28]	; (80076f4 <_fstat_r+0x20>)
 80076d8:	2300      	movs	r3, #0
 80076da:	4604      	mov	r4, r0
 80076dc:	4608      	mov	r0, r1
 80076de:	4611      	mov	r1, r2
 80076e0:	602b      	str	r3, [r5, #0]
 80076e2:	f7fe fd5f 	bl	80061a4 <_fstat>
 80076e6:	1c43      	adds	r3, r0, #1
 80076e8:	d102      	bne.n	80076f0 <_fstat_r+0x1c>
 80076ea:	682b      	ldr	r3, [r5, #0]
 80076ec:	b103      	cbz	r3, 80076f0 <_fstat_r+0x1c>
 80076ee:	6023      	str	r3, [r4, #0]
 80076f0:	bd38      	pop	{r3, r4, r5, pc}
 80076f2:	bf00      	nop
 80076f4:	200001d8 	.word	0x200001d8

080076f8 <_isatty_r>:
 80076f8:	b538      	push	{r3, r4, r5, lr}
 80076fa:	4d06      	ldr	r5, [pc, #24]	; (8007714 <_isatty_r+0x1c>)
 80076fc:	2300      	movs	r3, #0
 80076fe:	4604      	mov	r4, r0
 8007700:	4608      	mov	r0, r1
 8007702:	602b      	str	r3, [r5, #0]
 8007704:	f7fe fd5e 	bl	80061c4 <_isatty>
 8007708:	1c43      	adds	r3, r0, #1
 800770a:	d102      	bne.n	8007712 <_isatty_r+0x1a>
 800770c:	682b      	ldr	r3, [r5, #0]
 800770e:	b103      	cbz	r3, 8007712 <_isatty_r+0x1a>
 8007710:	6023      	str	r3, [r4, #0]
 8007712:	bd38      	pop	{r3, r4, r5, pc}
 8007714:	200001d8 	.word	0x200001d8

08007718 <_lseek_r>:
 8007718:	b538      	push	{r3, r4, r5, lr}
 800771a:	4d07      	ldr	r5, [pc, #28]	; (8007738 <_lseek_r+0x20>)
 800771c:	4604      	mov	r4, r0
 800771e:	4608      	mov	r0, r1
 8007720:	4611      	mov	r1, r2
 8007722:	2200      	movs	r2, #0
 8007724:	602a      	str	r2, [r5, #0]
 8007726:	461a      	mov	r2, r3
 8007728:	f7fe fd57 	bl	80061da <_lseek>
 800772c:	1c43      	adds	r3, r0, #1
 800772e:	d102      	bne.n	8007736 <_lseek_r+0x1e>
 8007730:	682b      	ldr	r3, [r5, #0]
 8007732:	b103      	cbz	r3, 8007736 <_lseek_r+0x1e>
 8007734:	6023      	str	r3, [r4, #0]
 8007736:	bd38      	pop	{r3, r4, r5, pc}
 8007738:	200001d8 	.word	0x200001d8

0800773c <_read_r>:
 800773c:	b538      	push	{r3, r4, r5, lr}
 800773e:	4d07      	ldr	r5, [pc, #28]	; (800775c <_read_r+0x20>)
 8007740:	4604      	mov	r4, r0
 8007742:	4608      	mov	r0, r1
 8007744:	4611      	mov	r1, r2
 8007746:	2200      	movs	r2, #0
 8007748:	602a      	str	r2, [r5, #0]
 800774a:	461a      	mov	r2, r3
 800774c:	f7fe fd01 	bl	8006152 <_read>
 8007750:	1c43      	adds	r3, r0, #1
 8007752:	d102      	bne.n	800775a <_read_r+0x1e>
 8007754:	682b      	ldr	r3, [r5, #0]
 8007756:	b103      	cbz	r3, 800775a <_read_r+0x1e>
 8007758:	6023      	str	r3, [r4, #0]
 800775a:	bd38      	pop	{r3, r4, r5, pc}
 800775c:	200001d8 	.word	0x200001d8

08007760 <_raise_r>:
 8007760:	291f      	cmp	r1, #31
 8007762:	b538      	push	{r3, r4, r5, lr}
 8007764:	4604      	mov	r4, r0
 8007766:	460d      	mov	r5, r1
 8007768:	d904      	bls.n	8007774 <_raise_r+0x14>
 800776a:	2316      	movs	r3, #22
 800776c:	6003      	str	r3, [r0, #0]
 800776e:	f04f 30ff 	mov.w	r0, #4294967295	; 0xffffffff
 8007772:	bd38      	pop	{r3, r4, r5, pc}
 8007774:	6c42      	ldr	r2, [r0, #68]	; 0x44
 8007776:	b112      	cbz	r2, 800777e <_raise_r+0x1e>
 8007778:	f852 3021 	ldr.w	r3, [r2, r1, lsl #2]
 800777c:	b94b      	cbnz	r3, 8007792 <_raise_r+0x32>
 800777e:	4620      	mov	r0, r4
 8007780:	f000 f830 	bl	80077e4 <_getpid_r>
 8007784:	462a      	mov	r2, r5
 8007786:	4601      	mov	r1, r0
 8007788:	4620      	mov	r0, r4
 800778a:	e8bd 4038 	ldmia.w	sp!, {r3, r4, r5, lr}
 800778e:	f000 b817 	b.w	80077c0 <_kill_r>
 8007792:	2b01      	cmp	r3, #1
 8007794:	d00a      	beq.n	80077ac <_raise_r+0x4c>
 8007796:	1c59      	adds	r1, r3, #1
 8007798:	d103      	bne.n	80077a2 <_raise_r+0x42>
 800779a:	2316      	movs	r3, #22
 800779c:	6003      	str	r3, [r0, #0]
 800779e:	2001      	movs	r0, #1
 80077a0:	e7e7      	b.n	8007772 <_raise_r+0x12>
 80077a2:	2400      	movs	r4, #0
 80077a4:	f842 4025 	str.w	r4, [r2, r5, lsl #2]
 80077a8:	4628      	mov	r0, r5
 80077aa:	4798      	blx	r3
 80077ac:	2000      	movs	r0, #0
 80077ae:	e7e0      	b.n	8007772 <_raise_r+0x12>

080077b0 <raise>:
 80077b0:	4b02      	ldr	r3, [pc, #8]	; (80077bc <raise+0xc>)
 80077b2:	4601      	mov	r1, r0
 80077b4:	6818      	ldr	r0, [r3, #0]
 80077b6:	f7ff bfd3 	b.w	8007760 <_raise_r>
 80077ba:	bf00      	nop
 80077bc:	2000002c 	.word	0x2000002c

080077c0 <_kill_r>:
 80077c0:	b538      	push	{r3, r4, r5, lr}
 80077c2:	4d07      	ldr	r5, [pc, #28]	; (80077e0 <_kill_r+0x20>)
 80077c4:	2300      	movs	r3, #0
 80077c6:	4604      	mov	r4, r0
 80077c8:	4608      	mov	r0, r1
 80077ca:	4611      	mov	r1, r2
 80077cc:	602b      	str	r3, [r5, #0]
 80077ce:	f7fe fca6 	bl	800611e <_kill>
 80077d2:	1c43      	adds	r3, r0, #1
 80077d4:	d102      	bne.n	80077dc <_kill_r+0x1c>
 80077d6:	682b      	ldr	r3, [r5, #0]
 80077d8:	b103      	cbz	r3, 80077dc <_kill_r+0x1c>
 80077da:	6023      	str	r3, [r4, #0]
 80077dc:	bd38      	pop	{r3, r4, r5, pc}
 80077de:	bf00      	nop
 80077e0:	200001d8 	.word	0x200001d8

080077e4 <_getpid_r>:
 80077e4:	f7fe bc93 	b.w	800610e <_getpid>

080077e8 <_init>:
 80077e8:	b5f8      	push	{r3, r4, r5, r6, r7, lr}
 80077ea:	bf00      	nop
 80077ec:	bcf8      	pop	{r3, r4, r5, r6, r7}
 80077ee:	bc08      	pop	{r3}
 80077f0:	469e      	mov	lr, r3
 80077f2:	4770      	bx	lr

080077f4 <_fini>:
 80077f4:	b5f8      	push	{r3, r4, r5, r6, r7, lr}
 80077f6:	bf00      	nop
 80077f8:	bcf8      	pop	{r3, r4, r5, r6, r7}
 80077fa:	bc08      	pop	{r3}
 80077fc:	469e      	mov	lr, r3
 80077fe:	4770      	bx	lr
